
ucos_bcm2835.elf:     file format elf32-littlearm


Disassembly of section .init:

00008000 <_start>:
    8000:	e59ff018 	ldr	pc, [pc, #24]	; 8020 <reset_handler>
    8004:	e59ff018 	ldr	pc, [pc, #24]	; 8024 <undefined_handler>
    8008:	e59ff018 	ldr	pc, [pc, #24]	; 8028 <swi_handler>
    800c:	e59ff018 	ldr	pc, [pc, #24]	; 802c <prefetch_handler>
    8010:	e59ff018 	ldr	pc, [pc, #24]	; 8030 <data_handler>
    8014:	e59ff018 	ldr	pc, [pc, #24]	; 8034 <unused_handler>
    8018:	e59ff018 	ldr	pc, [pc, #24]	; 8038 <irq_handler>
    801c:	e59ff018 	ldr	pc, [pc, #24]	; 803c <fiq_handler>

00008020 <reset_handler>:
    8020:	00008040 	andeq	r8, r0, r0, asr #32

00008024 <undefined_handler>:
    8024:	00011630 	andeq	r1, r1, r0, lsr r6

00008028 <swi_handler>:
    8028:	0001164c 	andeq	r1, r1, ip, asr #12

0000802c <prefetch_handler>:
    802c:	00011668 	andeq	r1, r1, r8, ror #12

00008030 <data_handler>:
    8030:	00011684 	andeq	r1, r1, r4, lsl #13

00008034 <unused_handler>:
    8034:	000115f8 	strdeq	r1, [r1], -r8

00008038 <irq_handler>:
    8038:	000129d4 	ldrdeq	r2, [r1], -r4

0000803c <fiq_handler>:
    803c:	00011614 	andeq	r1, r1, r4, lsl r6

00008040 <reset>:
    8040:	e3a00902 	mov	r0, #32768	; 0x8000
    8044:	e3a01000 	mov	r1, #0
    8048:	e8b003fc 	ldm	r0!, {r2, r3, r4, r5, r6, r7, r8, r9}
    804c:	e8a103fc 	stmia	r1!, {r2, r3, r4, r5, r6, r7, r8, r9}
    8050:	e8b003fc 	ldm	r0!, {r2, r3, r4, r5, r6, r7, r8, r9}
    8054:	e8a103fc 	stmia	r1!, {r2, r3, r4, r5, r6, r7, r8, r9}
    8058:	e3a000d2 	mov	r0, #210	; 0xd2
    805c:	e121f000 	msr	CPSR_c, r0
    8060:	e3a0d902 	mov	sp, #32768	; 0x8000
    8064:	e3a0d901 	mov	sp, #16384	; 0x4000
    8068:	e3a000df 	mov	r0, #223	; 0xdf
    806c:	e121f000 	msr	CPSR_c, r0
    8070:	e3a0d901 	mov	sp, #16384	; 0x4000
    8074:	e59f0018 	ldr	r0, [pc, #24]	; 8094 <zero_loop+0x14>
    8078:	e59f1018 	ldr	r1, [pc, #24]	; 8098 <zero_loop+0x18>
    807c:	e3a02000 	mov	r2, #0

00008080 <zero_loop>:
    8080:	e1500001 	cmp	r0, r1
    8084:	b4802004 	strlt	r2, [r0], #4
    8088:	bafffffc 	blt	8080 <zero_loop>
    808c:	eb002466 	bl	1122c <DisableInterrupts>
    8090:	ea004597 	b	196f4 <main>
    8094:	00019fec 	andeq	r9, r1, ip, ror #31
    8098:	00024850 	andeq	r4, r2, r0, asr r8

Disassembly of section .text:

00010000 <hang>:
   10000:	eafffffe 	b	10000 <hang>

00010004 <PUT32>:
   10004:	e5801000 	str	r1, [r0]
   10008:	e12fff1e 	bx	lr

0001000c <GET32>:
   1000c:	e5900000 	ldr	r0, [r0]
   10010:	e12fff1e 	bx	lr

00010014 <GET_SP>:
   10014:	e1a0000d 	mov	r0, sp
   10018:	e12fff1e 	bx	lr

0001001c <GET_PC>:
   1001c:	e1a0000f 	mov	r0, pc
   10020:	e12fff1e 	bx	lr

00010024 <dummy>:
   10024:	e12fff1e 	bx	lr

00010028 <uart_lcr>:
   10028:	e92d4800 	push	{fp, lr}
   1002c:	e28db004 	add	fp, sp, #4
   10030:	e59f000c 	ldr	r0, [pc, #12]	; 10044 <uart_lcr+0x1c>
   10034:	ebfffff4 	bl	1000c <GET32>
   10038:	e1a03000 	mov	r3, r0
   1003c:	e1a00003 	mov	r0, r3
   10040:	e8bd8800 	pop	{fp, pc}
   10044:	20215054 	eorcs	r5, r1, r4, asr r0

00010048 <uart_recv>:
   10048:	e92d4800 	push	{fp, lr}
   1004c:	e28db004 	add	fp, sp, #4
   10050:	e59f0030 	ldr	r0, [pc, #48]	; 10088 <uart_recv+0x40>
   10054:	ebffffec 	bl	1000c <GET32>
   10058:	e1a03000 	mov	r3, r0
   1005c:	e2033001 	and	r3, r3, #1
   10060:	e3530000 	cmp	r3, #0
   10064:	0a000000 	beq	1006c <uart_recv+0x24>
   10068:	ea000000 	b	10070 <uart_recv+0x28>
   1006c:	eafffff7 	b	10050 <uart_recv+0x8>
   10070:	e59f0014 	ldr	r0, [pc, #20]	; 1008c <uart_recv+0x44>
   10074:	ebffffe4 	bl	1000c <GET32>
   10078:	e1a03000 	mov	r3, r0
   1007c:	e6ef3073 	uxtb	r3, r3
   10080:	e1a00003 	mov	r0, r3
   10084:	e8bd8800 	pop	{fp, pc}
   10088:	20215054 	eorcs	r5, r1, r4, asr r0
   1008c:	20215040 	eorcs	r5, r1, r0, asr #32

00010090 <uart_send>:
   10090:	e92d4800 	push	{fp, lr}
   10094:	e28db004 	add	fp, sp, #4
   10098:	e24dd008 	sub	sp, sp, #8
   1009c:	e50b0008 	str	r0, [fp, #-8]
   100a0:	e59f002c 	ldr	r0, [pc, #44]	; 100d4 <uart_send+0x44>
   100a4:	ebffffd8 	bl	1000c <GET32>
   100a8:	e1a03000 	mov	r3, r0
   100ac:	e2033020 	and	r3, r3, #32
   100b0:	e3530000 	cmp	r3, #0
   100b4:	0a000000 	beq	100bc <uart_send+0x2c>
   100b8:	ea000000 	b	100c0 <uart_send+0x30>
   100bc:	eafffff7 	b	100a0 <uart_send+0x10>
   100c0:	e59f0010 	ldr	r0, [pc, #16]	; 100d8 <uart_send+0x48>
   100c4:	e51b1008 	ldr	r1, [fp, #-8]
   100c8:	ebffffcd 	bl	10004 <PUT32>
   100cc:	e24bd004 	sub	sp, fp, #4
   100d0:	e8bd8800 	pop	{fp, pc}
   100d4:	20215054 	eorcs	r5, r1, r4, asr r0
   100d8:	20215040 	eorcs	r5, r1, r0, asr #32

000100dc <uart_flush>:
   100dc:	e92d4800 	push	{fp, lr}
   100e0:	e28db004 	add	fp, sp, #4
   100e4:	e59f001c 	ldr	r0, [pc, #28]	; 10108 <uart_flush+0x2c>
   100e8:	ebffffc7 	bl	1000c <GET32>
   100ec:	e1a03000 	mov	r3, r0
   100f0:	e2033c01 	and	r3, r3, #256	; 0x100
   100f4:	e3530000 	cmp	r3, #0
   100f8:	1a000000 	bne	10100 <uart_flush+0x24>
   100fc:	ea000000 	b	10104 <uart_flush+0x28>
   10100:	eafffff7 	b	100e4 <uart_flush+0x8>
   10104:	e8bd8800 	pop	{fp, pc}
   10108:	20215054 	eorcs	r5, r1, r4, asr r0

0001010c <hexstrings>:
   1010c:	e92d4800 	push	{fp, lr}
   10110:	e28db004 	add	fp, sp, #4
   10114:	e24dd010 	sub	sp, sp, #16
   10118:	e50b0010 	str	r0, [fp, #-16]
   1011c:	e3a03020 	mov	r3, #32
   10120:	e50b3008 	str	r3, [fp, #-8]
   10124:	e51b3008 	ldr	r3, [fp, #-8]
   10128:	e2433004 	sub	r3, r3, #4
   1012c:	e50b3008 	str	r3, [fp, #-8]
   10130:	e51b3008 	ldr	r3, [fp, #-8]
   10134:	e51b2010 	ldr	r2, [fp, #-16]
   10138:	e1a03332 	lsr	r3, r2, r3
   1013c:	e203300f 	and	r3, r3, #15
   10140:	e50b300c 	str	r3, [fp, #-12]
   10144:	e51b300c 	ldr	r3, [fp, #-12]
   10148:	e3530009 	cmp	r3, #9
   1014c:	9a000003 	bls	10160 <hexstrings+0x54>
   10150:	e51b300c 	ldr	r3, [fp, #-12]
   10154:	e2833037 	add	r3, r3, #55	; 0x37
   10158:	e50b300c 	str	r3, [fp, #-12]
   1015c:	ea000002 	b	1016c <hexstrings+0x60>
   10160:	e51b300c 	ldr	r3, [fp, #-12]
   10164:	e2833030 	add	r3, r3, #48	; 0x30
   10168:	e50b300c 	str	r3, [fp, #-12]
   1016c:	e51b000c 	ldr	r0, [fp, #-12]
   10170:	ebffffc6 	bl	10090 <uart_send>
   10174:	e51b3008 	ldr	r3, [fp, #-8]
   10178:	e3530000 	cmp	r3, #0
   1017c:	1a000000 	bne	10184 <hexstrings+0x78>
   10180:	ea000000 	b	10188 <hexstrings+0x7c>
   10184:	eaffffe6 	b	10124 <hexstrings+0x18>
   10188:	e3a00020 	mov	r0, #32
   1018c:	ebffffbf 	bl	10090 <uart_send>
   10190:	e24bd004 	sub	sp, fp, #4
   10194:	e8bd8800 	pop	{fp, pc}

00010198 <hexstring_showstop>:
   10198:	e92d4800 	push	{fp, lr}
   1019c:	e28db004 	add	fp, sp, #4
   101a0:	e24dd008 	sub	sp, sp, #8
   101a4:	e50b0008 	str	r0, [fp, #-8]
   101a8:	e51b0008 	ldr	r0, [fp, #-8]
   101ac:	ebffffd6 	bl	1010c <hexstrings>
   101b0:	e3a0000d 	mov	r0, #13
   101b4:	ebffffb5 	bl	10090 <uart_send>
   101b8:	e3a0000a 	mov	r0, #10
   101bc:	ebffffb3 	bl	10090 <uart_send>
   101c0:	e24bd004 	sub	sp, fp, #4
   101c4:	e8bd8800 	pop	{fp, pc}

000101c8 <hexstring>:
   101c8:	e52db004 	push	{fp}		; (str fp, [sp, #-4]!)
   101cc:	e28db000 	add	fp, sp, #0
   101d0:	e24dd00c 	sub	sp, sp, #12
   101d4:	e50b0008 	str	r0, [fp, #-8]
   101d8:	e1a00000 	nop			; (mov r0, r0)
   101dc:	e24bd000 	sub	sp, fp, #0
   101e0:	e49db004 	pop	{fp}		; (ldr fp, [sp], #4)
   101e4:	e12fff1e 	bx	lr

000101e8 <aux_uart_isr>:
   101e8:	e92d4800 	push	{fp, lr}
   101ec:	e28db004 	add	fp, sp, #4
   101f0:	e24dd008 	sub	sp, sp, #8
   101f4:	e3a0001d 	mov	r0, #29
   101f8:	eb0003e4 	bl	11190 <DisableInterrupt>
   101fc:	e59f00e0 	ldr	r0, [pc, #224]	; 102e4 <aux_uart_isr+0xfc>
   10200:	e3a01001 	mov	r1, #1
   10204:	ebffff7e 	bl	10004 <PUT32>
   10208:	e59f00d4 	ldr	r0, [pc, #212]	; 102e4 <aux_uart_isr+0xfc>
   1020c:	ebffff7e 	bl	1000c <GET32>
   10210:	e50b0008 	str	r0, [fp, #-8]
   10214:	e51b3008 	ldr	r3, [fp, #-8]
   10218:	e2033001 	and	r3, r3, #1
   1021c:	e3530000 	cmp	r3, #0
   10220:	0a000000 	beq	10228 <aux_uart_isr+0x40>
   10224:	ea00002a 	b	102d4 <aux_uart_isr+0xec>
   10228:	e51b3008 	ldr	r3, [fp, #-8]
   1022c:	e2033006 	and	r3, r3, #6
   10230:	e3530004 	cmp	r3, #4
   10234:	1a000009 	bne	10260 <aux_uart_isr+0x78>
   10238:	e59f00a8 	ldr	r0, [pc, #168]	; 102e8 <aux_uart_isr+0x100>
   1023c:	ebffff72 	bl	1000c <GET32>
   10240:	e1a03000 	mov	r3, r0
   10244:	e6ef2073 	uxtb	r2, r3
   10248:	e59f309c 	ldr	r3, [pc, #156]	; 102ec <aux_uart_isr+0x104>
   1024c:	e5c32000 	strb	r2, [r3]
   10250:	e59f0098 	ldr	r0, [pc, #152]	; 102f0 <aux_uart_isr+0x108>
   10254:	e59f1090 	ldr	r1, [pc, #144]	; 102ec <aux_uart_isr+0x104>
   10258:	e3a02001 	mov	r2, #1
   1025c:	eb00046c 	bl	11414 <fifoPut>
   10260:	e51b3008 	ldr	r3, [fp, #-8]
   10264:	e2033006 	and	r3, r3, #6
   10268:	e3530002 	cmp	r3, #2
   1026c:	1a000017 	bne	102d0 <aux_uart_isr+0xe8>
   10270:	e59f007c 	ldr	r0, [pc, #124]	; 102f4 <aux_uart_isr+0x10c>
   10274:	e59f107c 	ldr	r1, [pc, #124]	; 102f8 <aux_uart_isr+0x110>
   10278:	e3a02001 	mov	r2, #1
   1027c:	eb000409 	bl	112a8 <fifoGet>
   10280:	e50b000c 	str	r0, [fp, #-12]
   10284:	e51b300c 	ldr	r3, [fp, #-12]
   10288:	e3530001 	cmp	r3, #1
   1028c:	1a000008 	bne	102b4 <aux_uart_isr+0xcc>
   10290:	e59f3060 	ldr	r3, [pc, #96]	; 102f8 <aux_uart_isr+0x110>
   10294:	e5d33000 	ldrb	r3, [r3]
   10298:	e59f0048 	ldr	r0, [pc, #72]	; 102e8 <aux_uart_isr+0x100>
   1029c:	e1a01003 	mov	r1, r3
   102a0:	ebffff57 	bl	10004 <PUT32>
   102a4:	e59f3050 	ldr	r3, [pc, #80]	; 102fc <aux_uart_isr+0x114>
   102a8:	e3a02001 	mov	r2, #1
   102ac:	e5832000 	str	r2, [r3]
   102b0:	ea000006 	b	102d0 <aux_uart_isr+0xe8>
   102b4:	e59f0044 	ldr	r0, [pc, #68]	; 10300 <aux_uart_isr+0x118>
   102b8:	e3a01001 	mov	r1, #1
   102bc:	ebffff50 	bl	10004 <PUT32>
   102c0:	e59f3034 	ldr	r3, [pc, #52]	; 102fc <aux_uart_isr+0x114>
   102c4:	e3a02000 	mov	r2, #0
   102c8:	e5832000 	str	r2, [r3]
   102cc:	eaffffcd 	b	10208 <aux_uart_isr+0x20>
   102d0:	eaffffcc 	b	10208 <aux_uart_isr+0x20>
   102d4:	e3a0001d 	mov	r0, #29
   102d8:	eb000385 	bl	110f4 <EnableInterrupt>
   102dc:	e24bd004 	sub	sp, fp, #4
   102e0:	e8bd8800 	pop	{fp, pc}
   102e4:	20215048 	eorcs	r5, r1, r8, asr #32
   102e8:	20215040 	eorcs	r5, r1, r0, asr #32
   102ec:	0001a010 	andeq	sl, r1, r0, lsl r0
   102f0:	00019ff0 	strdeq	r9, [r1], -r0
   102f4:	0001a000 	andeq	sl, r1, r0
   102f8:	0001a011 	andeq	sl, r1, r1, lsl r0
   102fc:	0001a014 	andeq	sl, r1, r4, lsl r0
   10300:	20215044 	eorcs	r5, r1, r4, asr #32

00010304 <uart_init>:
   10304:	e92d4800 	push	{fp, lr}
   10308:	e28db004 	add	fp, sp, #4
   1030c:	e24dd018 	sub	sp, sp, #24
   10310:	e59f02b8 	ldr	r0, [pc, #696]	; 105d0 <uart_init+0x2cc>
   10314:	e3a01001 	mov	r1, #1
   10318:	ebffff39 	bl	10004 <PUT32>
   1031c:	e59f02b0 	ldr	r0, [pc, #688]	; 105d4 <uart_init+0x2d0>
   10320:	e3a01000 	mov	r1, #0
   10324:	ebffff36 	bl	10004 <PUT32>
   10328:	e59f02a8 	ldr	r0, [pc, #680]	; 105d8 <uart_init+0x2d4>
   1032c:	e3a01000 	mov	r1, #0
   10330:	ebffff33 	bl	10004 <PUT32>
   10334:	e59f02a0 	ldr	r0, [pc, #672]	; 105dc <uart_init+0x2d8>
   10338:	e3a01003 	mov	r1, #3
   1033c:	ebffff30 	bl	10004 <PUT32>
   10340:	e59f0298 	ldr	r0, [pc, #664]	; 105e0 <uart_init+0x2dc>
   10344:	e3a01000 	mov	r1, #0
   10348:	ebffff2d 	bl	10004 <PUT32>
   1034c:	e59f0280 	ldr	r0, [pc, #640]	; 105d4 <uart_init+0x2d0>
   10350:	e3a01001 	mov	r1, #1
   10354:	ebffff2a 	bl	10004 <PUT32>
   10358:	e59f0284 	ldr	r0, [pc, #644]	; 105e4 <uart_init+0x2e0>
   1035c:	e3a010c6 	mov	r1, #198	; 0xc6
   10360:	ebffff27 	bl	10004 <PUT32>
   10364:	e59f027c 	ldr	r0, [pc, #636]	; 105e8 <uart_init+0x2e4>
   10368:	e59f127c 	ldr	r1, [pc, #636]	; 105ec <uart_init+0x2e8>
   1036c:	ebffff24 	bl	10004 <PUT32>
   10370:	e59f0278 	ldr	r0, [pc, #632]	; 105f0 <uart_init+0x2ec>
   10374:	ebffff24 	bl	1000c <GET32>
   10378:	e50b0008 	str	r0, [fp, #-8]
   1037c:	e51b3008 	ldr	r3, [fp, #-8]
   10380:	e3c33a07 	bic	r3, r3, #28672	; 0x7000
   10384:	e50b3008 	str	r3, [fp, #-8]
   10388:	e51b3008 	ldr	r3, [fp, #-8]
   1038c:	e3833a02 	orr	r3, r3, #8192	; 0x2000
   10390:	e50b3008 	str	r3, [fp, #-8]
   10394:	e51b3008 	ldr	r3, [fp, #-8]
   10398:	e3c3390e 	bic	r3, r3, #229376	; 0x38000
   1039c:	e50b3008 	str	r3, [fp, #-8]
   103a0:	e51b3008 	ldr	r3, [fp, #-8]
   103a4:	e3833801 	orr	r3, r3, #65536	; 0x10000
   103a8:	e50b3008 	str	r3, [fp, #-8]
   103ac:	e59f023c 	ldr	r0, [pc, #572]	; 105f0 <uart_init+0x2ec>
   103b0:	e51b1008 	ldr	r1, [fp, #-8]
   103b4:	ebffff12 	bl	10004 <PUT32>
   103b8:	e59f0234 	ldr	r0, [pc, #564]	; 105f4 <uart_init+0x2f0>
   103bc:	e3a01000 	mov	r1, #0
   103c0:	ebffff0f 	bl	10004 <PUT32>
   103c4:	e3a03000 	mov	r3, #0
   103c8:	e50b3008 	str	r3, [fp, #-8]
   103cc:	ea000004 	b	103e4 <uart_init+0xe0>
   103d0:	e51b0008 	ldr	r0, [fp, #-8]
   103d4:	ebffff12 	bl	10024 <dummy>
   103d8:	e51b3008 	ldr	r3, [fp, #-8]
   103dc:	e2833001 	add	r3, r3, #1
   103e0:	e50b3008 	str	r3, [fp, #-8]
   103e4:	e51b3008 	ldr	r3, [fp, #-8]
   103e8:	e3530095 	cmp	r3, #149	; 0x95
   103ec:	9afffff7 	bls	103d0 <uart_init+0xcc>
   103f0:	e59f0200 	ldr	r0, [pc, #512]	; 105f8 <uart_init+0x2f4>
   103f4:	e3a01903 	mov	r1, #49152	; 0xc000
   103f8:	ebffff01 	bl	10004 <PUT32>
   103fc:	e3a03000 	mov	r3, #0
   10400:	e50b3008 	str	r3, [fp, #-8]
   10404:	ea000004 	b	1041c <uart_init+0x118>
   10408:	e51b0008 	ldr	r0, [fp, #-8]
   1040c:	ebffff04 	bl	10024 <dummy>
   10410:	e51b3008 	ldr	r3, [fp, #-8]
   10414:	e2833001 	add	r3, r3, #1
   10418:	e50b3008 	str	r3, [fp, #-8]
   1041c:	e51b3008 	ldr	r3, [fp, #-8]
   10420:	e3530095 	cmp	r3, #149	; 0x95
   10424:	9afffff7 	bls	10408 <uart_init+0x104>
   10428:	e59f01c8 	ldr	r0, [pc, #456]	; 105f8 <uart_init+0x2f4>
   1042c:	e3a01000 	mov	r1, #0
   10430:	ebfffef3 	bl	10004 <PUT32>
   10434:	e59f019c 	ldr	r0, [pc, #412]	; 105d8 <uart_init+0x2d4>
   10438:	e3a01003 	mov	r1, #3
   1043c:	ebfffef0 	bl	10004 <PUT32>
   10440:	e59f01b4 	ldr	r0, [pc, #436]	; 105fc <uart_init+0x2f8>
   10444:	eb000091 	bl	10690 <uart_string>
   10448:	e3a0001d 	mov	r0, #29
   1044c:	e59f11ac 	ldr	r1, [pc, #428]	; 10600 <uart_init+0x2fc>
   10450:	e3a02000 	mov	r2, #0
   10454:	eb00030a 	bl	11084 <RegisterInterrupt>
   10458:	e3a0001d 	mov	r0, #29
   1045c:	eb000324 	bl	110f4 <EnableInterrupt>
   10460:	e3a03000 	mov	r3, #0
   10464:	e54b3011 	strb	r3, [fp, #-17]
   10468:	e59f0194 	ldr	r0, [pc, #404]	; 10604 <uart_init+0x300>
   1046c:	eb000087 	bl	10690 <uart_string>
   10470:	e59f3190 	ldr	r3, [pc, #400]	; 10608 <uart_init+0x304>
   10474:	e5933000 	ldr	r3, [r3]
   10478:	e1a00003 	mov	r0, r3
   1047c:	ebffff51 	bl	101c8 <hexstring>
   10480:	e3a00005 	mov	r0, #5
   10484:	ebffff4f 	bl	101c8 <hexstring>
   10488:	e24b3011 	sub	r3, fp, #17
   1048c:	e59f0178 	ldr	r0, [pc, #376]	; 1060c <uart_init+0x308>
   10490:	e3a01002 	mov	r1, #2
   10494:	e3a02901 	mov	r2, #16384	; 0x4000
   10498:	eb00159b 	bl	15b0c <OSMemCreate>
   1049c:	e1a02000 	mov	r2, r0
   104a0:	e59f3168 	ldr	r3, [pc, #360]	; 10610 <uart_init+0x30c>
   104a4:	e5832000 	str	r2, [r3]
   104a8:	e55b3011 	ldrb	r3, [fp, #-17]
   104ac:	e3530000 	cmp	r3, #0
   104b0:	0a000003 	beq	104c4 <uart_init+0x1c0>
   104b4:	e55b3011 	ldrb	r3, [fp, #-17]
   104b8:	e1a00003 	mov	r0, r3
   104bc:	ebffff41 	bl	101c8 <hexstring>
   104c0:	eb000443 	bl	115d4 <showstop>
   104c4:	e59f3144 	ldr	r3, [pc, #324]	; 10610 <uart_init+0x30c>
   104c8:	e5932000 	ldr	r2, [r3]
   104cc:	e24b3011 	sub	r3, fp, #17
   104d0:	e1a00002 	mov	r0, r2
   104d4:	e1a01003 	mov	r1, r3
   104d8:	eb0015f7 	bl	15cbc <OSMemGet>
   104dc:	e50b000c 	str	r0, [fp, #-12]
   104e0:	e51b300c 	ldr	r3, [fp, #-12]
   104e4:	e3530000 	cmp	r3, #0
   104e8:	1a000000 	bne	104f0 <uart_init+0x1ec>
   104ec:	eb000438 	bl	115d4 <showstop>
   104f0:	e59f3118 	ldr	r3, [pc, #280]	; 10610 <uart_init+0x30c>
   104f4:	e5932000 	ldr	r2, [r3]
   104f8:	e24b3011 	sub	r3, fp, #17
   104fc:	e1a00002 	mov	r0, r2
   10500:	e1a01003 	mov	r1, r3
   10504:	eb0015ec 	bl	15cbc <OSMemGet>
   10508:	e50b0010 	str	r0, [fp, #-16]
   1050c:	e51b3010 	ldr	r3, [fp, #-16]
   10510:	e3530000 	cmp	r3, #0
   10514:	1a000000 	bne	1051c <uart_init+0x218>
   10518:	eb00042d 	bl	115d4 <showstop>
   1051c:	e59f00f0 	ldr	r0, [pc, #240]	; 10614 <uart_init+0x310>
   10520:	e51b100c 	ldr	r1, [fp, #-12]
   10524:	e3a02b01 	mov	r2, #1024	; 0x400
   10528:	eb000345 	bl	11244 <fifoCreate>
   1052c:	e59f00e4 	ldr	r0, [pc, #228]	; 10618 <uart_init+0x314>
   10530:	e51b1010 	ldr	r1, [fp, #-16]
   10534:	e3a02b01 	mov	r2, #1024	; 0x400
   10538:	eb000341 	bl	11244 <fifoCreate>
   1053c:	e59f30d8 	ldr	r3, [pc, #216]	; 1061c <uart_init+0x318>
   10540:	e3a02000 	mov	r2, #0
   10544:	e5832000 	str	r2, [r3]
   10548:	e59f0080 	ldr	r0, [pc, #128]	; 105d0 <uart_init+0x2cc>
   1054c:	e3a01000 	mov	r1, #0
   10550:	ebfffeab 	bl	10004 <PUT32>
   10554:	e59f30c4 	ldr	r3, [pc, #196]	; 10620 <uart_init+0x31c>
   10558:	e59f20c4 	ldr	r2, [pc, #196]	; 10624 <uart_init+0x320>
   1055c:	e5832008 	str	r2, [r3, #8]
   10560:	e59f30b8 	ldr	r3, [pc, #184]	; 10620 <uart_init+0x31c>
   10564:	e59f20bc 	ldr	r2, [pc, #188]	; 10628 <uart_init+0x324>
   10568:	e583200c 	str	r2, [r3, #12]
   1056c:	e59f30ac 	ldr	r3, [pc, #172]	; 10620 <uart_init+0x31c>
   10570:	e59f20b4 	ldr	r2, [pc, #180]	; 1062c <uart_init+0x328>
   10574:	e5832000 	str	r2, [r3]
   10578:	e59f30a0 	ldr	r3, [pc, #160]	; 10620 <uart_init+0x31c>
   1057c:	e59f20ac 	ldr	r2, [pc, #172]	; 10630 <uart_init+0x32c>
   10580:	e5832004 	str	r2, [r3, #4]
   10584:	e59f3094 	ldr	r3, [pc, #148]	; 10620 <uart_init+0x31c>
   10588:	e59f20a4 	ldr	r2, [pc, #164]	; 10634 <uart_init+0x330>
   1058c:	e5832010 	str	r2, [r3, #16]
   10590:	e59f3088 	ldr	r3, [pc, #136]	; 10620 <uart_init+0x31c>
   10594:	e3a02000 	mov	r2, #0
   10598:	e5832014 	str	r2, [r3, #20]
   1059c:	e59f307c 	ldr	r3, [pc, #124]	; 10620 <uart_init+0x31c>
   105a0:	e1a0200d 	mov	r2, sp
   105a4:	e2831010 	add	r1, r3, #16
   105a8:	e8910003 	ldm	r1, {r0, r1}
   105ac:	e8820003 	stm	r2, {r0, r1}
   105b0:	e893000f 	ldm	r3, {r0, r1, r2, r3}
   105b4:	eb000764 	bl	1234c <dev_reg>
   105b8:	e1a03000 	mov	r3, r0
   105bc:	e3530000 	cmp	r3, #0
   105c0:	0a000000 	beq	105c8 <uart_init+0x2c4>
   105c4:	eb000402 	bl	115d4 <showstop>
   105c8:	e24bd004 	sub	sp, fp, #4
   105cc:	e8bd8800 	pop	{fp, pc}
   105d0:	20215004 	eorcs	r5, r1, r4
   105d4:	20215044 	eorcs	r5, r1, r4, asr #32
   105d8:	20215060 	eorcs	r5, r1, r0, rrx
   105dc:	2021504c 	eorcs	r5, r1, ip, asr #32
   105e0:	20215050 	eorcs	r5, r1, r0, asr r0
   105e4:	20215048 	eorcs	r5, r1, r8, asr #32
   105e8:	20215068 	eorcs	r5, r1, r8, rrx
   105ec:	0000010e 	andeq	r0, r0, lr, lsl #2
   105f0:	20200004 	eorcs	r0, r0, r4
   105f4:	20200094 	mlacs	r0, r4, r0, r0
   105f8:	20200098 	mlacs	r0, r8, r0, r0
   105fc:	00019d9c 	muleq	r1, ip, sp
   10600:	000101e8 	andeq	r0, r1, r8, ror #3
   10604:	00019db0 			; <UNDEFINED> instruction: 0x00019db0
   10608:	0001bd40 	andeq	fp, r1, r0, asr #26
   1060c:	0001a01c 	andeq	sl, r1, ip, lsl r0
   10610:	00019fec 	andeq	r9, r1, ip, ror #31
   10614:	00019ff0 	strdeq	r9, [r1], -r0
   10618:	0001a000 	andeq	sl, r1, r0
   1061c:	0001a014 	andeq	sl, r1, r4, lsl r0
   10620:	0001a81c 	andeq	sl, r1, ip, lsl r8
   10624:	000107d4 	ldrdeq	r0, [r1], -r4
   10628:	00010828 	andeq	r0, r1, r8, lsr #16
   1062c:	0001086c 	andeq	r0, r1, ip, ror #16
   10630:	00010914 	andeq	r0, r1, r4, lsl r9
   10634:	00019db4 			; <UNDEFINED> instruction: 0x00019db4

00010638 <uart_string_showstop>:
   10638:	e92d4800 	push	{fp, lr}
   1063c:	e28db004 	add	fp, sp, #4
   10640:	e24dd008 	sub	sp, sp, #8
   10644:	e50b0008 	str	r0, [fp, #-8]
   10648:	ea000006 	b	10668 <uart_string_showstop+0x30>
   1064c:	e51b3008 	ldr	r3, [fp, #-8]
   10650:	e5d33000 	ldrb	r3, [r3]
   10654:	e1a00003 	mov	r0, r3
   10658:	ebfffe8c 	bl	10090 <uart_send>
   1065c:	e51b3008 	ldr	r3, [fp, #-8]
   10660:	e2833001 	add	r3, r3, #1
   10664:	e50b3008 	str	r3, [fp, #-8]
   10668:	e51b3008 	ldr	r3, [fp, #-8]
   1066c:	e5d33000 	ldrb	r3, [r3]
   10670:	e3530000 	cmp	r3, #0
   10674:	1afffff4 	bne	1064c <uart_string_showstop+0x14>
   10678:	e3a0000d 	mov	r0, #13
   1067c:	ebfffe83 	bl	10090 <uart_send>
   10680:	e3a0000a 	mov	r0, #10
   10684:	ebfffe81 	bl	10090 <uart_send>
   10688:	e24bd004 	sub	sp, fp, #4
   1068c:	e8bd8800 	pop	{fp, pc}

00010690 <uart_string>:
   10690:	e52db004 	push	{fp}		; (str fp, [sp, #-4]!)
   10694:	e28db000 	add	fp, sp, #0
   10698:	e24dd00c 	sub	sp, sp, #12
   1069c:	e50b0008 	str	r0, [fp, #-8]
   106a0:	e1a00000 	nop			; (mov r0, r0)
   106a4:	e24bd000 	sub	sp, fp, #0
   106a8:	e49db004 	pop	{fp}		; (ldr fp, [sp], #4)
   106ac:	e12fff1e 	bx	lr

000106b0 <uart_string_dma>:
   106b0:	e92d4800 	push	{fp, lr}
   106b4:	e28db004 	add	fp, sp, #4
   106b8:	e24dd010 	sub	sp, sp, #16
   106bc:	e50b0010 	str	r0, [fp, #-16]
   106c0:	eb0001aa 	bl	10d70 <dma_init>
   106c4:	e3a00021 	mov	r0, #33	; 0x21
   106c8:	ebfffe70 	bl	10090 <uart_send>
   106cc:	e3a03101 	mov	r3, #1073741824	; 0x40000000
   106d0:	e50b3008 	str	r3, [fp, #-8]
   106d4:	e59f00e8 	ldr	r0, [pc, #232]	; 107c4 <uart_string_dma+0x114>
   106d8:	e3a01025 	mov	r1, #37	; 0x25
   106dc:	e3a02c01 	mov	r2, #256	; 0x100
   106e0:	eb00249b 	bl	19954 <memset>
   106e4:	e3a00a12 	mov	r0, #73728	; 0x12000
   106e8:	e3a01000 	mov	r1, #0
   106ec:	e3a02008 	mov	r2, #8
   106f0:	eb002497 	bl	19954 <memset>
   106f4:	e51b3008 	ldr	r3, [fp, #-8]
   106f8:	e59f20c8 	ldr	r2, [pc, #200]	; 107c8 <uart_string_dma+0x118>
   106fc:	e5832000 	str	r2, [r3]
   10700:	e51b3008 	ldr	r3, [fp, #-8]
   10704:	e59f20b8 	ldr	r2, [pc, #184]	; 107c4 <uart_string_dma+0x114>
   10708:	e5832004 	str	r2, [r3, #4]
   1070c:	e51b3008 	ldr	r3, [fp, #-8]
   10710:	e59f20b4 	ldr	r2, [pc, #180]	; 107cc <uart_string_dma+0x11c>
   10714:	e5832008 	str	r2, [r3, #8]
   10718:	e51b3008 	ldr	r3, [fp, #-8]
   1071c:	e3a020f0 	mov	r2, #240	; 0xf0
   10720:	e583200c 	str	r2, [r3, #12]
   10724:	e51b3008 	ldr	r3, [fp, #-8]
   10728:	e3a02000 	mov	r2, #0
   1072c:	e5832010 	str	r2, [r3, #16]
   10730:	e51b3008 	ldr	r3, [fp, #-8]
   10734:	e3a02000 	mov	r2, #0
   10738:	e5832014 	str	r2, [r3, #20]
   1073c:	e3a03001 	mov	r3, #1
   10740:	e50b300c 	str	r3, [fp, #-12]
   10744:	e59f0084 	ldr	r0, [pc, #132]	; 107d0 <uart_string_dma+0x120>
   10748:	ebffffd0 	bl	10690 <uart_string>
   1074c:	e3a03101 	mov	r3, #1073741824	; 0x40000000
   10750:	e5933000 	ldr	r3, [r3]
   10754:	e1a00003 	mov	r0, r3
   10758:	ebfffe9a 	bl	101c8 <hexstring>
   1075c:	e3a03101 	mov	r3, #1073741824	; 0x40000000
   10760:	e5933004 	ldr	r3, [r3, #4]
   10764:	e1a00003 	mov	r0, r3
   10768:	ebfffe96 	bl	101c8 <hexstring>
   1076c:	e3a03101 	mov	r3, #1073741824	; 0x40000000
   10770:	e5933008 	ldr	r3, [r3, #8]
   10774:	e1a00003 	mov	r0, r3
   10778:	ebfffe92 	bl	101c8 <hexstring>
   1077c:	e3a03101 	mov	r3, #1073741824	; 0x40000000
   10780:	e593300c 	ldr	r3, [r3, #12]
   10784:	e1a00003 	mov	r0, r3
   10788:	ebfffe8e 	bl	101c8 <hexstring>
   1078c:	e3a03101 	mov	r3, #1073741824	; 0x40000000
   10790:	e5933010 	ldr	r3, [r3, #16]
   10794:	e1a00003 	mov	r0, r3
   10798:	ebfffe8a 	bl	101c8 <hexstring>
   1079c:	e3a03101 	mov	r3, #1073741824	; 0x40000000
   107a0:	e5933014 	ldr	r3, [r3, #20]
   107a4:	e1a00003 	mov	r0, r3
   107a8:	ebfffe86 	bl	101c8 <hexstring>
   107ac:	e3a00000 	mov	r0, #0
   107b0:	e3a01101 	mov	r1, #1073741824	; 0x40000000
   107b4:	e51b200c 	ldr	r2, [fp, #-12]
   107b8:	eb000116 	bl	10c18 <dma_transfer>
   107bc:	e24bd004 	sub	sp, fp, #4
   107c0:	e8bd8800 	pop	{fp, pc}
   107c4:	40011000 	andmi	r1, r1, r0
   107c8:	03ee0100 	mvneq	r0, #0, 2
   107cc:	7e215040 	cdpvc	0, 2, cr5, cr1, cr0, {2}
   107d0:	00019dbc 			; <UNDEFINED> instruction: 0x00019dbc

000107d4 <uart_open>:
   107d4:	e92d4800 	push	{fp, lr}
   107d8:	e28db004 	add	fp, sp, #4
   107dc:	e24dd008 	sub	sp, sp, #8
   107e0:	e50b0008 	str	r0, [fp, #-8]
   107e4:	e50b100c 	str	r1, [fp, #-12]
   107e8:	e3a0001d 	mov	r0, #29
   107ec:	eb000240 	bl	110f4 <EnableInterrupt>
   107f0:	e59f0024 	ldr	r0, [pc, #36]	; 1081c <uart_open+0x48>
   107f4:	e3a01001 	mov	r1, #1
   107f8:	ebfffe01 	bl	10004 <PUT32>
   107fc:	e59f001c 	ldr	r0, [pc, #28]	; 10820 <uart_open+0x4c>
   10800:	eb000368 	bl	115a8 <fifoEmpty>
   10804:	e59f0018 	ldr	r0, [pc, #24]	; 10824 <uart_open+0x50>
   10808:	eb000366 	bl	115a8 <fifoEmpty>
   1080c:	e3a03000 	mov	r3, #0
   10810:	e1a00003 	mov	r0, r3
   10814:	e24bd004 	sub	sp, fp, #4
   10818:	e8bd8800 	pop	{fp, pc}
   1081c:	20215004 	eorcs	r5, r1, r4
   10820:	00019ff0 	strdeq	r9, [r1], -r0
   10824:	0001a000 	andeq	sl, r1, r0

00010828 <uart_close>:
   10828:	e92d4800 	push	{fp, lr}
   1082c:	e28db004 	add	fp, sp, #4
   10830:	e3a0001d 	mov	r0, #29
   10834:	eb000255 	bl	11190 <DisableInterrupt>
   10838:	e59f0020 	ldr	r0, [pc, #32]	; 10860 <uart_close+0x38>
   1083c:	e3a01000 	mov	r1, #0
   10840:	ebfffdef 	bl	10004 <PUT32>
   10844:	e59f0018 	ldr	r0, [pc, #24]	; 10864 <uart_close+0x3c>
   10848:	eb000356 	bl	115a8 <fifoEmpty>
   1084c:	e59f0014 	ldr	r0, [pc, #20]	; 10868 <uart_close+0x40>
   10850:	eb000354 	bl	115a8 <fifoEmpty>
   10854:	e3a03000 	mov	r3, #0
   10858:	e1a00003 	mov	r0, r3
   1085c:	e8bd8800 	pop	{fp, pc}
   10860:	20215004 	eorcs	r5, r1, r4
   10864:	00019ff0 	strdeq	r9, [r1], -r0
   10868:	0001a000 	andeq	sl, r1, r0

0001086c <uart_read>:
   1086c:	e92d4800 	push	{fp, lr}
   10870:	e28db004 	add	fp, sp, #4
   10874:	e24dd018 	sub	sp, sp, #24
   10878:	e50b0010 	str	r0, [fp, #-16]
   1087c:	e50b1014 	str	r1, [fp, #-20]
   10880:	e50b2018 	str	r2, [fp, #-24]
   10884:	e50b301c 	str	r3, [fp, #-28]
   10888:	e3a0001d 	mov	r0, #29
   1088c:	eb00023f 	bl	11190 <DisableInterrupt>
   10890:	e59f0024 	ldr	r0, [pc, #36]	; 108bc <uart_read+0x50>
   10894:	e51b1010 	ldr	r1, [fp, #-16]
   10898:	e51b2014 	ldr	r2, [fp, #-20]
   1089c:	eb000281 	bl	112a8 <fifoGet>
   108a0:	e50b0008 	str	r0, [fp, #-8]
   108a4:	e3a0001d 	mov	r0, #29
   108a8:	eb000211 	bl	110f4 <EnableInterrupt>
   108ac:	e51b3008 	ldr	r3, [fp, #-8]
   108b0:	e1a00003 	mov	r0, r3
   108b4:	e24bd004 	sub	sp, fp, #4
   108b8:	e8bd8800 	pop	{fp, pc}
   108bc:	00019ff0 	strdeq	r9, [r1], -r0

000108c0 <uartRecv>:
   108c0:	e92d4800 	push	{fp, lr}
   108c4:	e28db004 	add	fp, sp, #4
   108c8:	e24dd018 	sub	sp, sp, #24
   108cc:	e50b0010 	str	r0, [fp, #-16]
   108d0:	e50b1014 	str	r1, [fp, #-20]
   108d4:	e50b2018 	str	r2, [fp, #-24]
   108d8:	e50b301c 	str	r3, [fp, #-28]
   108dc:	e3a0001d 	mov	r0, #29
   108e0:	eb00022a 	bl	11190 <DisableInterrupt>
   108e4:	e59f0024 	ldr	r0, [pc, #36]	; 10910 <uartRecv+0x50>
   108e8:	e51b1014 	ldr	r1, [fp, #-20]
   108ec:	e51b2018 	ldr	r2, [fp, #-24]
   108f0:	eb00026c 	bl	112a8 <fifoGet>
   108f4:	e50b0008 	str	r0, [fp, #-8]
   108f8:	e3a0001d 	mov	r0, #29
   108fc:	eb0001fc 	bl	110f4 <EnableInterrupt>
   10900:	e51b3008 	ldr	r3, [fp, #-8]
   10904:	e1a00003 	mov	r0, r3
   10908:	e24bd004 	sub	sp, fp, #4
   1090c:	e8bd8800 	pop	{fp, pc}
   10910:	00019ff0 	strdeq	r9, [r1], -r0

00010914 <uart_write>:
   10914:	e92d4800 	push	{fp, lr}
   10918:	e28db004 	add	fp, sp, #4
   1091c:	e24dd020 	sub	sp, sp, #32
   10920:	e50b0018 	str	r0, [fp, #-24]
   10924:	e50b101c 	str	r1, [fp, #-28]
   10928:	e50b2020 	str	r2, [fp, #-32]
   1092c:	e50b3024 	str	r3, [fp, #-36]	; 0x24
   10930:	e3a03000 	mov	r3, #0
   10934:	e50b300c 	str	r3, [fp, #-12]
   10938:	e3a03000 	mov	r3, #0
   1093c:	e50b3008 	str	r3, [fp, #-8]
   10940:	e3a03000 	mov	r3, #0
   10944:	e54b300d 	strb	r3, [fp, #-13]
   10948:	e59f30e0 	ldr	r3, [pc, #224]	; 10a30 <uart_write+0x11c>
   1094c:	e5933000 	ldr	r3, [r3]
   10950:	e3530001 	cmp	r3, #1
   10954:	1a000007 	bne	10978 <uart_write+0x64>
   10958:	e59f00d4 	ldr	r0, [pc, #212]	; 10a34 <uart_write+0x120>
   1095c:	e51b1018 	ldr	r1, [fp, #-24]
   10960:	e51b201c 	ldr	r2, [fp, #-28]
   10964:	eb0002aa 	bl	11414 <fifoPut>
   10968:	e50b000c 	str	r0, [fp, #-12]
   1096c:	e51b300c 	ldr	r3, [fp, #-12]
   10970:	e50b3008 	str	r3, [fp, #-8]
   10974:	ea000029 	b	10a20 <uart_write+0x10c>
   10978:	e59f30b0 	ldr	r3, [pc, #176]	; 10a30 <uart_write+0x11c>
   1097c:	e5933000 	ldr	r3, [r3]
   10980:	e3530000 	cmp	r3, #0
   10984:	1a000024 	bne	10a1c <uart_write+0x108>
   10988:	e59f00a4 	ldr	r0, [pc, #164]	; 10a34 <uart_write+0x120>
   1098c:	e51b1018 	ldr	r1, [fp, #-24]
   10990:	e51b201c 	ldr	r2, [fp, #-28]
   10994:	eb00029e 	bl	11414 <fifoPut>
   10998:	e50b000c 	str	r0, [fp, #-12]
   1099c:	e51b300c 	ldr	r3, [fp, #-12]
   109a0:	e3530000 	cmp	r3, #0
   109a4:	1a000002 	bne	109b4 <uart_write+0xa0>
   109a8:	e3a03000 	mov	r3, #0
   109ac:	e50b3008 	str	r3, [fp, #-8]
   109b0:	ea00001a 	b	10a20 <uart_write+0x10c>
   109b4:	e59f3074 	ldr	r3, [pc, #116]	; 10a30 <uart_write+0x11c>
   109b8:	e3a02001 	mov	r2, #1
   109bc:	e5832000 	str	r2, [r3]
   109c0:	e24b300d 	sub	r3, fp, #13
   109c4:	e59f0068 	ldr	r0, [pc, #104]	; 10a34 <uart_write+0x120>
   109c8:	e1a01003 	mov	r1, r3
   109cc:	e3a02001 	mov	r2, #1
   109d0:	eb000234 	bl	112a8 <fifoGet>
   109d4:	e59f005c 	ldr	r0, [pc, #92]	; 10a38 <uart_write+0x124>
   109d8:	ebfffd8b 	bl	1000c <GET32>
   109dc:	e1a03000 	mov	r3, r0
   109e0:	e2033020 	and	r3, r3, #32
   109e4:	e3530000 	cmp	r3, #0
   109e8:	0a00000a 	beq	10a18 <uart_write+0x104>
   109ec:	e1a00000 	nop			; (mov r0, r0)
   109f0:	e55b300d 	ldrb	r3, [fp, #-13]
   109f4:	e59f0040 	ldr	r0, [pc, #64]	; 10a3c <uart_write+0x128>
   109f8:	e1a01003 	mov	r1, r3
   109fc:	ebfffd80 	bl	10004 <PUT32>
   10a00:	e59f0038 	ldr	r0, [pc, #56]	; 10a40 <uart_write+0x12c>
   10a04:	e3a01003 	mov	r1, #3
   10a08:	ebfffd7d 	bl	10004 <PUT32>
   10a0c:	e51b301c 	ldr	r3, [fp, #-28]
   10a10:	e50b3008 	str	r3, [fp, #-8]
   10a14:	ea000001 	b	10a20 <uart_write+0x10c>
   10a18:	eaffffed 	b	109d4 <uart_write+0xc0>
   10a1c:	eb0002ec 	bl	115d4 <showstop>
   10a20:	e51b3008 	ldr	r3, [fp, #-8]
   10a24:	e1a00003 	mov	r0, r3
   10a28:	e24bd004 	sub	sp, fp, #4
   10a2c:	e8bd8800 	pop	{fp, pc}
   10a30:	0001a014 	andeq	sl, r1, r4, lsl r0
   10a34:	0001a000 	andeq	sl, r1, r0
   10a38:	20215054 	eorcs	r5, r1, r4, asr r0
   10a3c:	20215040 	eorcs	r5, r1, r0, asr #32
   10a40:	20215044 	eorcs	r5, r1, r4, asr #32

00010a44 <uartTransmit>:
   10a44:	e92d4800 	push	{fp, lr}
   10a48:	e28db004 	add	fp, sp, #4
   10a4c:	e24dd020 	sub	sp, sp, #32
   10a50:	e50b0018 	str	r0, [fp, #-24]
   10a54:	e50b101c 	str	r1, [fp, #-28]
   10a58:	e50b2020 	str	r2, [fp, #-32]
   10a5c:	e50b3024 	str	r3, [fp, #-36]	; 0x24
   10a60:	e3a03000 	mov	r3, #0
   10a64:	e50b300c 	str	r3, [fp, #-12]
   10a68:	e3a03000 	mov	r3, #0
   10a6c:	e50b3008 	str	r3, [fp, #-8]
   10a70:	e3a03000 	mov	r3, #0
   10a74:	e54b300d 	strb	r3, [fp, #-13]
   10a78:	e59f30e0 	ldr	r3, [pc, #224]	; 10b60 <uartTransmit+0x11c>
   10a7c:	e5933000 	ldr	r3, [r3]
   10a80:	e3530001 	cmp	r3, #1
   10a84:	1a000007 	bne	10aa8 <uartTransmit+0x64>
   10a88:	e59f00d4 	ldr	r0, [pc, #212]	; 10b64 <uartTransmit+0x120>
   10a8c:	e51b101c 	ldr	r1, [fp, #-28]
   10a90:	e51b2020 	ldr	r2, [fp, #-32]
   10a94:	eb00025e 	bl	11414 <fifoPut>
   10a98:	e50b000c 	str	r0, [fp, #-12]
   10a9c:	e51b300c 	ldr	r3, [fp, #-12]
   10aa0:	e50b3008 	str	r3, [fp, #-8]
   10aa4:	ea000029 	b	10b50 <uartTransmit+0x10c>
   10aa8:	e59f30b0 	ldr	r3, [pc, #176]	; 10b60 <uartTransmit+0x11c>
   10aac:	e5933000 	ldr	r3, [r3]
   10ab0:	e3530000 	cmp	r3, #0
   10ab4:	1a000024 	bne	10b4c <uartTransmit+0x108>
   10ab8:	e59f00a4 	ldr	r0, [pc, #164]	; 10b64 <uartTransmit+0x120>
   10abc:	e51b101c 	ldr	r1, [fp, #-28]
   10ac0:	e51b2020 	ldr	r2, [fp, #-32]
   10ac4:	eb000252 	bl	11414 <fifoPut>
   10ac8:	e50b000c 	str	r0, [fp, #-12]
   10acc:	e51b300c 	ldr	r3, [fp, #-12]
   10ad0:	e3530000 	cmp	r3, #0
   10ad4:	1a000002 	bne	10ae4 <uartTransmit+0xa0>
   10ad8:	e3a03000 	mov	r3, #0
   10adc:	e50b3008 	str	r3, [fp, #-8]
   10ae0:	ea00001a 	b	10b50 <uartTransmit+0x10c>
   10ae4:	e59f3074 	ldr	r3, [pc, #116]	; 10b60 <uartTransmit+0x11c>
   10ae8:	e3a02001 	mov	r2, #1
   10aec:	e5832000 	str	r2, [r3]
   10af0:	e24b300d 	sub	r3, fp, #13
   10af4:	e59f0068 	ldr	r0, [pc, #104]	; 10b64 <uartTransmit+0x120>
   10af8:	e1a01003 	mov	r1, r3
   10afc:	e3a02001 	mov	r2, #1
   10b00:	eb0001e8 	bl	112a8 <fifoGet>
   10b04:	e59f005c 	ldr	r0, [pc, #92]	; 10b68 <uartTransmit+0x124>
   10b08:	ebfffd3f 	bl	1000c <GET32>
   10b0c:	e1a03000 	mov	r3, r0
   10b10:	e2033020 	and	r3, r3, #32
   10b14:	e3530000 	cmp	r3, #0
   10b18:	0a00000a 	beq	10b48 <uartTransmit+0x104>
   10b1c:	e1a00000 	nop			; (mov r0, r0)
   10b20:	e55b300d 	ldrb	r3, [fp, #-13]
   10b24:	e59f0040 	ldr	r0, [pc, #64]	; 10b6c <uartTransmit+0x128>
   10b28:	e1a01003 	mov	r1, r3
   10b2c:	ebfffd34 	bl	10004 <PUT32>
   10b30:	e59f0038 	ldr	r0, [pc, #56]	; 10b70 <uartTransmit+0x12c>
   10b34:	e3a01003 	mov	r1, #3
   10b38:	ebfffd31 	bl	10004 <PUT32>
   10b3c:	e51b3020 	ldr	r3, [fp, #-32]
   10b40:	e50b3008 	str	r3, [fp, #-8]
   10b44:	ea000001 	b	10b50 <uartTransmit+0x10c>
   10b48:	eaffffed 	b	10b04 <uartTransmit+0xc0>
   10b4c:	eb0002a0 	bl	115d4 <showstop>
   10b50:	e51b3008 	ldr	r3, [fp, #-8]
   10b54:	e1a00003 	mov	r0, r3
   10b58:	e24bd004 	sub	sp, fp, #4
   10b5c:	e8bd8800 	pop	{fp, pc}
   10b60:	0001a014 	andeq	sl, r1, r4, lsl r0
   10b64:	0001a000 	andeq	sl, r1, r0
   10b68:	20215054 	eorcs	r5, r1, r4, asr r0
   10b6c:	20215040 	eorcs	r5, r1, r0, asr #32
   10b70:	20215044 	eorcs	r5, r1, r4, asr #32

00010b74 <tickISR>:
   10b74:	e92d4800 	push	{fp, lr}
   10b78:	e28db004 	add	fp, sp, #4
   10b7c:	eb00098d 	bl	131b8 <OSTimeTick>
   10b80:	e59f3008 	ldr	r3, [pc, #8]	; 10b90 <tickISR+0x1c>
   10b84:	e3a02000 	mov	r2, #0
   10b88:	e583200c 	str	r2, [r3, #12]
   10b8c:	e8bd8800 	pop	{fp, pc}
   10b90:	2000b400 	andcs	fp, r0, r0, lsl #8

00010b94 <timer_init>:
   10b94:	e92d4800 	push	{fp, lr}
   10b98:	e28db004 	add	fp, sp, #4
   10b9c:	e3a00040 	mov	r0, #64	; 0x40
   10ba0:	eb00017a 	bl	11190 <DisableInterrupt>
   10ba4:	e59f3058 	ldr	r3, [pc, #88]	; 10c04 <timer_init+0x70>
   10ba8:	e59f2058 	ldr	r2, [pc, #88]	; 10c08 <timer_init+0x74>
   10bac:	e5832200 	str	r2, [r3, #512]	; 0x200
   10bb0:	e59f3054 	ldr	r3, [pc, #84]	; 10c0c <timer_init+0x78>
   10bb4:	e3a0283e 	mov	r2, #4063232	; 0x3e0000
   10bb8:	e5832008 	str	r2, [r3, #8]
   10bbc:	e59f3048 	ldr	r3, [pc, #72]	; 10c0c <timer_init+0x78>
   10bc0:	e59f2048 	ldr	r2, [pc, #72]	; 10c10 <timer_init+0x7c>
   10bc4:	e5832000 	str	r2, [r3]
   10bc8:	e59f303c 	ldr	r3, [pc, #60]	; 10c0c <timer_init+0x78>
   10bcc:	e59f203c 	ldr	r2, [pc, #60]	; 10c10 <timer_init+0x7c>
   10bd0:	e5832018 	str	r2, [r3, #24]
   10bd4:	e59f3030 	ldr	r3, [pc, #48]	; 10c0c <timer_init+0x78>
   10bd8:	e3a020f9 	mov	r2, #249	; 0xf9
   10bdc:	e583201c 	str	r2, [r3, #28]
   10be0:	e59f3024 	ldr	r3, [pc, #36]	; 10c0c <timer_init+0x78>
   10be4:	e3a02000 	mov	r2, #0
   10be8:	e583200c 	str	r2, [r3, #12]
   10bec:	e59f3018 	ldr	r3, [pc, #24]	; 10c0c <timer_init+0x78>
   10bf0:	e59f201c 	ldr	r2, [pc, #28]	; 10c14 <timer_init+0x80>
   10bf4:	e5832008 	str	r2, [r3, #8]
   10bf8:	e3a00040 	mov	r0, #64	; 0x40
   10bfc:	eb00013c 	bl	110f4 <EnableInterrupt>
   10c00:	e8bd8800 	pop	{fp, pc}
   10c04:	0001ac3c 	andeq	sl, r1, ip, lsr ip
   10c08:	00010b74 	andeq	r0, r1, r4, ror fp
   10c0c:	2000b400 	andcs	fp, r0, r0, lsl #8
   10c10:	0000270f 	andeq	r2, r0, pc, lsl #14
   10c14:	003e00a2 	eorseq	r0, lr, r2, lsr #1

00010c18 <dma_transfer>:
   10c18:	e92d4800 	push	{fp, lr}
   10c1c:	e28db004 	add	fp, sp, #4
   10c20:	e24dd078 	sub	sp, sp, #120	; 0x78
   10c24:	e50b0070 	str	r0, [fp, #-112]	; 0x70
   10c28:	e50b1074 	str	r1, [fp, #-116]	; 0x74
   10c2c:	e50b2078 	str	r2, [fp, #-120]	; 0x78
   10c30:	eb00004e 	bl	10d70 <dma_init>
   10c34:	e3a00005 	mov	r0, #5
   10c38:	eb0021b4 	bl	19310 <OSTimeDly>
   10c3c:	e51b3070 	ldr	r3, [fp, #-112]	; 0x70
   10c40:	e2833602 	add	r3, r3, #2097152	; 0x200000
   10c44:	e2833070 	add	r3, r3, #112	; 0x70
   10c48:	e1a03403 	lsl	r3, r3, #8
   10c4c:	e2832004 	add	r2, r3, #4
   10c50:	e51b3074 	ldr	r3, [fp, #-116]	; 0x74
   10c54:	e1a00002 	mov	r0, r2
   10c58:	e1a01003 	mov	r1, r3
   10c5c:	ebfffce8 	bl	10004 <PUT32>
   10c60:	e51b3070 	ldr	r3, [fp, #-112]	; 0x70
   10c64:	e2833602 	add	r3, r3, #2097152	; 0x200000
   10c68:	e2833070 	add	r3, r3, #112	; 0x70
   10c6c:	e1a03403 	lsl	r3, r3, #8
   10c70:	e1a00003 	mov	r0, r3
   10c74:	e51b1078 	ldr	r1, [fp, #-120]	; 0x78
   10c78:	ebfffce1 	bl	10004 <PUT32>
   10c7c:	e59f00c4 	ldr	r0, [pc, #196]	; 10d48 <dma_transfer+0x130>
   10c80:	ebfffce1 	bl	1000c <GET32>
   10c84:	e1a03000 	mov	r3, r0
   10c88:	e1a00003 	mov	r0, r3
   10c8c:	ebfffd4d 	bl	101c8 <hexstring>
   10c90:	e59f00b4 	ldr	r0, [pc, #180]	; 10d4c <dma_transfer+0x134>
   10c94:	ebfffcdc 	bl	1000c <GET32>
   10c98:	e1a03000 	mov	r3, r0
   10c9c:	e2033002 	and	r3, r3, #2
   10ca0:	e3530000 	cmp	r3, #0
   10ca4:	1a000005 	bne	10cc0 <dma_transfer+0xa8>
   10ca8:	e59f009c 	ldr	r0, [pc, #156]	; 10d4c <dma_transfer+0x134>
   10cac:	ebfffcd6 	bl	1000c <GET32>
   10cb0:	e1a03000 	mov	r3, r0
   10cb4:	e2033001 	and	r3, r3, #1
   10cb8:	e3530000 	cmp	r3, #0
   10cbc:	1a000018 	bne	10d24 <dma_transfer+0x10c>
   10cc0:	e59f0088 	ldr	r0, [pc, #136]	; 10d50 <dma_transfer+0x138>
   10cc4:	ebfffe71 	bl	10690 <uart_string>
   10cc8:	e59f007c 	ldr	r0, [pc, #124]	; 10d4c <dma_transfer+0x134>
   10ccc:	ebfffcce 	bl	1000c <GET32>
   10cd0:	e1a03000 	mov	r3, r0
   10cd4:	e3833002 	orr	r3, r3, #2
   10cd8:	e59f006c 	ldr	r0, [pc, #108]	; 10d4c <dma_transfer+0x134>
   10cdc:	e1a01003 	mov	r1, r3
   10ce0:	ebfffcc7 	bl	10004 <PUT32>
   10ce4:	e59f005c 	ldr	r0, [pc, #92]	; 10d48 <dma_transfer+0x130>
   10ce8:	ebfffcc7 	bl	1000c <GET32>
   10cec:	e1a03000 	mov	r3, r0
   10cf0:	e1a00003 	mov	r0, r3
   10cf4:	ebfffd33 	bl	101c8 <hexstring>
   10cf8:	e3a00a12 	mov	r0, #73728	; 0x12000
   10cfc:	ebfffcc2 	bl	1000c <GET32>
   10d00:	e1a03000 	mov	r3, r0
   10d04:	e1a00003 	mov	r0, r3
   10d08:	ebfffd2e 	bl	101c8 <hexstring>
   10d0c:	e59f0038 	ldr	r0, [pc, #56]	; 10d4c <dma_transfer+0x134>
   10d10:	ebfffcbd 	bl	1000c <GET32>
   10d14:	e1a03000 	mov	r3, r0
   10d18:	e1a00003 	mov	r0, r3
   10d1c:	ebfffd29 	bl	101c8 <hexstring>
   10d20:	ea000006 	b	10d40 <dma_transfer+0x128>
   10d24:	e3a00032 	mov	r0, #50	; 0x32
   10d28:	eb002178 	bl	19310 <OSTimeDly>
   10d2c:	e59f0018 	ldr	r0, [pc, #24]	; 10d4c <dma_transfer+0x134>
   10d30:	ebfffcb5 	bl	1000c <GET32>
   10d34:	e59f000c 	ldr	r0, [pc, #12]	; 10d48 <dma_transfer+0x130>
   10d38:	ebfffcb3 	bl	1000c <GET32>
   10d3c:	eaffffd3 	b	10c90 <dma_transfer+0x78>
   10d40:	e24bd004 	sub	sp, fp, #4
   10d44:	e8bd8800 	pop	{fp, pc}
   10d48:	20007014 	andcs	r7, r0, r4, lsl r0
   10d4c:	20007000 	andcs	r7, r0, r0
   10d50:	00019dd4 	ldrdeq	r9, [r1], -r4

00010d54 <dma_isr>:
   10d54:	e92d4800 	push	{fp, lr}
   10d58:	e28db004 	add	fp, sp, #4
   10d5c:	e59f0008 	ldr	r0, [pc, #8]	; 10d6c <dma_isr+0x18>
   10d60:	e3a0100c 	mov	r1, #12
   10d64:	ebfffca6 	bl	10004 <PUT32>
   10d68:	e8bd8800 	pop	{fp, pc}
   10d6c:	20007000 	andcs	r7, r0, r0

00010d70 <dma_init>:
   10d70:	e92d4800 	push	{fp, lr}
   10d74:	e28db004 	add	fp, sp, #4
   10d78:	e59f0008 	ldr	r0, [pc, #8]	; 10d88 <dma_init+0x18>
   10d7c:	e3a01001 	mov	r1, #1
   10d80:	ebfffc9f 	bl	10004 <PUT32>
   10d84:	e8bd8800 	pop	{fp, pc}
   10d88:	20007ff0 	strdcs	r7, [r0], -r0

00010d8c <irqEnable>:
   10d8c:	e52db004 	push	{fp}		; (str fp, [sp, #-4]!)
   10d90:	e28db000 	add	fp, sp, #0
   10d94:	e10f0000 	mrs	r0, CPSR
   10d98:	e3c00080 	bic	r0, r0, #128	; 0x80
   10d9c:	e121f000 	msr	CPSR_c, r0
   10da0:	e24bd000 	sub	sp, fp, #0
   10da4:	e49db004 	pop	{fp}		; (ldr fp, [sp], #4)
   10da8:	e12fff1e 	bx	lr

00010dac <irqDisable>:
   10dac:	e52db004 	push	{fp}		; (str fp, [sp, #-4]!)
   10db0:	e28db000 	add	fp, sp, #0
   10db4:	e10f0000 	mrs	r0, CPSR
   10db8:	e3800080 	orr	r0, r0, #128	; 0x80
   10dbc:	e121f000 	msr	CPSR_c, r0
   10dc0:	e24bd000 	sub	sp, fp, #0
   10dc4:	e49db004 	pop	{fp}		; (ldr fp, [sp], #4)
   10dc8:	e12fff1e 	bx	lr

00010dcc <OS_CPU_IRQ_ISR_Handler>:
   10dcc:	e92d4830 	push	{r4, r5, fp, lr}
   10dd0:	e28db00c 	add	fp, sp, #12
   10dd4:	e24dd010 	sub	sp, sp, #16
   10dd8:	eb0006f3 	bl	129ac <OS_CPU_SR_Save>
   10ddc:	e1a03000 	mov	r3, r0
   10de0:	e50b3010 	str	r3, [fp, #-16]
   10de4:	eb0007f2 	bl	12db4 <OSIntEnter>
   10de8:	eb0006ef 	bl	129ac <OS_CPU_SR_Save>
   10dec:	e1a03000 	mov	r3, r0
   10df0:	e50b3010 	str	r3, [fp, #-16]
   10df4:	e59f31bc 	ldr	r3, [pc, #444]	; 10fb8 <OS_CPU_IRQ_ISR_Handler+0x1ec>
   10df8:	e5932000 	ldr	r2, [r3]
   10dfc:	e59f31b8 	ldr	r3, [pc, #440]	; 10fbc <OS_CPU_IRQ_ISR_Handler+0x1f0>
   10e00:	e5832000 	str	r2, [r3]
   10e04:	e59f31b0 	ldr	r3, [pc, #432]	; 10fbc <OS_CPU_IRQ_ISR_Handler+0x1f0>
   10e08:	e5933000 	ldr	r3, [r3]
   10e0c:	e2032c03 	and	r2, r3, #768	; 0x300
   10e10:	e59f31a8 	ldr	r3, [pc, #424]	; 10fc0 <OS_CPU_IRQ_ISR_Handler+0x1f4>
   10e14:	e5832000 	str	r2, [r3]
   10e18:	e59f319c 	ldr	r3, [pc, #412]	; 10fbc <OS_CPU_IRQ_ISR_Handler+0x1f0>
   10e1c:	e5932000 	ldr	r2, [r3]
   10e20:	e59f319c 	ldr	r3, [pc, #412]	; 10fc4 <OS_CPU_IRQ_ISR_Handler+0x1f8>
   10e24:	e0023003 	and	r3, r2, r3
   10e28:	e3530000 	cmp	r3, #0
   10e2c:	0a000003 	beq	10e40 <OS_CPU_IRQ_ISR_Handler+0x74>
   10e30:	e59f3184 	ldr	r3, [pc, #388]	; 10fbc <OS_CPU_IRQ_ISR_Handler+0x1f0>
   10e34:	e5934000 	ldr	r4, [r3]
   10e38:	e3a0505f 	mov	r5, #95	; 0x5f
   10e3c:	ea000034 	b	10f14 <OS_CPU_IRQ_ISR_Handler+0x148>
   10e40:	e59f3178 	ldr	r3, [pc, #376]	; 10fc0 <OS_CPU_IRQ_ISR_Handler+0x1f4>
   10e44:	e5933000 	ldr	r3, [r3]
   10e48:	e2033c01 	and	r3, r3, #256	; 0x100
   10e4c:	e3530000 	cmp	r3, #0
   10e50:	0a000005 	beq	10e6c <OS_CPU_IRQ_ISR_Handler+0xa0>
   10e54:	e59f315c 	ldr	r3, [pc, #348]	; 10fb8 <OS_CPU_IRQ_ISR_Handler+0x1ec>
   10e58:	e5934004 	ldr	r4, [r3, #4]
   10e5c:	e3a0501f 	mov	r5, #31
   10e60:	e3540000 	cmp	r4, #0
   10e64:	0a000000 	beq	10e6c <OS_CPU_IRQ_ISR_Handler+0xa0>
   10e68:	ea000029 	b	10f14 <OS_CPU_IRQ_ISR_Handler+0x148>
   10e6c:	e59f314c 	ldr	r3, [pc, #332]	; 10fc0 <OS_CPU_IRQ_ISR_Handler+0x1f4>
   10e70:	e5933000 	ldr	r3, [r3]
   10e74:	e2033c02 	and	r3, r3, #512	; 0x200
   10e78:	e3530000 	cmp	r3, #0
   10e7c:	0a000005 	beq	10e98 <OS_CPU_IRQ_ISR_Handler+0xcc>
   10e80:	e59f3130 	ldr	r3, [pc, #304]	; 10fb8 <OS_CPU_IRQ_ISR_Handler+0x1ec>
   10e84:	e5934008 	ldr	r4, [r3, #8]
   10e88:	e3a0503f 	mov	r5, #63	; 0x3f
   10e8c:	e3540000 	cmp	r4, #0
   10e90:	0a000000 	beq	10e98 <OS_CPU_IRQ_ISR_Handler+0xcc>
   10e94:	ea00001e 	b	10f14 <OS_CPU_IRQ_ISR_Handler+0x148>
   10e98:	e59f311c 	ldr	r3, [pc, #284]	; 10fbc <OS_CPU_IRQ_ISR_Handler+0x1f0>
   10e9c:	e5933000 	ldr	r3, [r3]
   10ea0:	e3c334ff 	bic	r3, r3, #-16777216	; 0xff000000
   10ea4:	e3c3360a 	bic	r3, r3, #10485760	; 0xa00000
   10ea8:	e3530000 	cmp	r3, #0
   10eac:	0a000005 	beq	10ec8 <OS_CPU_IRQ_ISR_Handler+0xfc>
   10eb0:	e3a00000 	mov	r0, #0
   10eb4:	e59f110c 	ldr	r1, [pc, #268]	; 10fc8 <OS_CPU_IRQ_ISR_Handler+0x1fc>
   10eb8:	e3a0200a 	mov	r2, #10
   10ebc:	e3a03000 	mov	r3, #0
   10ec0:	ebfffedf 	bl	10a44 <uartTransmit>
   10ec4:	ea000010 	b	10f0c <OS_CPU_IRQ_ISR_Handler+0x140>
   10ec8:	e59f30ec 	ldr	r3, [pc, #236]	; 10fbc <OS_CPU_IRQ_ISR_Handler+0x1f0>
   10ecc:	e5932000 	ldr	r2, [r3]
   10ed0:	e59f30f4 	ldr	r3, [pc, #244]	; 10fcc <OS_CPU_IRQ_ISR_Handler+0x200>
   10ed4:	e0023003 	and	r3, r2, r3
   10ed8:	e3530000 	cmp	r3, #0
   10edc:	0a000005 	beq	10ef8 <OS_CPU_IRQ_ISR_Handler+0x12c>
   10ee0:	e3a00000 	mov	r0, #0
   10ee4:	e59f10e4 	ldr	r1, [pc, #228]	; 10fd0 <OS_CPU_IRQ_ISR_Handler+0x204>
   10ee8:	e3a0200d 	mov	r2, #13
   10eec:	e3a03000 	mov	r3, #0
   10ef0:	ebfffed3 	bl	10a44 <uartTransmit>
   10ef4:	ea000004 	b	10f0c <OS_CPU_IRQ_ISR_Handler+0x140>
   10ef8:	e3a00000 	mov	r0, #0
   10efc:	e59f10d0 	ldr	r1, [pc, #208]	; 10fd4 <OS_CPU_IRQ_ISR_Handler+0x208>
   10f00:	e3a0200c 	mov	r2, #12
   10f04:	e3a03000 	mov	r3, #0
   10f08:	ebfffecd 	bl	10a44 <uartTransmit>
   10f0c:	eb0007bd 	bl	12e08 <OSIntExit>
   10f10:	ea000026 	b	10fb0 <OS_CPU_IRQ_ISR_Handler+0x1e4>
   10f14:	e2442001 	sub	r2, r4, #1
   10f18:	e59f30a0 	ldr	r3, [pc, #160]	; 10fc0 <OS_CPU_IRQ_ISR_Handler+0x1f4>
   10f1c:	e5832000 	str	r2, [r3]
   10f20:	e59f3098 	ldr	r3, [pc, #152]	; 10fc0 <OS_CPU_IRQ_ISR_Handler+0x1f4>
   10f24:	e5933000 	ldr	r3, [r3]
   10f28:	e0244003 	eor	r4, r4, r3
   10f2c:	e50b4014 	str	r4, [fp, #-20]
   10f30:	e51b3014 	ldr	r3, [fp, #-20]
   10f34:	e16f3f13 	clz	r3, r3
   10f38:	e50b3018 	str	r3, [fp, #-24]
   10f3c:	e51b3018 	ldr	r3, [fp, #-24]
   10f40:	e50b301c 	str	r3, [fp, #-28]
   10f44:	e51b301c 	ldr	r3, [fp, #-28]
   10f48:	e0632005 	rsb	r2, r3, r5
   10f4c:	e59f3084 	ldr	r3, [pc, #132]	; 10fd8 <OS_CPU_IRQ_ISR_Handler+0x20c>
   10f50:	e7933182 	ldr	r3, [r3, r2, lsl #3]
   10f54:	e3530000 	cmp	r3, #0
   10f58:	0a00000e 	beq	10f98 <OS_CPU_IRQ_ISR_Handler+0x1cc>
   10f5c:	e51b301c 	ldr	r3, [fp, #-28]
   10f60:	e0632005 	rsb	r2, r3, r5
   10f64:	e59f306c 	ldr	r3, [pc, #108]	; 10fd8 <OS_CPU_IRQ_ISR_Handler+0x20c>
   10f68:	e7933182 	ldr	r3, [r3, r2, lsl #3]
   10f6c:	e1a01005 	mov	r1, r5
   10f70:	e59fc060 	ldr	ip, [pc, #96]	; 10fd8 <OS_CPU_IRQ_ISR_Handler+0x20c>
   10f74:	e3a02004 	mov	r2, #4
   10f78:	e1a00185 	lsl	r0, r5, #3
   10f7c:	e08c0000 	add	r0, ip, r0
   10f80:	e0802002 	add	r2, r0, r2
   10f84:	e5922000 	ldr	r2, [r2]
   10f88:	e1a00001 	mov	r0, r1
   10f8c:	e1a01002 	mov	r1, r2
   10f90:	e12fff33 	blx	r3
   10f94:	ea000004 	b	10fac <OS_CPU_IRQ_ISR_Handler+0x1e0>
   10f98:	e3a00000 	mov	r0, #0
   10f9c:	e59f1038 	ldr	r1, [pc, #56]	; 10fdc <OS_CPU_IRQ_ISR_Handler+0x210>
   10fa0:	e3a02013 	mov	r2, #19
   10fa4:	e3a03000 	mov	r3, #0
   10fa8:	ebfffea5 	bl	10a44 <uartTransmit>
   10fac:	eb000795 	bl	12e08 <OSIntExit>
   10fb0:	e24bd00c 	sub	sp, fp, #12
   10fb4:	e8bd8830 	pop	{r4, r5, fp, pc}
   10fb8:	2000b200 	andcs	fp, r0, r0, lsl #4
   10fbc:	0001a834 	andeq	sl, r1, r4, lsr r8
   10fc0:	0001a838 	andeq	sl, r1, r8, lsr r8
   10fc4:	00000cff 	strdeq	r0, [r0], -pc	; <UNPREDICTABLE>
   10fc8:	00019de8 	andeq	r9, r1, r8, ror #27
   10fcc:	ffa00000 			; <UNDEFINED> instruction: 0xffa00000
   10fd0:	00019df4 	strdeq	r9, [r1], -r4
   10fd4:	00019e04 	andeq	r9, r1, r4, lsl #28
   10fd8:	0001ac3c 	andeq	sl, r1, ip, lsr ip
   10fdc:	00019e10 	andeq	r9, r1, r0, lsl lr

00010fe0 <stubHandler>:
   10fe0:	e92d4800 	push	{fp, lr}
   10fe4:	e28db004 	add	fp, sp, #4
   10fe8:	e24dd008 	sub	sp, sp, #8
   10fec:	e50b0008 	str	r0, [fp, #-8]
   10ff0:	e50b100c 	str	r1, [fp, #-12]
   10ff4:	e59f0008 	ldr	r0, [pc, #8]	; 11004 <stubHandler+0x24>
   10ff8:	ebfffda4 	bl	10690 <uart_string>
   10ffc:	e24bd004 	sub	sp, fp, #4
   11000:	e8bd8800 	pop	{fp, pc}
   11004:	00019e24 	andeq	r9, r1, r4, lsr #28

00011008 <InitInterruptController>:
   11008:	e52db004 	push	{fp}		; (str fp, [sp, #-4]!)
   1100c:	e28db000 	add	fp, sp, #0
   11010:	e24dd00c 	sub	sp, sp, #12
   11014:	e3a03000 	mov	r3, #0
   11018:	e50b3008 	str	r3, [fp, #-8]
   1101c:	ea00000e 	b	1105c <InitInterruptController+0x54>
   11020:	e59f3054 	ldr	r3, [pc, #84]	; 1107c <InitInterruptController+0x74>
   11024:	e51b2008 	ldr	r2, [fp, #-8]
   11028:	e59f1050 	ldr	r1, [pc, #80]	; 11080 <InitInterruptController+0x78>
   1102c:	e7831182 	str	r1, [r3, r2, lsl #3]
   11030:	e59f1044 	ldr	r1, [pc, #68]	; 1107c <InitInterruptController+0x74>
   11034:	e51b2008 	ldr	r2, [fp, #-8]
   11038:	e3a03004 	mov	r3, #4
   1103c:	e1a02182 	lsl	r2, r2, #3
   11040:	e0812002 	add	r2, r1, r2
   11044:	e0823003 	add	r3, r2, r3
   11048:	e3a02000 	mov	r2, #0
   1104c:	e5832000 	str	r2, [r3]
   11050:	e51b3008 	ldr	r3, [fp, #-8]
   11054:	e2833001 	add	r3, r3, #1
   11058:	e50b3008 	str	r3, [fp, #-8]
   1105c:	e51b3008 	ldr	r3, [fp, #-8]
   11060:	e3530047 	cmp	r3, #71	; 0x47
   11064:	daffffed 	ble	11020 <InitInterruptController+0x18>
   11068:	e3a03000 	mov	r3, #0
   1106c:	e1a00003 	mov	r0, r3
   11070:	e24bd000 	sub	sp, fp, #0
   11074:	e49db004 	pop	{fp}		; (ldr fp, [sp], #4)
   11078:	e12fff1e 	bx	lr
   1107c:	0001ac3c 	andeq	sl, r1, ip, lsr ip
   11080:	00010fe0 	andeq	r0, r1, r0, ror #31

00011084 <RegisterInterrupt>:
   11084:	e92d4800 	push	{fp, lr}
   11088:	e28db004 	add	fp, sp, #4
   1108c:	e24dd010 	sub	sp, sp, #16
   11090:	e50b0008 	str	r0, [fp, #-8]
   11094:	e50b100c 	str	r1, [fp, #-12]
   11098:	e50b2010 	str	r2, [fp, #-16]
   1109c:	ebffff42 	bl	10dac <irqDisable>
   110a0:	e59f0044 	ldr	r0, [pc, #68]	; 110ec <RegisterInterrupt+0x68>
   110a4:	ebfffd79 	bl	10690 <uart_string>
   110a8:	e59f3040 	ldr	r3, [pc, #64]	; 110f0 <RegisterInterrupt+0x6c>
   110ac:	e51b2008 	ldr	r2, [fp, #-8]
   110b0:	e51b100c 	ldr	r1, [fp, #-12]
   110b4:	e7831182 	str	r1, [r3, r2, lsl #3]
   110b8:	e59f1030 	ldr	r1, [pc, #48]	; 110f0 <RegisterInterrupt+0x6c>
   110bc:	e51b2008 	ldr	r2, [fp, #-8]
   110c0:	e3a03004 	mov	r3, #4
   110c4:	e1a02182 	lsl	r2, r2, #3
   110c8:	e0812002 	add	r2, r1, r2
   110cc:	e0823003 	add	r3, r2, r3
   110d0:	e51b2010 	ldr	r2, [fp, #-16]
   110d4:	e5832000 	str	r2, [r3]
   110d8:	ebffff2b 	bl	10d8c <irqEnable>
   110dc:	e3a03000 	mov	r3, #0
   110e0:	e1a00003 	mov	r0, r3
   110e4:	e24bd004 	sub	sp, fp, #4
   110e8:	e8bd8800 	pop	{fp, pc}
   110ec:	00019e30 	andeq	r9, r1, r0, lsr lr
   110f0:	0001ac3c 	andeq	sl, r1, ip, lsr ip

000110f4 <EnableInterrupt>:
   110f4:	e52db004 	push	{fp}		; (str fp, [sp, #-4]!)
   110f8:	e28db000 	add	fp, sp, #0
   110fc:	e24dd014 	sub	sp, sp, #20
   11100:	e50b0010 	str	r0, [fp, #-16]
   11104:	e59f3080 	ldr	r3, [pc, #128]	; 1118c <EnableInterrupt+0x98>
   11108:	e5933018 	ldr	r3, [r3, #24]
   1110c:	e50b3008 	str	r3, [fp, #-8]
   11110:	e51b3010 	ldr	r3, [fp, #-16]
   11114:	e353003f 	cmp	r3, #63	; 0x3f
   11118:	da000008 	ble	11140 <EnableInterrupt+0x4c>
   1111c:	e51b3010 	ldr	r3, [fp, #-16]
   11120:	e3530048 	cmp	r3, #72	; 0x48
   11124:	ca000005 	bgt	11140 <EnableInterrupt+0x4c>
   11128:	e59f305c 	ldr	r3, [pc, #92]	; 1118c <EnableInterrupt+0x98>
   1112c:	e51b2010 	ldr	r2, [fp, #-16]
   11130:	e2422040 	sub	r2, r2, #64	; 0x40
   11134:	e3a01001 	mov	r1, #1
   11138:	e1a02211 	lsl	r2, r1, r2
   1113c:	e5832018 	str	r2, [r3, #24]
   11140:	e51b3010 	ldr	r3, [fp, #-16]
   11144:	e3530000 	cmp	r3, #0
   11148:	ba000007 	blt	1116c <EnableInterrupt+0x78>
   1114c:	e51b3010 	ldr	r3, [fp, #-16]
   11150:	e353001f 	cmp	r3, #31
   11154:	ca000004 	bgt	1116c <EnableInterrupt+0x78>
   11158:	e59f302c 	ldr	r3, [pc, #44]	; 1118c <EnableInterrupt+0x98>
   1115c:	e3a01001 	mov	r1, #1
   11160:	e51b2010 	ldr	r2, [fp, #-16]
   11164:	e1a02211 	lsl	r2, r1, r2
   11168:	e5832010 	str	r2, [r3, #16]
   1116c:	e59f3018 	ldr	r3, [pc, #24]	; 1118c <EnableInterrupt+0x98>
   11170:	e5933018 	ldr	r3, [r3, #24]
   11174:	e50b3008 	str	r3, [fp, #-8]
   11178:	e3a03000 	mov	r3, #0
   1117c:	e1a00003 	mov	r0, r3
   11180:	e24bd000 	sub	sp, fp, #0
   11184:	e49db004 	pop	{fp}		; (ldr fp, [sp], #4)
   11188:	e12fff1e 	bx	lr
   1118c:	2000b200 	andcs	fp, r0, r0, lsl #4

00011190 <DisableInterrupt>:
   11190:	e52db004 	push	{fp}		; (str fp, [sp, #-4]!)
   11194:	e28db000 	add	fp, sp, #0
   11198:	e24dd00c 	sub	sp, sp, #12
   1119c:	e50b0008 	str	r0, [fp, #-8]
   111a0:	e51b3008 	ldr	r3, [fp, #-8]
   111a4:	e353003f 	cmp	r3, #63	; 0x3f
   111a8:	da000008 	ble	111d0 <DisableInterrupt+0x40>
   111ac:	e51b3008 	ldr	r3, [fp, #-8]
   111b0:	e3530048 	cmp	r3, #72	; 0x48
   111b4:	ca000005 	bgt	111d0 <DisableInterrupt+0x40>
   111b8:	e59f3050 	ldr	r3, [pc, #80]	; 11210 <DisableInterrupt+0x80>
   111bc:	e51b2008 	ldr	r2, [fp, #-8]
   111c0:	e2422040 	sub	r2, r2, #64	; 0x40
   111c4:	e3a01001 	mov	r1, #1
   111c8:	e1a02211 	lsl	r2, r1, r2
   111cc:	e5832024 	str	r2, [r3, #36]	; 0x24
   111d0:	e51b3008 	ldr	r3, [fp, #-8]
   111d4:	e3530000 	cmp	r3, #0
   111d8:	ba000007 	blt	111fc <DisableInterrupt+0x6c>
   111dc:	e51b3008 	ldr	r3, [fp, #-8]
   111e0:	e353001f 	cmp	r3, #31
   111e4:	ca000004 	bgt	111fc <DisableInterrupt+0x6c>
   111e8:	e59f3020 	ldr	r3, [pc, #32]	; 11210 <DisableInterrupt+0x80>
   111ec:	e3a01001 	mov	r1, #1
   111f0:	e51b2008 	ldr	r2, [fp, #-8]
   111f4:	e1a02211 	lsl	r2, r1, r2
   111f8:	e583201c 	str	r2, [r3, #28]
   111fc:	e3a03000 	mov	r3, #0
   11200:	e1a00003 	mov	r0, r3
   11204:	e24bd000 	sub	sp, fp, #0
   11208:	e49db004 	pop	{fp}		; (ldr fp, [sp], #4)
   1120c:	e12fff1e 	bx	lr
   11210:	2000b200 	andcs	fp, r0, r0, lsl #4

00011214 <EnableInterrupts>:
   11214:	e92d4800 	push	{fp, lr}
   11218:	e28db004 	add	fp, sp, #4
   1121c:	ebfffeda 	bl	10d8c <irqEnable>
   11220:	e3a03000 	mov	r3, #0
   11224:	e1a00003 	mov	r0, r3
   11228:	e8bd8800 	pop	{fp, pc}

0001122c <DisableInterrupts>:
   1122c:	e92d4800 	push	{fp, lr}
   11230:	e28db004 	add	fp, sp, #4
   11234:	ebfffedc 	bl	10dac <irqDisable>
   11238:	e3a03000 	mov	r3, #0
   1123c:	e1a00003 	mov	r0, r3
   11240:	e8bd8800 	pop	{fp, pc}

00011244 <fifoCreate>:
   11244:	e92d4800 	push	{fp, lr}
   11248:	e28db004 	add	fp, sp, #4
   1124c:	e24dd010 	sub	sp, sp, #16
   11250:	e50b0008 	str	r0, [fp, #-8]
   11254:	e50b100c 	str	r1, [fp, #-12]
   11258:	e50b2010 	str	r2, [fp, #-16]
   1125c:	e51b000c 	ldr	r0, [fp, #-12]
   11260:	ebfffbd8 	bl	101c8 <hexstring>
   11264:	e51b3008 	ldr	r3, [fp, #-8]
   11268:	e51b200c 	ldr	r2, [fp, #-12]
   1126c:	e5832000 	str	r2, [r3]
   11270:	e51b3008 	ldr	r3, [fp, #-8]
   11274:	e3a02000 	mov	r2, #0
   11278:	e5832004 	str	r2, [r3, #4]
   1127c:	e51b3008 	ldr	r3, [fp, #-8]
   11280:	e3a02000 	mov	r2, #0
   11284:	e5832008 	str	r2, [r3, #8]
   11288:	e51b3010 	ldr	r3, [fp, #-16]
   1128c:	e2432001 	sub	r2, r3, #1
   11290:	e51b3008 	ldr	r3, [fp, #-8]
   11294:	e583200c 	str	r2, [r3, #12]
   11298:	e51b3008 	ldr	r3, [fp, #-8]
   1129c:	e1a00003 	mov	r0, r3
   112a0:	e24bd004 	sub	sp, fp, #4
   112a4:	e8bd8800 	pop	{fp, pc}

000112a8 <fifoGet>:
   112a8:	e92d4800 	push	{fp, lr}
   112ac:	e28db004 	add	fp, sp, #4
   112b0:	e24dd018 	sub	sp, sp, #24
   112b4:	e50b0010 	str	r0, [fp, #-16]
   112b8:	e50b1014 	str	r1, [fp, #-20]
   112bc:	e50b2018 	str	r2, [fp, #-24]
   112c0:	e51b3010 	ldr	r3, [fp, #-16]
   112c4:	e5932004 	ldr	r2, [r3, #4]
   112c8:	e51b3010 	ldr	r3, [fp, #-16]
   112cc:	e593300c 	ldr	r3, [r3, #12]
   112d0:	e0822003 	add	r2, r2, r3
   112d4:	e51b3010 	ldr	r3, [fp, #-16]
   112d8:	e5933008 	ldr	r3, [r3, #8]
   112dc:	e0633002 	rsb	r3, r3, r2
   112e0:	e2833001 	add	r3, r3, #1
   112e4:	e50b300c 	str	r3, [fp, #-12]
   112e8:	e51b3010 	ldr	r3, [fp, #-16]
   112ec:	e593300c 	ldr	r3, [r3, #12]
   112f0:	e2833001 	add	r3, r3, #1
   112f4:	e51b200c 	ldr	r2, [fp, #-12]
   112f8:	e1a00002 	mov	r0, r2
   112fc:	e1a01003 	mov	r1, r3
   11300:	eb00229a 	bl	19d70 <__aeabi_uidivmod>
   11304:	e1a03001 	mov	r3, r1
   11308:	e50b300c 	str	r3, [fp, #-12]
   1130c:	e51b200c 	ldr	r2, [fp, #-12]
   11310:	e51b3018 	ldr	r3, [fp, #-24]
   11314:	e1520003 	cmp	r2, r3
   11318:	3a000039 	bcc	11404 <fifoGet+0x15c>
   1131c:	e3a03000 	mov	r3, #0
   11320:	e50b3008 	str	r3, [fp, #-8]
   11324:	ea00001d 	b	113a0 <fifoGet+0xf8>
   11328:	e51b2014 	ldr	r2, [fp, #-20]
   1132c:	e51b3008 	ldr	r3, [fp, #-8]
   11330:	e0823003 	add	r3, r2, r3
   11334:	e51b2010 	ldr	r2, [fp, #-16]
   11338:	e5921000 	ldr	r1, [r2]
   1133c:	e51b2010 	ldr	r2, [fp, #-16]
   11340:	e5922008 	ldr	r2, [r2, #8]
   11344:	e0812002 	add	r2, r1, r2
   11348:	e5d22000 	ldrb	r2, [r2]
   1134c:	e5c32000 	strb	r2, [r3]
   11350:	e51b3010 	ldr	r3, [fp, #-16]
   11354:	e5933008 	ldr	r3, [r3, #8]
   11358:	e2832001 	add	r2, r3, #1
   1135c:	e51b3010 	ldr	r3, [fp, #-16]
   11360:	e5832008 	str	r2, [r3, #8]
   11364:	e51b3010 	ldr	r3, [fp, #-16]
   11368:	e5932008 	ldr	r2, [r3, #8]
   1136c:	e51b3010 	ldr	r3, [fp, #-16]
   11370:	e593300c 	ldr	r3, [r3, #12]
   11374:	e2833001 	add	r3, r3, #1
   11378:	e1a00002 	mov	r0, r2
   1137c:	e1a01003 	mov	r1, r3
   11380:	eb00227a 	bl	19d70 <__aeabi_uidivmod>
   11384:	e1a03001 	mov	r3, r1
   11388:	e1a02003 	mov	r2, r3
   1138c:	e51b3010 	ldr	r3, [fp, #-16]
   11390:	e5832008 	str	r2, [r3, #8]
   11394:	e51b3008 	ldr	r3, [fp, #-8]
   11398:	e2833001 	add	r3, r3, #1
   1139c:	e50b3008 	str	r3, [fp, #-8]
   113a0:	e51b2008 	ldr	r2, [fp, #-8]
   113a4:	e51b3018 	ldr	r3, [fp, #-24]
   113a8:	e1520003 	cmp	r2, r3
   113ac:	3affffdd 	bcc	11328 <fifoGet+0x80>
   113b0:	e51b3010 	ldr	r3, [fp, #-16]
   113b4:	e5932004 	ldr	r2, [r3, #4]
   113b8:	e51b3010 	ldr	r3, [fp, #-16]
   113bc:	e593300c 	ldr	r3, [r3, #12]
   113c0:	e0822003 	add	r2, r2, r3
   113c4:	e51b3010 	ldr	r3, [fp, #-16]
   113c8:	e5933008 	ldr	r3, [r3, #8]
   113cc:	e0633002 	rsb	r3, r3, r2
   113d0:	e2833001 	add	r3, r3, #1
   113d4:	e50b300c 	str	r3, [fp, #-12]
   113d8:	e51b3010 	ldr	r3, [fp, #-16]
   113dc:	e593300c 	ldr	r3, [r3, #12]
   113e0:	e2833001 	add	r3, r3, #1
   113e4:	e51b200c 	ldr	r2, [fp, #-12]
   113e8:	e1a00002 	mov	r0, r2
   113ec:	e1a01003 	mov	r1, r3
   113f0:	eb00225e 	bl	19d70 <__aeabi_uidivmod>
   113f4:	e1a03001 	mov	r3, r1
   113f8:	e50b300c 	str	r3, [fp, #-12]
   113fc:	e51b3018 	ldr	r3, [fp, #-24]
   11400:	ea000000 	b	11408 <fifoGet+0x160>
   11404:	e3a03000 	mov	r3, #0
   11408:	e1a00003 	mov	r0, r3
   1140c:	e24bd004 	sub	sp, fp, #4
   11410:	e8bd8800 	pop	{fp, pc}

00011414 <fifoPut>:
   11414:	e92d4800 	push	{fp, lr}
   11418:	e28db004 	add	fp, sp, #4
   1141c:	e24dd018 	sub	sp, sp, #24
   11420:	e50b0010 	str	r0, [fp, #-16]
   11424:	e50b1014 	str	r1, [fp, #-20]
   11428:	e50b2018 	str	r2, [fp, #-24]
   1142c:	e51b3010 	ldr	r3, [fp, #-16]
   11430:	e5932004 	ldr	r2, [r3, #4]
   11434:	e51b3010 	ldr	r3, [fp, #-16]
   11438:	e593300c 	ldr	r3, [r3, #12]
   1143c:	e0822003 	add	r2, r2, r3
   11440:	e51b3010 	ldr	r3, [fp, #-16]
   11444:	e5933008 	ldr	r3, [r3, #8]
   11448:	e0633002 	rsb	r3, r3, r2
   1144c:	e2833001 	add	r3, r3, #1
   11450:	e50b300c 	str	r3, [fp, #-12]
   11454:	e51b3010 	ldr	r3, [fp, #-16]
   11458:	e593300c 	ldr	r3, [r3, #12]
   1145c:	e2833001 	add	r3, r3, #1
   11460:	e51b200c 	ldr	r2, [fp, #-12]
   11464:	e1a00002 	mov	r0, r2
   11468:	e1a01003 	mov	r1, r3
   1146c:	eb00223f 	bl	19d70 <__aeabi_uidivmod>
   11470:	e1a03001 	mov	r3, r1
   11474:	e50b300c 	str	r3, [fp, #-12]
   11478:	e51b3010 	ldr	r3, [fp, #-16]
   1147c:	e593200c 	ldr	r2, [r3, #12]
   11480:	e51b300c 	ldr	r3, [fp, #-12]
   11484:	e0633002 	rsb	r3, r3, r2
   11488:	e50b300c 	str	r3, [fp, #-12]
   1148c:	e51b200c 	ldr	r2, [fp, #-12]
   11490:	e51b3018 	ldr	r3, [fp, #-24]
   11494:	e1520003 	cmp	r2, r3
   11498:	2a000001 	bcs	114a4 <fifoPut+0x90>
   1149c:	e3a03000 	mov	r3, #0
   114a0:	ea00003d 	b	1159c <fifoPut+0x188>
   114a4:	e3a03000 	mov	r3, #0
   114a8:	e50b3008 	str	r3, [fp, #-8]
   114ac:	ea00001d 	b	11528 <fifoPut+0x114>
   114b0:	e51b3010 	ldr	r3, [fp, #-16]
   114b4:	e5932000 	ldr	r2, [r3]
   114b8:	e51b3010 	ldr	r3, [fp, #-16]
   114bc:	e5933004 	ldr	r3, [r3, #4]
   114c0:	e0823003 	add	r3, r2, r3
   114c4:	e51b1014 	ldr	r1, [fp, #-20]
   114c8:	e51b2008 	ldr	r2, [fp, #-8]
   114cc:	e0812002 	add	r2, r1, r2
   114d0:	e5d22000 	ldrb	r2, [r2]
   114d4:	e5c32000 	strb	r2, [r3]
   114d8:	e51b3010 	ldr	r3, [fp, #-16]
   114dc:	e5933004 	ldr	r3, [r3, #4]
   114e0:	e2832001 	add	r2, r3, #1
   114e4:	e51b3010 	ldr	r3, [fp, #-16]
   114e8:	e5832004 	str	r2, [r3, #4]
   114ec:	e51b3010 	ldr	r3, [fp, #-16]
   114f0:	e5932004 	ldr	r2, [r3, #4]
   114f4:	e51b3010 	ldr	r3, [fp, #-16]
   114f8:	e593300c 	ldr	r3, [r3, #12]
   114fc:	e2833001 	add	r3, r3, #1
   11500:	e1a00002 	mov	r0, r2
   11504:	e1a01003 	mov	r1, r3
   11508:	eb002218 	bl	19d70 <__aeabi_uidivmod>
   1150c:	e1a03001 	mov	r3, r1
   11510:	e1a02003 	mov	r2, r3
   11514:	e51b3010 	ldr	r3, [fp, #-16]
   11518:	e5832004 	str	r2, [r3, #4]
   1151c:	e51b3008 	ldr	r3, [fp, #-8]
   11520:	e2833001 	add	r3, r3, #1
   11524:	e50b3008 	str	r3, [fp, #-8]
   11528:	e51b2008 	ldr	r2, [fp, #-8]
   1152c:	e51b3018 	ldr	r3, [fp, #-24]
   11530:	e1520003 	cmp	r2, r3
   11534:	3affffdd 	bcc	114b0 <fifoPut+0x9c>
   11538:	e51b3010 	ldr	r3, [fp, #-16]
   1153c:	e5932004 	ldr	r2, [r3, #4]
   11540:	e51b3010 	ldr	r3, [fp, #-16]
   11544:	e593300c 	ldr	r3, [r3, #12]
   11548:	e0822003 	add	r2, r2, r3
   1154c:	e51b3010 	ldr	r3, [fp, #-16]
   11550:	e5933008 	ldr	r3, [r3, #8]
   11554:	e0633002 	rsb	r3, r3, r2
   11558:	e2833001 	add	r3, r3, #1
   1155c:	e50b300c 	str	r3, [fp, #-12]
   11560:	e51b3010 	ldr	r3, [fp, #-16]
   11564:	e593300c 	ldr	r3, [r3, #12]
   11568:	e2833001 	add	r3, r3, #1
   1156c:	e51b200c 	ldr	r2, [fp, #-12]
   11570:	e1a00002 	mov	r0, r2
   11574:	e1a01003 	mov	r1, r3
   11578:	eb0021fc 	bl	19d70 <__aeabi_uidivmod>
   1157c:	e1a03001 	mov	r3, r1
   11580:	e50b300c 	str	r3, [fp, #-12]
   11584:	e51b3010 	ldr	r3, [fp, #-16]
   11588:	e593200c 	ldr	r2, [r3, #12]
   1158c:	e51b300c 	ldr	r3, [fp, #-12]
   11590:	e0633002 	rsb	r3, r3, r2
   11594:	e50b300c 	str	r3, [fp, #-12]
   11598:	e51b3018 	ldr	r3, [fp, #-24]
   1159c:	e1a00003 	mov	r0, r3
   115a0:	e24bd004 	sub	sp, fp, #4
   115a4:	e8bd8800 	pop	{fp, pc}

000115a8 <fifoEmpty>:
   115a8:	e52db004 	push	{fp}		; (str fp, [sp, #-4]!)
   115ac:	e28db000 	add	fp, sp, #0
   115b0:	e24dd00c 	sub	sp, sp, #12
   115b4:	e50b0008 	str	r0, [fp, #-8]
   115b8:	e51b3008 	ldr	r3, [fp, #-8]
   115bc:	e5932004 	ldr	r2, [r3, #4]
   115c0:	e51b3008 	ldr	r3, [fp, #-8]
   115c4:	e5832008 	str	r2, [r3, #8]
   115c8:	e24bd000 	sub	sp, fp, #0
   115cc:	e49db004 	pop	{fp}		; (ldr fp, [sp], #4)
   115d0:	e12fff1e 	bx	lr

000115d4 <showstop>:
   115d4:	e92d4800 	push	{fp, lr}
   115d8:	e28db004 	add	fp, sp, #4
   115dc:	e24dd008 	sub	sp, sp, #8
   115e0:	e50b0008 	str	r0, [fp, #-8]
   115e4:	ebffff10 	bl	1122c <DisableInterrupts>
   115e8:	e59f0004 	ldr	r0, [pc, #4]	; 115f4 <showstop+0x20>
   115ec:	ebfffc11 	bl	10638 <uart_string_showstop>
   115f0:	eafffffe 	b	115f0 <showstop+0x1c>
   115f4:	00019e40 	andeq	r9, r1, r0, asr #28

000115f8 <unused>:
   115f8:	e92d4800 	push	{fp, lr}
   115fc:	e28db004 	add	fp, sp, #4
   11600:	e59f0008 	ldr	r0, [pc, #8]	; 11610 <unused+0x18>
   11604:	ebfffc0b 	bl	10638 <uart_string_showstop>
   11608:	ebfffff1 	bl	115d4 <showstop>
   1160c:	eafffffe 	b	1160c <unused+0x14>
   11610:	00019e54 	andeq	r9, r1, r4, asr lr

00011614 <fiq>:
   11614:	e92d4800 	push	{fp, lr}
   11618:	e28db004 	add	fp, sp, #4
   1161c:	e59f0008 	ldr	r0, [pc, #8]	; 1162c <fiq+0x18>
   11620:	ebfffc04 	bl	10638 <uart_string_showstop>
   11624:	ebffffea 	bl	115d4 <showstop>
   11628:	eafffffe 	b	11628 <fiq+0x14>
   1162c:	00019e5c 	andeq	r9, r1, ip, asr lr

00011630 <undefined_instruction>:
   11630:	e92d4800 	push	{fp, lr}
   11634:	e28db004 	add	fp, sp, #4
   11638:	e59f0008 	ldr	r0, [pc, #8]	; 11648 <undefined_instruction+0x18>
   1163c:	ebfffbfd 	bl	10638 <uart_string_showstop>
   11640:	ebffffe3 	bl	115d4 <showstop>
   11644:	eafffffe 	b	11644 <undefined_instruction+0x14>
   11648:	00019e60 	andeq	r9, r1, r0, ror #28

0001164c <swi>:
   1164c:	e92d4800 	push	{fp, lr}
   11650:	e28db004 	add	fp, sp, #4
   11654:	e59f0008 	ldr	r0, [pc, #8]	; 11664 <swi+0x18>
   11658:	ebfffbf6 	bl	10638 <uart_string_showstop>
   1165c:	ebffffdc 	bl	115d4 <showstop>
   11660:	eafffffe 	b	11660 <swi+0x14>
   11664:	00019e78 	andeq	r9, r1, r8, ror lr

00011668 <prefetch_abort>:
   11668:	e92d4800 	push	{fp, lr}
   1166c:	e28db004 	add	fp, sp, #4
   11670:	e59f0008 	ldr	r0, [pc, #8]	; 11680 <prefetch_abort+0x18>
   11674:	ebfffbef 	bl	10638 <uart_string_showstop>
   11678:	ebffffd5 	bl	115d4 <showstop>
   1167c:	eafffffe 	b	1167c <prefetch_abort+0x14>
   11680:	00019e7c 	andeq	r9, r1, ip, ror lr

00011684 <data_abort>:
   11684:	e92d4800 	push	{fp, lr}
   11688:	e28db004 	add	fp, sp, #4
   1168c:	e59f0008 	ldr	r0, [pc, #8]	; 1169c <data_abort+0x18>
   11690:	ebfffbe8 	bl	10638 <uart_string_showstop>
   11694:	ebffffce 	bl	115d4 <showstop>
   11698:	eafffffe 	b	11698 <data_abort+0x14>
   1169c:	00019e8c 	andeq	r9, r1, ip, lsl #29

000116a0 <check>:
   116a0:	e92d4800 	push	{fp, lr}
   116a4:	e28db004 	add	fp, sp, #4
   116a8:	e24dd020 	sub	sp, sp, #32
   116ac:	e50b0018 	str	r0, [fp, #-24]
   116b0:	e50b101c 	str	r1, [fp, #-28]
   116b4:	e50b2020 	str	r2, [fp, #-32]
   116b8:	e51b3018 	ldr	r3, [fp, #-24]
   116bc:	e3530000 	cmp	r3, #0
   116c0:	0a000018 	beq	11728 <check+0x88>
   116c4:	e51b001c 	ldr	r0, [fp, #-28]
   116c8:	e51b1020 	ldr	r1, [fp, #-32]
   116cc:	eb000295 	bl	12128 <crc16_ccitt>
   116d0:	e1a03000 	mov	r3, r0
   116d4:	e14b30bc 	strh	r3, [fp, #-12]
   116d8:	e51b3020 	ldr	r3, [fp, #-32]
   116dc:	e51b201c 	ldr	r2, [fp, #-28]
   116e0:	e0823003 	add	r3, r2, r3
   116e4:	e5d33000 	ldrb	r3, [r3]
   116e8:	e1a03403 	lsl	r3, r3, #8
   116ec:	e6ff2073 	uxth	r2, r3
   116f0:	e51b3020 	ldr	r3, [fp, #-32]
   116f4:	e2833001 	add	r3, r3, #1
   116f8:	e51b101c 	ldr	r1, [fp, #-28]
   116fc:	e0813003 	add	r3, r1, r3
   11700:	e5d33000 	ldrb	r3, [r3]
   11704:	e0823003 	add	r3, r2, r3
   11708:	e14b30be 	strh	r3, [fp, #-14]
   1170c:	e15b20bc 	ldrh	r2, [fp, #-12]
   11710:	e15b30be 	ldrh	r3, [fp, #-14]
   11714:	e1520003 	cmp	r2, r3
   11718:	1a000001 	bne	11724 <check+0x84>
   1171c:	e3a03001 	mov	r3, #1
   11720:	ea00001d 	b	1179c <check+0xfc>
   11724:	ea00001b 	b	11798 <check+0xf8>
   11728:	e3a03000 	mov	r3, #0
   1172c:	e54b3009 	strb	r3, [fp, #-9]
   11730:	e3a03000 	mov	r3, #0
   11734:	e50b3008 	str	r3, [fp, #-8]
   11738:	ea000009 	b	11764 <check+0xc4>
   1173c:	e51b3008 	ldr	r3, [fp, #-8]
   11740:	e51b201c 	ldr	r2, [fp, #-28]
   11744:	e0823003 	add	r3, r2, r3
   11748:	e5d32000 	ldrb	r2, [r3]
   1174c:	e55b3009 	ldrb	r3, [fp, #-9]
   11750:	e0823003 	add	r3, r2, r3
   11754:	e54b3009 	strb	r3, [fp, #-9]
   11758:	e51b3008 	ldr	r3, [fp, #-8]
   1175c:	e2833001 	add	r3, r3, #1
   11760:	e50b3008 	str	r3, [fp, #-8]
   11764:	e51b2008 	ldr	r2, [fp, #-8]
   11768:	e51b3020 	ldr	r3, [fp, #-32]
   1176c:	e1520003 	cmp	r2, r3
   11770:	bafffff1 	blt	1173c <check+0x9c>
   11774:	e51b3020 	ldr	r3, [fp, #-32]
   11778:	e51b201c 	ldr	r2, [fp, #-28]
   1177c:	e0823003 	add	r3, r2, r3
   11780:	e5d33000 	ldrb	r3, [r3]
   11784:	e55b2009 	ldrb	r2, [fp, #-9]
   11788:	e1520003 	cmp	r2, r3
   1178c:	1a000001 	bne	11798 <check+0xf8>
   11790:	e3a03001 	mov	r3, #1
   11794:	ea000000 	b	1179c <check+0xfc>
   11798:	e3a03000 	mov	r3, #0
   1179c:	e1a00003 	mov	r0, r3
   117a0:	e24bd004 	sub	sp, fp, #4
   117a4:	e8bd8800 	pop	{fp, pc}

000117a8 <flushinput>:
   117a8:	e92d4800 	push	{fp, lr}
   117ac:	e28db004 	add	fp, sp, #4
   117b0:	e1a00000 	nop			; (mov r0, r0)
   117b4:	ebfffa23 	bl	10048 <uart_recv>
   117b8:	eafffffd 	b	117b4 <flushinput+0xc>

000117bc <xmodemReceive>:
   117bc:	e92d4800 	push	{fp, lr}
   117c0:	e28db004 	add	fp, sp, #4
   117c4:	e24dde42 	sub	sp, sp, #1056	; 0x420
   117c8:	e24dd008 	sub	sp, sp, #8
   117cc:	e50b0428 	str	r0, [fp, #-1064]	; 0x428
   117d0:	e1a02001 	mov	r2, r1
   117d4:	e59f33ac 	ldr	r3, [pc, #940]	; 11b88 <xmodemReceive+0x3cc>
   117d8:	e24b1004 	sub	r1, fp, #4
   117dc:	e18120b3 	strh	r2, [r1, r3]
   117e0:	e3a03000 	mov	r3, #0
   117e4:	e14b30bc 	strh	r3, [fp, #-12]
   117e8:	e3a03043 	mov	r3, #67	; 0x43
   117ec:	e54b300d 	strb	r3, [fp, #-13]
   117f0:	e3a03001 	mov	r3, #1
   117f4:	e54b300e 	strb	r3, [fp, #-14]
   117f8:	e3a03000 	mov	r3, #0
   117fc:	e14b31b2 	strh	r3, [fp, #-18]	; 0xffffffee
   11800:	e3a03019 	mov	r3, #25
   11804:	e54b3014 	strb	r3, [fp, #-20]
   11808:	e3a03000 	mov	r3, #0
   1180c:	e54b3013 	strb	r3, [fp, #-19]
   11810:	ea000041 	b	1191c <xmodemReceive+0x160>
   11814:	e55b300d 	ldrb	r3, [fp, #-13]
   11818:	e3530000 	cmp	r3, #0
   1181c:	0a000002 	beq	1182c <xmodemReceive+0x70>
   11820:	e55b300d 	ldrb	r3, [fp, #-13]
   11824:	e1a00003 	mov	r0, r3
   11828:	ebfffa18 	bl	10090 <uart_send>
   1182c:	ebfffa05 	bl	10048 <uart_recv>
   11830:	e1a03000 	mov	r3, r0
   11834:	e14b31b8 	strh	r3, [fp, #-24]	; 0xffffffe8
   11838:	e15b31b8 	ldrh	r3, [fp, #-24]	; 0xffffffe8
   1183c:	e2433001 	sub	r3, r3, #1
   11840:	e3530017 	cmp	r3, #23
   11844:	979ff103 	ldrls	pc, [pc, r3, lsl #2]
   11848:	ea00002f 	b	1190c <xmodemReceive+0x150>
   1184c:	000118ac 	andeq	r1, r1, ip, lsr #17
   11850:	000118b8 			; <UNDEFINED> instruction: 0x000118b8
   11854:	0001190c 	andeq	r1, r1, ip, lsl #18
   11858:	000118c4 	andeq	r1, r1, r4, asr #17
   1185c:	0001190c 	andeq	r1, r1, ip, lsl #18
   11860:	0001190c 	andeq	r1, r1, ip, lsl #18
   11864:	0001190c 	andeq	r1, r1, ip, lsl #18
   11868:	0001190c 	andeq	r1, r1, ip, lsl #18
   1186c:	0001190c 	andeq	r1, r1, ip, lsl #18
   11870:	0001190c 	andeq	r1, r1, ip, lsl #18
   11874:	0001190c 	andeq	r1, r1, ip, lsl #18
   11878:	0001190c 	andeq	r1, r1, ip, lsl #18
   1187c:	0001190c 	andeq	r1, r1, ip, lsl #18
   11880:	0001190c 	andeq	r1, r1, ip, lsl #18
   11884:	0001190c 	andeq	r1, r1, ip, lsl #18
   11888:	0001190c 	andeq	r1, r1, ip, lsl #18
   1188c:	0001190c 	andeq	r1, r1, ip, lsl #18
   11890:	0001190c 	andeq	r1, r1, ip, lsl #18
   11894:	0001190c 	andeq	r1, r1, ip, lsl #18
   11898:	0001190c 	andeq	r1, r1, ip, lsl #18
   1189c:	0001190c 	andeq	r1, r1, ip, lsl #18
   118a0:	0001190c 	andeq	r1, r1, ip, lsl #18
   118a4:	0001190c 	andeq	r1, r1, ip, lsl #18
   118a8:	000118dc 	ldrdeq	r1, [r1], -ip
   118ac:	e3a03080 	mov	r3, #128	; 0x80
   118b0:	e14b30ba 	strh	r3, [fp, #-10]
   118b4:	ea00002a 	b	11964 <xmodemReceive+0x1a8>
   118b8:	e3a03b01 	mov	r3, #1024	; 0x400
   118bc:	e14b30ba 	strh	r3, [fp, #-10]
   118c0:	ea000027 	b	11964 <xmodemReceive+0x1a8>
   118c4:	ebffffb7 	bl	117a8 <flushinput>
   118c8:	e3a00006 	mov	r0, #6
   118cc:	ebfff9ef 	bl	10090 <uart_send>
   118d0:	e15b31b2 	ldrh	r3, [fp, #-18]	; 0xffffffee
   118d4:	e6ef3073 	uxtb	r3, r3
   118d8:	ea0000a6 	b	11b78 <xmodemReceive+0x3bc>
   118dc:	ebfff9d9 	bl	10048 <uart_recv>
   118e0:	e1a03000 	mov	r3, r0
   118e4:	e14b31b8 	strh	r3, [fp, #-24]	; 0xffffffe8
   118e8:	e15b31b8 	ldrh	r3, [fp, #-24]	; 0xffffffe8
   118ec:	e3530018 	cmp	r3, #24
   118f0:	1a000004 	bne	11908 <xmodemReceive+0x14c>
   118f4:	ebffffab 	bl	117a8 <flushinput>
   118f8:	e3a00006 	mov	r0, #6
   118fc:	ebfff9e3 	bl	10090 <uart_send>
   11900:	e3a030ff 	mov	r3, #255	; 0xff
   11904:	ea00009b 	b	11b78 <xmodemReceive+0x3bc>
   11908:	ea000000 	b	11910 <xmodemReceive+0x154>
   1190c:	e1a00000 	nop			; (mov r0, r0)
   11910:	e55b3013 	ldrb	r3, [fp, #-19]
   11914:	e2833001 	add	r3, r3, #1
   11918:	e54b3013 	strb	r3, [fp, #-19]
   1191c:	e55b3013 	ldrb	r3, [fp, #-19]
   11920:	e353000f 	cmp	r3, #15
   11924:	9affffba 	bls	11814 <xmodemReceive+0x58>
   11928:	e55b300d 	ldrb	r3, [fp, #-13]
   1192c:	e3530043 	cmp	r3, #67	; 0x43
   11930:	1a000002 	bne	11940 <xmodemReceive+0x184>
   11934:	e3a03015 	mov	r3, #21
   11938:	e54b300d 	strb	r3, [fp, #-13]
   1193c:	ea00008c 	b	11b74 <xmodemReceive+0x3b8>
   11940:	ebffff98 	bl	117a8 <flushinput>
   11944:	e3a00018 	mov	r0, #24
   11948:	ebfff9d0 	bl	10090 <uart_send>
   1194c:	e3a00018 	mov	r0, #24
   11950:	ebfff9ce 	bl	10090 <uart_send>
   11954:	e3a00018 	mov	r0, #24
   11958:	ebfff9cc 	bl	10090 <uart_send>
   1195c:	e3a030fe 	mov	r3, #254	; 0xfe
   11960:	ea000084 	b	11b78 <xmodemReceive+0x3bc>
   11964:	e55b300d 	ldrb	r3, [fp, #-13]
   11968:	e3530043 	cmp	r3, #67	; 0x43
   1196c:	1a000001 	bne	11978 <xmodemReceive+0x1bc>
   11970:	e3a03001 	mov	r3, #1
   11974:	e14b30bc 	strh	r3, [fp, #-12]
   11978:	e3a03000 	mov	r3, #0
   1197c:	e54b300d 	strb	r3, [fp, #-13]
   11980:	e24b3e41 	sub	r3, fp, #1040	; 0x410
   11984:	e2433004 	sub	r3, r3, #4
   11988:	e243300c 	sub	r3, r3, #12
   1198c:	e50b3008 	str	r3, [fp, #-8]
   11990:	e51b3008 	ldr	r3, [fp, #-8]
   11994:	e2832001 	add	r2, r3, #1
   11998:	e50b2008 	str	r2, [fp, #-8]
   1199c:	e15b21b8 	ldrh	r2, [fp, #-24]	; 0xffffffe8
   119a0:	e6ef2072 	uxtb	r2, r2
   119a4:	e5c32000 	strb	r2, [r3]
   119a8:	e3a03000 	mov	r3, #0
   119ac:	e14b31b0 	strh	r3, [fp, #-16]
   119b0:	ea00000b 	b	119e4 <xmodemReceive+0x228>
   119b4:	ebfff9a3 	bl	10048 <uart_recv>
   119b8:	e1a03000 	mov	r3, r0
   119bc:	e14b31b8 	strh	r3, [fp, #-24]	; 0xffffffe8
   119c0:	e51b3008 	ldr	r3, [fp, #-8]
   119c4:	e2832001 	add	r2, r3, #1
   119c8:	e50b2008 	str	r2, [fp, #-8]
   119cc:	e15b21b8 	ldrh	r2, [fp, #-24]	; 0xffffffe8
   119d0:	e6ef2072 	uxtb	r2, r2
   119d4:	e5c32000 	strb	r2, [r3]
   119d8:	e15b31b0 	ldrh	r3, [fp, #-16]
   119dc:	e2833001 	add	r3, r3, #1
   119e0:	e14b31b0 	strh	r3, [fp, #-16]
   119e4:	e15b21b0 	ldrh	r2, [fp, #-16]
   119e8:	e15b10ba 	ldrh	r1, [fp, #-10]
   119ec:	e15b30bc 	ldrh	r3, [fp, #-12]
   119f0:	e3530000 	cmp	r3, #0
   119f4:	03a03000 	moveq	r3, #0
   119f8:	13a03001 	movne	r3, #1
   119fc:	e6ef3073 	uxtb	r3, r3
   11a00:	e0813003 	add	r3, r1, r3
   11a04:	e2833003 	add	r3, r3, #3
   11a08:	e1520003 	cmp	r2, r3
   11a0c:	baffffe8 	blt	119b4 <xmodemReceive+0x1f8>
   11a10:	e55b241f 	ldrb	r2, [fp, #-1055]	; 0x41f
   11a14:	e55b341e 	ldrb	r3, [fp, #-1054]	; 0x41e
   11a18:	e1e03003 	mvn	r3, r3
   11a1c:	e6ef3073 	uxtb	r3, r3
   11a20:	e1520003 	cmp	r2, r3
   11a24:	1a00004e 	bne	11b64 <xmodemReceive+0x3a8>
   11a28:	e55b341f 	ldrb	r3, [fp, #-1055]	; 0x41f
   11a2c:	e55b200e 	ldrb	r2, [fp, #-14]
   11a30:	e1520003 	cmp	r2, r3
   11a34:	0a000005 	beq	11a50 <xmodemReceive+0x294>
   11a38:	e55b341f 	ldrb	r3, [fp, #-1055]	; 0x41f
   11a3c:	e1a02003 	mov	r2, r3
   11a40:	e55b300e 	ldrb	r3, [fp, #-14]
   11a44:	e2433001 	sub	r3, r3, #1
   11a48:	e1520003 	cmp	r2, r3
   11a4c:	1a000044 	bne	11b64 <xmodemReceive+0x3a8>
   11a50:	e15b10bc 	ldrh	r1, [fp, #-12]
   11a54:	e15b20ba 	ldrh	r2, [fp, #-10]
   11a58:	e24b3e41 	sub	r3, fp, #1040	; 0x410
   11a5c:	e2433004 	sub	r3, r3, #4
   11a60:	e243300c 	sub	r3, r3, #12
   11a64:	e2833003 	add	r3, r3, #3
   11a68:	e1a00001 	mov	r0, r1
   11a6c:	e1a01003 	mov	r1, r3
   11a70:	ebffff0a 	bl	116a0 <check>
   11a74:	e1a03000 	mov	r3, r0
   11a78:	e3530000 	cmp	r3, #0
   11a7c:	0a000038 	beq	11b64 <xmodemReceive+0x3a8>
   11a80:	e55b341f 	ldrb	r3, [fp, #-1055]	; 0x41f
   11a84:	e55b200e 	ldrb	r2, [fp, #-14]
   11a88:	e1520003 	cmp	r2, r3
   11a8c:	1a000022 	bne	11b1c <xmodemReceive+0x360>
   11a90:	e59f30f0 	ldr	r3, [pc, #240]	; 11b88 <xmodemReceive+0x3cc>
   11a94:	e24b1004 	sub	r1, fp, #4
   11a98:	e19120b3 	ldrh	r2, [r1, r3]
   11a9c:	e15b31b2 	ldrh	r3, [fp, #-18]	; 0xffffffee
   11aa0:	e0633002 	rsb	r3, r3, r2
   11aa4:	e14b31b6 	strh	r3, [fp, #-22]	; 0xffffffea
   11aa8:	e15b21b6 	ldrh	r2, [fp, #-22]	; 0xffffffea
   11aac:	e15b30ba 	ldrh	r3, [fp, #-10]
   11ab0:	e1520003 	cmp	r2, r3
   11ab4:	9a000001 	bls	11ac0 <xmodemReceive+0x304>
   11ab8:	e15b30ba 	ldrh	r3, [fp, #-10]
   11abc:	e14b31b6 	strh	r3, [fp, #-22]	; 0xffffffea
   11ac0:	e15b31b6 	ldrh	r3, [fp, #-22]	; 0xffffffea
   11ac4:	e3530000 	cmp	r3, #0
   11ac8:	0a00000e 	beq	11b08 <xmodemReceive+0x34c>
   11acc:	e15b31b2 	ldrh	r3, [fp, #-18]	; 0xffffffee
   11ad0:	e51b2428 	ldr	r2, [fp, #-1064]	; 0x428
   11ad4:	e0821003 	add	r1, r2, r3
   11ad8:	e15b21b6 	ldrh	r2, [fp, #-22]	; 0xffffffea
   11adc:	e24b3e41 	sub	r3, fp, #1040	; 0x410
   11ae0:	e2433004 	sub	r3, r3, #4
   11ae4:	e243300c 	sub	r3, r3, #12
   11ae8:	e2833003 	add	r3, r3, #3
   11aec:	e1a00001 	mov	r0, r1
   11af0:	e1a01003 	mov	r1, r3
   11af4:	eb001f59 	bl	19860 <memcpy>
   11af8:	e15b21b2 	ldrh	r2, [fp, #-18]	; 0xffffffee
   11afc:	e15b31b6 	ldrh	r3, [fp, #-22]	; 0xffffffea
   11b00:	e0823003 	add	r3, r2, r3
   11b04:	e14b31b2 	strh	r3, [fp, #-18]	; 0xffffffee
   11b08:	e55b300e 	ldrb	r3, [fp, #-14]
   11b0c:	e2833001 	add	r3, r3, #1
   11b10:	e54b300e 	strb	r3, [fp, #-14]
   11b14:	e3a0301a 	mov	r3, #26
   11b18:	e54b3014 	strb	r3, [fp, #-20]
   11b1c:	e55b3014 	ldrb	r3, [fp, #-20]
   11b20:	e2433001 	sub	r3, r3, #1
   11b24:	e54b3014 	strb	r3, [fp, #-20]
   11b28:	e55b3014 	ldrb	r3, [fp, #-20]
   11b2c:	e3530000 	cmp	r3, #0
   11b30:	1a000008 	bne	11b58 <xmodemReceive+0x39c>
   11b34:	ebffff1b 	bl	117a8 <flushinput>
   11b38:	e3a00018 	mov	r0, #24
   11b3c:	ebfff953 	bl	10090 <uart_send>
   11b40:	e3a00018 	mov	r0, #24
   11b44:	ebfff951 	bl	10090 <uart_send>
   11b48:	e3a00018 	mov	r0, #24
   11b4c:	ebfff94f 	bl	10090 <uart_send>
   11b50:	e3a030fd 	mov	r3, #253	; 0xfd
   11b54:	ea000007 	b	11b78 <xmodemReceive+0x3bc>
   11b58:	e3a00006 	mov	r0, #6
   11b5c:	ebfff94b 	bl	10090 <uart_send>
   11b60:	ea000003 	b	11b74 <xmodemReceive+0x3b8>
   11b64:	ebffff0f 	bl	117a8 <flushinput>
   11b68:	e3a00015 	mov	r0, #21
   11b6c:	ebfff947 	bl	10090 <uart_send>
   11b70:	eaffff24 	b	11808 <xmodemReceive+0x4c>
   11b74:	eaffff23 	b	11808 <xmodemReceive+0x4c>
   11b78:	e6af3073 	sxtb	r3, r3
   11b7c:	e1a00003 	mov	r0, r3
   11b80:	e24bd004 	sub	sp, fp, #4
   11b84:	e8bd8800 	pop	{fp, pc}
   11b88:	fffffbda 			; <UNDEFINED> instruction: 0xfffffbda

00011b8c <xmodemTransmit>:
   11b8c:	e92d4800 	push	{fp, lr}
   11b90:	e28db004 	add	fp, sp, #4
   11b94:	e24dde42 	sub	sp, sp, #1056	; 0x420
   11b98:	e24dd008 	sub	sp, sp, #8
   11b9c:	e50b0428 	str	r0, [fp, #-1064]	; 0x428
   11ba0:	e1a02001 	mov	r2, r1
   11ba4:	e59f3480 	ldr	r3, [pc, #1152]	; 1202c <xmodemTransmit+0x4a0>
   11ba8:	e24b0004 	sub	r0, fp, #4
   11bac:	e18020b3 	strh	r2, [r0, r3]
   11bb0:	e3e03000 	mvn	r3, #0
   11bb4:	e14b30b6 	strh	r3, [fp, #-6]
   11bb8:	e3a03001 	mov	r3, #1
   11bbc:	e54b3007 	strb	r3, [fp, #-7]
   11bc0:	e3a03000 	mov	r3, #0
   11bc4:	e50b3014 	str	r3, [fp, #-20]
   11bc8:	e3a03000 	mov	r3, #0
   11bcc:	e54b3015 	strb	r3, [fp, #-21]
   11bd0:	ea000022 	b	11c60 <xmodemTransmit+0xd4>
   11bd4:	ebfff91b 	bl	10048 <uart_recv>
   11bd8:	e1a03000 	mov	r3, r0
   11bdc:	e50b3010 	str	r3, [fp, #-16]
   11be0:	e51b3010 	ldr	r3, [fp, #-16]
   11be4:	e3530000 	cmp	r3, #0
   11be8:	ba000019 	blt	11c54 <xmodemTransmit+0xc8>
   11bec:	e51b3010 	ldr	r3, [fp, #-16]
   11bf0:	e3530018 	cmp	r3, #24
   11bf4:	0a00000a 	beq	11c24 <xmodemTransmit+0x98>
   11bf8:	e3530043 	cmp	r3, #67	; 0x43
   11bfc:	0a000002 	beq	11c0c <xmodemTransmit+0x80>
   11c00:	e3530015 	cmp	r3, #21
   11c04:	0a000003 	beq	11c18 <xmodemTransmit+0x8c>
   11c08:	ea000011 	b	11c54 <xmodemTransmit+0xc8>
   11c0c:	e3a03001 	mov	r3, #1
   11c10:	e14b30b6 	strh	r3, [fp, #-6]
   11c14:	ea00001d 	b	11c90 <xmodemTransmit+0x104>
   11c18:	e3a03000 	mov	r3, #0
   11c1c:	e14b30b6 	strh	r3, [fp, #-6]
   11c20:	ea00001a 	b	11c90 <xmodemTransmit+0x104>
   11c24:	ebfff907 	bl	10048 <uart_recv>
   11c28:	e1a03000 	mov	r3, r0
   11c2c:	e50b3010 	str	r3, [fp, #-16]
   11c30:	e51b3010 	ldr	r3, [fp, #-16]
   11c34:	e3530018 	cmp	r3, #24
   11c38:	1a000004 	bne	11c50 <xmodemTransmit+0xc4>
   11c3c:	e3a00006 	mov	r0, #6
   11c40:	ebfff912 	bl	10090 <uart_send>
   11c44:	ebfffed7 	bl	117a8 <flushinput>
   11c48:	e3a030ff 	mov	r3, #255	; 0xff
   11c4c:	ea0000f2 	b	1201c <xmodemTransmit+0x490>
   11c50:	e1a00000 	nop			; (mov r0, r0)
   11c54:	e55b3015 	ldrb	r3, [fp, #-21]
   11c58:	e2833001 	add	r3, r3, #1
   11c5c:	e54b3015 	strb	r3, [fp, #-21]
   11c60:	e55b3015 	ldrb	r3, [fp, #-21]
   11c64:	e353000f 	cmp	r3, #15
   11c68:	9affffd9 	bls	11bd4 <xmodemTransmit+0x48>
   11c6c:	e3a00018 	mov	r0, #24
   11c70:	ebfff906 	bl	10090 <uart_send>
   11c74:	e3a00018 	mov	r0, #24
   11c78:	ebfff904 	bl	10090 <uart_send>
   11c7c:	e3a00018 	mov	r0, #24
   11c80:	ebfff902 	bl	10090 <uart_send>
   11c84:	ebfffec7 	bl	117a8 <flushinput>
   11c88:	e3a030fe 	mov	r3, #254	; 0xfe
   11c8c:	ea0000e2 	b	1201c <xmodemTransmit+0x490>
   11c90:	e3a03001 	mov	r3, #1
   11c94:	e54b3420 	strb	r3, [fp, #-1056]	; 0x420
   11c98:	e3a03080 	mov	r3, #128	; 0x80
   11c9c:	e14b31b8 	strh	r3, [fp, #-24]	; 0xffffffe8
   11ca0:	e55b3007 	ldrb	r3, [fp, #-7]
   11ca4:	e54b341f 	strb	r3, [fp, #-1055]	; 0x41f
   11ca8:	e55b3007 	ldrb	r3, [fp, #-7]
   11cac:	e1e03003 	mvn	r3, r3
   11cb0:	e6ef3073 	uxtb	r3, r3
   11cb4:	e54b341e 	strb	r3, [fp, #-1054]	; 0x41e
   11cb8:	e59f336c 	ldr	r3, [pc, #876]	; 1202c <xmodemTransmit+0x4a0>
   11cbc:	e24b1004 	sub	r1, fp, #4
   11cc0:	e19120b3 	ldrh	r2, [r1, r3]
   11cc4:	e51b3014 	ldr	r3, [fp, #-20]
   11cc8:	e0633002 	rsb	r3, r3, r2
   11ccc:	e50b3010 	str	r3, [fp, #-16]
   11cd0:	e15b21f8 	ldrsh	r2, [fp, #-24]	; 0xffffffe8
   11cd4:	e51b3010 	ldr	r3, [fp, #-16]
   11cd8:	e1520003 	cmp	r2, r3
   11cdc:	aa000001 	bge	11ce8 <xmodemTransmit+0x15c>
   11ce0:	e15b31f8 	ldrsh	r3, [fp, #-24]	; 0xffffffe8
   11ce4:	e50b3010 	str	r3, [fp, #-16]
   11ce8:	e51b3010 	ldr	r3, [fp, #-16]
   11cec:	e3530000 	cmp	r3, #0
   11cf0:	ba0000ae 	blt	11fb0 <xmodemTransmit+0x424>
   11cf4:	e15b21f8 	ldrsh	r2, [fp, #-24]	; 0xffffffe8
   11cf8:	e24b3e41 	sub	r3, fp, #1040	; 0x410
   11cfc:	e2433004 	sub	r3, r3, #4
   11d00:	e243300c 	sub	r3, r3, #12
   11d04:	e2833003 	add	r3, r3, #3
   11d08:	e1a00003 	mov	r0, r3
   11d0c:	e3a01000 	mov	r1, #0
   11d10:	eb001f0f 	bl	19954 <memset>
   11d14:	e51b3010 	ldr	r3, [fp, #-16]
   11d18:	e3530000 	cmp	r3, #0
   11d1c:	1a000002 	bne	11d2c <xmodemTransmit+0x1a0>
   11d20:	e3a0301a 	mov	r3, #26
   11d24:	e54b341d 	strb	r3, [fp, #-1053]	; 0x41d
   11d28:	ea000015 	b	11d84 <xmodemTransmit+0x1f8>
   11d2c:	e51b3014 	ldr	r3, [fp, #-20]
   11d30:	e51b2428 	ldr	r2, [fp, #-1064]	; 0x428
   11d34:	e0821003 	add	r1, r2, r3
   11d38:	e51b2010 	ldr	r2, [fp, #-16]
   11d3c:	e24b3e41 	sub	r3, fp, #1040	; 0x410
   11d40:	e2433004 	sub	r3, r3, #4
   11d44:	e243300c 	sub	r3, r3, #12
   11d48:	e2833003 	add	r3, r3, #3
   11d4c:	e1a00003 	mov	r0, r3
   11d50:	eb001ec2 	bl	19860 <memcpy>
   11d54:	e15b21f8 	ldrsh	r2, [fp, #-24]	; 0xffffffe8
   11d58:	e51b3010 	ldr	r3, [fp, #-16]
   11d5c:	e1520003 	cmp	r2, r3
   11d60:	da000007 	ble	11d84 <xmodemTransmit+0x1f8>
   11d64:	e51b3010 	ldr	r3, [fp, #-16]
   11d68:	e2832003 	add	r2, r3, #3
   11d6c:	e59f32bc 	ldr	r3, [pc, #700]	; 12030 <xmodemTransmit+0x4a4>
   11d70:	e24b0004 	sub	r0, fp, #4
   11d74:	e0802002 	add	r2, r0, r2
   11d78:	e0823003 	add	r3, r2, r3
   11d7c:	e3a0201a 	mov	r2, #26
   11d80:	e5c32000 	strb	r2, [r3]
   11d84:	e15b30f6 	ldrsh	r3, [fp, #-6]
   11d88:	e3530000 	cmp	r3, #0
   11d8c:	0a00001e 	beq	11e0c <xmodemTransmit+0x280>
   11d90:	e15b21f8 	ldrsh	r2, [fp, #-24]	; 0xffffffe8
   11d94:	e24b3e41 	sub	r3, fp, #1040	; 0x410
   11d98:	e2433004 	sub	r3, r3, #4
   11d9c:	e243300c 	sub	r3, r3, #12
   11da0:	e2833003 	add	r3, r3, #3
   11da4:	e1a00003 	mov	r0, r3
   11da8:	e1a01002 	mov	r1, r2
   11dac:	eb0000dd 	bl	12128 <crc16_ccitt>
   11db0:	e1a03000 	mov	r3, r0
   11db4:	e14b31ba 	strh	r3, [fp, #-26]	; 0xffffffe6
   11db8:	e15b31f8 	ldrsh	r3, [fp, #-24]	; 0xffffffe8
   11dbc:	e2831003 	add	r1, r3, #3
   11dc0:	e15b31ba 	ldrh	r3, [fp, #-26]	; 0xffffffe6
   11dc4:	e1a03423 	lsr	r3, r3, #8
   11dc8:	e6ff3073 	uxth	r3, r3
   11dcc:	e6ef2073 	uxtb	r2, r3
   11dd0:	e59f3258 	ldr	r3, [pc, #600]	; 12030 <xmodemTransmit+0x4a4>
   11dd4:	e24b0004 	sub	r0, fp, #4
   11dd8:	e0801001 	add	r1, r0, r1
   11ddc:	e0813003 	add	r3, r1, r3
   11de0:	e5c32000 	strb	r2, [r3]
   11de4:	e15b31f8 	ldrsh	r3, [fp, #-24]	; 0xffffffe8
   11de8:	e2831004 	add	r1, r3, #4
   11dec:	e15b31ba 	ldrh	r3, [fp, #-26]	; 0xffffffe6
   11df0:	e6ef2073 	uxtb	r2, r3
   11df4:	e59f3234 	ldr	r3, [pc, #564]	; 12030 <xmodemTransmit+0x4a4>
   11df8:	e24b0004 	sub	r0, fp, #4
   11dfc:	e0801001 	add	r1, r0, r1
   11e00:	e0813003 	add	r3, r1, r3
   11e04:	e5c32000 	strb	r2, [r3]
   11e08:	ea00001d 	b	11e84 <xmodemTransmit+0x2f8>
   11e0c:	e3a03000 	mov	r3, #0
   11e10:	e54b3016 	strb	r3, [fp, #-22]
   11e14:	e3a03003 	mov	r3, #3
   11e18:	e50b300c 	str	r3, [fp, #-12]
   11e1c:	ea00000b 	b	11e50 <xmodemTransmit+0x2c4>
   11e20:	e59f3208 	ldr	r3, [pc, #520]	; 12030 <xmodemTransmit+0x4a4>
   11e24:	e51b200c 	ldr	r2, [fp, #-12]
   11e28:	e24b1004 	sub	r1, fp, #4
   11e2c:	e0812002 	add	r2, r1, r2
   11e30:	e0823003 	add	r3, r2, r3
   11e34:	e5d32000 	ldrb	r2, [r3]
   11e38:	e55b3016 	ldrb	r3, [fp, #-22]
   11e3c:	e0823003 	add	r3, r2, r3
   11e40:	e54b3016 	strb	r3, [fp, #-22]
   11e44:	e51b300c 	ldr	r3, [fp, #-12]
   11e48:	e2833001 	add	r3, r3, #1
   11e4c:	e50b300c 	str	r3, [fp, #-12]
   11e50:	e15b31f8 	ldrsh	r3, [fp, #-24]	; 0xffffffe8
   11e54:	e2832003 	add	r2, r3, #3
   11e58:	e51b300c 	ldr	r3, [fp, #-12]
   11e5c:	e1520003 	cmp	r2, r3
   11e60:	caffffee 	bgt	11e20 <xmodemTransmit+0x294>
   11e64:	e15b31f8 	ldrsh	r3, [fp, #-24]	; 0xffffffe8
   11e68:	e2832003 	add	r2, r3, #3
   11e6c:	e59f31bc 	ldr	r3, [pc, #444]	; 12030 <xmodemTransmit+0x4a4>
   11e70:	e24b0004 	sub	r0, fp, #4
   11e74:	e0802002 	add	r2, r0, r2
   11e78:	e0823003 	add	r3, r2, r3
   11e7c:	e55b2016 	ldrb	r2, [fp, #-22]
   11e80:	e5c32000 	strb	r2, [r3]
   11e84:	e3a03000 	mov	r3, #0
   11e88:	e54b3015 	strb	r3, [fp, #-21]
   11e8c:	ea00003b 	b	11f80 <xmodemTransmit+0x3f4>
   11e90:	e3a03000 	mov	r3, #0
   11e94:	e50b300c 	str	r3, [fp, #-12]
   11e98:	ea00000a 	b	11ec8 <xmodemTransmit+0x33c>
   11e9c:	e59f318c 	ldr	r3, [pc, #396]	; 12030 <xmodemTransmit+0x4a4>
   11ea0:	e51b200c 	ldr	r2, [fp, #-12]
   11ea4:	e24b1004 	sub	r1, fp, #4
   11ea8:	e0812002 	add	r2, r1, r2
   11eac:	e0823003 	add	r3, r2, r3
   11eb0:	e5d33000 	ldrb	r3, [r3]
   11eb4:	e1a00003 	mov	r0, r3
   11eb8:	ebfff874 	bl	10090 <uart_send>
   11ebc:	e51b300c 	ldr	r3, [fp, #-12]
   11ec0:	e2833001 	add	r3, r3, #1
   11ec4:	e50b300c 	str	r3, [fp, #-12]
   11ec8:	e15b31f8 	ldrsh	r3, [fp, #-24]	; 0xffffffe8
   11ecc:	e2832004 	add	r2, r3, #4
   11ed0:	e15b30f6 	ldrsh	r3, [fp, #-6]
   11ed4:	e3530000 	cmp	r3, #0
   11ed8:	03a03000 	moveq	r3, #0
   11edc:	13a03001 	movne	r3, #1
   11ee0:	e6ef3073 	uxtb	r3, r3
   11ee4:	e0822003 	add	r2, r2, r3
   11ee8:	e51b300c 	ldr	r3, [fp, #-12]
   11eec:	e1520003 	cmp	r2, r3
   11ef0:	caffffe9 	bgt	11e9c <xmodemTransmit+0x310>
   11ef4:	ebfff853 	bl	10048 <uart_recv>
   11ef8:	e1a03000 	mov	r3, r0
   11efc:	e50b3010 	str	r3, [fp, #-16]
   11f00:	e51b3010 	ldr	r3, [fp, #-16]
   11f04:	e3530000 	cmp	r3, #0
   11f08:	ba000019 	blt	11f74 <xmodemTransmit+0x3e8>
   11f0c:	e51b3010 	ldr	r3, [fp, #-16]
   11f10:	e3530006 	cmp	r3, #6
   11f14:	0a000002 	beq	11f24 <xmodemTransmit+0x398>
   11f18:	e3530018 	cmp	r3, #24
   11f1c:	0a000008 	beq	11f44 <xmodemTransmit+0x3b8>
   11f20:	ea000013 	b	11f74 <xmodemTransmit+0x3e8>
   11f24:	e55b3007 	ldrb	r3, [fp, #-7]
   11f28:	e2833001 	add	r3, r3, #1
   11f2c:	e54b3007 	strb	r3, [fp, #-7]
   11f30:	e15b31f8 	ldrsh	r3, [fp, #-24]	; 0xffffffe8
   11f34:	e51b2014 	ldr	r2, [fp, #-20]
   11f38:	e0823003 	add	r3, r2, r3
   11f3c:	e50b3014 	str	r3, [fp, #-20]
   11f40:	eaffff52 	b	11c90 <xmodemTransmit+0x104>
   11f44:	ebfff83f 	bl	10048 <uart_recv>
   11f48:	e1a03000 	mov	r3, r0
   11f4c:	e50b3010 	str	r3, [fp, #-16]
   11f50:	e51b3010 	ldr	r3, [fp, #-16]
   11f54:	e3530018 	cmp	r3, #24
   11f58:	1a000004 	bne	11f70 <xmodemTransmit+0x3e4>
   11f5c:	e3a00006 	mov	r0, #6
   11f60:	ebfff84a 	bl	10090 <uart_send>
   11f64:	ebfffe0f 	bl	117a8 <flushinput>
   11f68:	e3a030ff 	mov	r3, #255	; 0xff
   11f6c:	ea00002a 	b	1201c <xmodemTransmit+0x490>
   11f70:	e1a00000 	nop			; (mov r0, r0)
   11f74:	e55b3015 	ldrb	r3, [fp, #-21]
   11f78:	e2833001 	add	r3, r3, #1
   11f7c:	e54b3015 	strb	r3, [fp, #-21]
   11f80:	e55b3015 	ldrb	r3, [fp, #-21]
   11f84:	e3530018 	cmp	r3, #24
   11f88:	9affffc0 	bls	11e90 <xmodemTransmit+0x304>
   11f8c:	e3a00018 	mov	r0, #24
   11f90:	ebfff83e 	bl	10090 <uart_send>
   11f94:	e3a00018 	mov	r0, #24
   11f98:	ebfff83c 	bl	10090 <uart_send>
   11f9c:	e3a00018 	mov	r0, #24
   11fa0:	ebfff83a 	bl	10090 <uart_send>
   11fa4:	ebfffdff 	bl	117a8 <flushinput>
   11fa8:	e3a030fc 	mov	r3, #252	; 0xfc
   11fac:	ea00001a 	b	1201c <xmodemTransmit+0x490>
   11fb0:	e3a03000 	mov	r3, #0
   11fb4:	e54b3015 	strb	r3, [fp, #-21]
   11fb8:	ea00000b 	b	11fec <xmodemTransmit+0x460>
   11fbc:	e3a00004 	mov	r0, #4
   11fc0:	ebfff832 	bl	10090 <uart_send>
   11fc4:	ebfff81f 	bl	10048 <uart_recv>
   11fc8:	e1a03000 	mov	r3, r0
   11fcc:	e50b3010 	str	r3, [fp, #-16]
   11fd0:	e51b3010 	ldr	r3, [fp, #-16]
   11fd4:	e3530006 	cmp	r3, #6
   11fd8:	1a000000 	bne	11fe0 <xmodemTransmit+0x454>
   11fdc:	ea000005 	b	11ff8 <xmodemTransmit+0x46c>
   11fe0:	e55b3015 	ldrb	r3, [fp, #-21]
   11fe4:	e2833001 	add	r3, r3, #1
   11fe8:	e54b3015 	strb	r3, [fp, #-21]
   11fec:	e55b3015 	ldrb	r3, [fp, #-21]
   11ff0:	e3530009 	cmp	r3, #9
   11ff4:	9afffff0 	bls	11fbc <xmodemTransmit+0x430>
   11ff8:	ebfffdea 	bl	117a8 <flushinput>
   11ffc:	e51b3010 	ldr	r3, [fp, #-16]
   12000:	e3530006 	cmp	r3, #6
   12004:	1a000002 	bne	12014 <xmodemTransmit+0x488>
   12008:	e51b3014 	ldr	r3, [fp, #-20]
   1200c:	e6ef3073 	uxtb	r3, r3
   12010:	ea000000 	b	12018 <xmodemTransmit+0x48c>
   12014:	e3a030fb 	mov	r3, #251	; 0xfb
   12018:	e6ef3073 	uxtb	r3, r3
   1201c:	e6af3073 	sxtb	r3, r3
   12020:	e1a00003 	mov	r0, r3
   12024:	e24bd004 	sub	sp, fp, #4
   12028:	e8bd8800 	pop	{fp, pc}
   1202c:	fffffbda 			; <UNDEFINED> instruction: 0xfffffbda
   12030:	fffffbe4 			; <UNDEFINED> instruction: 0xfffffbe4

00012034 <crc8>:
   12034:	e52db004 	push	{fp}		; (str fp, [sp, #-4]!)
   12038:	e28db000 	add	fp, sp, #0
   1203c:	e24dd014 	sub	sp, sp, #20
   12040:	e50b0010 	str	r0, [fp, #-16]
   12044:	e1a03001 	mov	r3, r1
   12048:	e14b31b2 	strh	r3, [fp, #-18]	; 0xffffffee
   1204c:	e3a03000 	mov	r3, #0
   12050:	e54b3005 	strb	r3, [fp, #-5]
   12054:	e3a03000 	mov	r3, #0
   12058:	e14b30b8 	strh	r3, [fp, #-8]
   1205c:	ea000028 	b	12104 <crc8+0xd0>
   12060:	e15b30b8 	ldrh	r3, [fp, #-8]
   12064:	e51b2010 	ldr	r2, [fp, #-16]
   12068:	e0823003 	add	r3, r2, r3
   1206c:	e5d33000 	ldrb	r3, [r3]
   12070:	e54b300a 	strb	r3, [fp, #-10]
   12074:	e3a03008 	mov	r3, #8
   12078:	e54b3009 	strb	r3, [fp, #-9]
   1207c:	e55b2005 	ldrb	r2, [fp, #-5]
   12080:	e55b300a 	ldrb	r3, [fp, #-10]
   12084:	e0223003 	eor	r3, r2, r3
   12088:	e6ef3073 	uxtb	r3, r3
   1208c:	e2033001 	and	r3, r3, #1
   12090:	e54b300b 	strb	r3, [fp, #-11]
   12094:	e55b300b 	ldrb	r3, [fp, #-11]
   12098:	e3530001 	cmp	r3, #1
   1209c:	1a000002 	bne	120ac <crc8+0x78>
   120a0:	e55b3005 	ldrb	r3, [fp, #-5]
   120a4:	e2233018 	eor	r3, r3, #24
   120a8:	e54b3005 	strb	r3, [fp, #-5]
   120ac:	e55b3005 	ldrb	r3, [fp, #-5]
   120b0:	e1a030a3 	lsr	r3, r3, #1
   120b4:	e54b3005 	strb	r3, [fp, #-5]
   120b8:	e55b300b 	ldrb	r3, [fp, #-11]
   120bc:	e3530001 	cmp	r3, #1
   120c0:	1a000003 	bne	120d4 <crc8+0xa0>
   120c4:	e55b3005 	ldrb	r3, [fp, #-5]
   120c8:	e1e03c83 	mvn	r3, r3, lsl #25
   120cc:	e1e03ca3 	mvn	r3, r3, lsr #25
   120d0:	e54b3005 	strb	r3, [fp, #-5]
   120d4:	e55b300a 	ldrb	r3, [fp, #-10]
   120d8:	e1a030a3 	lsr	r3, r3, #1
   120dc:	e54b300a 	strb	r3, [fp, #-10]
   120e0:	e55b3009 	ldrb	r3, [fp, #-9]
   120e4:	e2433001 	sub	r3, r3, #1
   120e8:	e54b3009 	strb	r3, [fp, #-9]
   120ec:	e55b3009 	ldrb	r3, [fp, #-9]
   120f0:	e3530000 	cmp	r3, #0
   120f4:	1affffe0 	bne	1207c <crc8+0x48>
   120f8:	e15b30b8 	ldrh	r3, [fp, #-8]
   120fc:	e2833001 	add	r3, r3, #1
   12100:	e14b30b8 	strh	r3, [fp, #-8]
   12104:	e15b20b8 	ldrh	r2, [fp, #-8]
   12108:	e15b31b2 	ldrh	r3, [fp, #-18]	; 0xffffffee
   1210c:	e1520003 	cmp	r2, r3
   12110:	1affffd2 	bne	12060 <crc8+0x2c>
   12114:	e55b3005 	ldrb	r3, [fp, #-5]
   12118:	e1a00003 	mov	r0, r3
   1211c:	e24bd000 	sub	sp, fp, #0
   12120:	e49db004 	pop	{fp}		; (ldr fp, [sp], #4)
   12124:	e12fff1e 	bx	lr

00012128 <crc16_ccitt>:
   12128:	e52db004 	push	{fp}		; (str fp, [sp, #-4]!)
   1212c:	e28db000 	add	fp, sp, #0
   12130:	e24dd014 	sub	sp, sp, #20
   12134:	e50b0010 	str	r0, [fp, #-16]
   12138:	e1a03001 	mov	r3, r1
   1213c:	e14b31b2 	strh	r3, [fp, #-18]	; 0xffffffee
   12140:	e3a03000 	mov	r3, #0
   12144:	e14b30b8 	strh	r3, [fp, #-8]
   12148:	ea000021 	b	121d4 <crc16_ccitt+0xac>
   1214c:	e51b3010 	ldr	r3, [fp, #-16]
   12150:	e2832001 	add	r2, r3, #1
   12154:	e50b2010 	str	r2, [fp, #-16]
   12158:	e5d33000 	ldrb	r3, [r3]
   1215c:	e1a03403 	lsl	r3, r3, #8
   12160:	e6ff2073 	uxth	r2, r3
   12164:	e15b30b8 	ldrh	r3, [fp, #-8]
   12168:	e0223003 	eor	r3, r2, r3
   1216c:	e6ff3073 	uxth	r3, r3
   12170:	e14b30b8 	strh	r3, [fp, #-8]
   12174:	e3a03000 	mov	r3, #0
   12178:	e54b3005 	strb	r3, [fp, #-5]
   1217c:	ea000011 	b	121c8 <crc16_ccitt+0xa0>
   12180:	e15b30b8 	ldrh	r3, [fp, #-8]
   12184:	e6bf3073 	sxth	r3, r3
   12188:	e3530000 	cmp	r3, #0
   1218c:	aa000007 	bge	121b0 <crc16_ccitt+0x88>
   12190:	e15b30b8 	ldrh	r3, [fp, #-8]
   12194:	e1a03083 	lsl	r3, r3, #1
   12198:	e6ff3073 	uxth	r3, r3
   1219c:	e2233a01 	eor	r3, r3, #4096	; 0x1000
   121a0:	e2233021 	eor	r3, r3, #33	; 0x21
   121a4:	e6ff3073 	uxth	r3, r3
   121a8:	e14b30b8 	strh	r3, [fp, #-8]
   121ac:	ea000002 	b	121bc <crc16_ccitt+0x94>
   121b0:	e15b30b8 	ldrh	r3, [fp, #-8]
   121b4:	e1a03083 	lsl	r3, r3, #1
   121b8:	e14b30b8 	strh	r3, [fp, #-8]
   121bc:	e55b3005 	ldrb	r3, [fp, #-5]
   121c0:	e2833001 	add	r3, r3, #1
   121c4:	e54b3005 	strb	r3, [fp, #-5]
   121c8:	e55b3005 	ldrb	r3, [fp, #-5]
   121cc:	e3530007 	cmp	r3, #7
   121d0:	9affffea 	bls	12180 <crc16_ccitt+0x58>
   121d4:	e15b31b2 	ldrh	r3, [fp, #-18]	; 0xffffffee
   121d8:	e2432001 	sub	r2, r3, #1
   121dc:	e14b21b2 	strh	r2, [fp, #-18]	; 0xffffffee
   121e0:	e3530000 	cmp	r3, #0
   121e4:	1affffd8 	bne	1214c <crc16_ccitt+0x24>
   121e8:	e15b30b8 	ldrh	r3, [fp, #-8]
   121ec:	e1a00003 	mov	r0, r3
   121f0:	e24bd000 	sub	sp, fp, #0
   121f4:	e49db004 	pop	{fp}		; (ldr fp, [sp], #4)
   121f8:	e12fff1e 	bx	lr

000121fc <SetGPIOFunction>:
   121fc:	e52db004 	push	{fp}		; (str fp, [sp, #-4]!)
   12200:	e28db000 	add	fp, sp, #0
   12204:	e24dd024 	sub	sp, sp, #36	; 0x24
   12208:	e50b0020 	str	r0, [fp, #-32]
   1220c:	e50b1024 	str	r1, [fp, #-36]	; 0x24
   12210:	e51b2020 	ldr	r2, [fp, #-32]
   12214:	e59f30b4 	ldr	r3, [pc, #180]	; 122d0 <SetGPIOFunction+0xd4>
   12218:	e0831293 	umull	r1, r3, r3, r2
   1221c:	e1a031a3 	lsr	r3, r3, #3
   12220:	e50b3008 	str	r3, [fp, #-8]
   12224:	e51b1020 	ldr	r1, [fp, #-32]
   12228:	e59f30a0 	ldr	r3, [pc, #160]	; 122d0 <SetGPIOFunction+0xd4>
   1222c:	e0832193 	umull	r2, r3, r3, r1
   12230:	e1a021a3 	lsr	r2, r3, #3
   12234:	e1a03002 	mov	r3, r2
   12238:	e1a03103 	lsl	r3, r3, #2
   1223c:	e0833002 	add	r3, r3, r2
   12240:	e1a03083 	lsl	r3, r3, #1
   12244:	e0632001 	rsb	r2, r3, r1
   12248:	e1a03002 	mov	r3, r2
   1224c:	e1a03083 	lsl	r3, r3, #1
   12250:	e0833002 	add	r3, r3, r2
   12254:	e50b300c 	str	r3, [fp, #-12]
   12258:	e59f3074 	ldr	r3, [pc, #116]	; 122d4 <SetGPIOFunction+0xd8>
   1225c:	e50b3010 	str	r3, [fp, #-16]
   12260:	e51b3008 	ldr	r3, [fp, #-8]
   12264:	e1a03103 	lsl	r3, r3, #2
   12268:	e51b2010 	ldr	r2, [fp, #-16]
   1226c:	e0823003 	add	r3, r2, r3
   12270:	e5933000 	ldr	r3, [r3]
   12274:	e50b3014 	str	r3, [fp, #-20]
   12278:	e51b300c 	ldr	r3, [fp, #-12]
   1227c:	e3a02007 	mov	r2, #7
   12280:	e1a03312 	lsl	r3, r2, r3
   12284:	e50b3018 	str	r3, [fp, #-24]
   12288:	e51b3008 	ldr	r3, [fp, #-8]
   1228c:	e1a03103 	lsl	r3, r3, #2
   12290:	e51b2010 	ldr	r2, [fp, #-16]
   12294:	e0823003 	add	r3, r2, r3
   12298:	e51b2018 	ldr	r2, [fp, #-24]
   1229c:	e1e01002 	mvn	r1, r2
   122a0:	e51b2014 	ldr	r2, [fp, #-20]
   122a4:	e0011002 	and	r1, r1, r2
   122a8:	e51b200c 	ldr	r2, [fp, #-12]
   122ac:	e51b0024 	ldr	r0, [fp, #-36]	; 0x24
   122b0:	e1a00210 	lsl	r0, r0, r2
   122b4:	e51b2018 	ldr	r2, [fp, #-24]
   122b8:	e0002002 	and	r2, r0, r2
   122bc:	e1812002 	orr	r2, r1, r2
   122c0:	e5832000 	str	r2, [r3]
   122c4:	e24bd000 	sub	sp, fp, #0
   122c8:	e49db004 	pop	{fp}		; (ldr fp, [sp], #4)
   122cc:	e12fff1e 	bx	lr
   122d0:	cccccccd 	stclgt	12, cr12, [ip], {205}	; 0xcd
   122d4:	20200000 	eorcs	r0, r0, r0

000122d8 <initJTAG>:
   122d8:	e92d4800 	push	{fp, lr}
   122dc:	e28db004 	add	fp, sp, #4
   122e0:	e3a00016 	mov	r0, #22
   122e4:	e3a01003 	mov	r1, #3
   122e8:	ebffffc3 	bl	121fc <SetGPIOFunction>
   122ec:	e3a00017 	mov	r0, #23
   122f0:	e3a01003 	mov	r1, #3
   122f4:	ebffffc0 	bl	121fc <SetGPIOFunction>
   122f8:	e3a00018 	mov	r0, #24
   122fc:	e3a01003 	mov	r1, #3
   12300:	ebffffbd 	bl	121fc <SetGPIOFunction>
   12304:	e3a00019 	mov	r0, #25
   12308:	e3a01003 	mov	r1, #3
   1230c:	ebffffba 	bl	121fc <SetGPIOFunction>
   12310:	e3a0001a 	mov	r0, #26
   12314:	e3a01003 	mov	r1, #3
   12318:	ebffffb7 	bl	121fc <SetGPIOFunction>
   1231c:	e3a0001b 	mov	r0, #27
   12320:	e3a01003 	mov	r1, #3
   12324:	ebffffb4 	bl	121fc <SetGPIOFunction>
   12328:	e8bd8800 	pop	{fp, pc}

0001232c <dev_init>:
   1232c:	e92d4800 	push	{fp, lr}
   12330:	e28db004 	add	fp, sp, #4
   12334:	e59f000c 	ldr	r0, [pc, #12]	; 12348 <dev_init+0x1c>
   12338:	e3a01c06 	mov	r1, #1536	; 0x600
   1233c:	e3a02000 	mov	r2, #0
   12340:	eb001d83 	bl	19954 <memset>
   12344:	e8bd8800 	pop	{fp, pc}
   12348:	0001ae7c 	andeq	sl, r1, ip, ror lr

0001234c <dev_reg>:
   1234c:	e24dd010 	sub	sp, sp, #16
   12350:	e92d4800 	push	{fp, lr}
   12354:	e28db004 	add	fp, sp, #4
   12358:	e24dd010 	sub	sp, sp, #16
   1235c:	e28bc004 	add	ip, fp, #4
   12360:	e88c000f 	stm	ip, {r0, r1, r2, r3}
   12364:	eb000190 	bl	129ac <OS_CPU_SR_Save>
   12368:	e1a03000 	mov	r3, r0
   1236c:	e50b3010 	str	r3, [fp, #-16]
   12370:	e3a03000 	mov	r3, #0
   12374:	e50b3008 	str	r3, [fp, #-8]
   12378:	e3a03000 	mov	r3, #0
   1237c:	e50b300c 	str	r3, [fp, #-12]
   12380:	ea000017 	b	123e4 <dev_reg+0x98>
   12384:	e59f0108 	ldr	r0, [pc, #264]	; 12494 <dev_reg+0x148>
   12388:	e51b200c 	ldr	r2, [fp, #-12]
   1238c:	e3a01010 	mov	r1, #16
   12390:	e1a03002 	mov	r3, r2
   12394:	e1a03083 	lsl	r3, r3, #1
   12398:	e0833002 	add	r3, r3, r2
   1239c:	e1a03183 	lsl	r3, r3, #3
   123a0:	e0803003 	add	r3, r0, r3
   123a4:	e0833001 	add	r3, r3, r1
   123a8:	e5933000 	ldr	r3, [r3]
   123ac:	e3530000 	cmp	r3, #0
   123b0:	1a000008 	bne	123d8 <dev_reg+0x8c>
   123b4:	e51b200c 	ldr	r2, [fp, #-12]
   123b8:	e1a03002 	mov	r3, r2
   123bc:	e1a03083 	lsl	r3, r3, #1
   123c0:	e0833002 	add	r3, r3, r2
   123c4:	e1a03183 	lsl	r3, r3, #3
   123c8:	e59f20c4 	ldr	r2, [pc, #196]	; 12494 <dev_reg+0x148>
   123cc:	e0833002 	add	r3, r3, r2
   123d0:	e50b3008 	str	r3, [fp, #-8]
   123d4:	ea000005 	b	123f0 <dev_reg+0xa4>
   123d8:	e51b300c 	ldr	r3, [fp, #-12]
   123dc:	e2833001 	add	r3, r3, #1
   123e0:	e50b300c 	str	r3, [fp, #-12]
   123e4:	e51b300c 	ldr	r3, [fp, #-12]
   123e8:	e353003f 	cmp	r3, #63	; 0x3f
   123ec:	9affffe4 	bls	12384 <dev_reg+0x38>
   123f0:	e51b3008 	ldr	r3, [fp, #-8]
   123f4:	e3530000 	cmp	r3, #0
   123f8:	1a000003 	bne	1240c <dev_reg+0xc0>
   123fc:	e51b0010 	ldr	r0, [fp, #-16]
   12400:	eb000171 	bl	129cc <OS_CPU_SR_Restore>
   12404:	e3a03001 	mov	r3, #1
   12408:	ea00001c 	b	12480 <dev_reg+0x134>
   1240c:	e59b3014 	ldr	r3, [fp, #20]
   12410:	e3530000 	cmp	r3, #0
   12414:	0a000016 	beq	12474 <dev_reg+0x128>
   12418:	e59b300c 	ldr	r3, [fp, #12]
   1241c:	e3530000 	cmp	r3, #0
   12420:	0a000013 	beq	12474 <dev_reg+0x128>
   12424:	e59b3004 	ldr	r3, [fp, #4]
   12428:	e3530000 	cmp	r3, #0
   1242c:	0a000010 	beq	12474 <dev_reg+0x128>
   12430:	e59b3010 	ldr	r3, [fp, #16]
   12434:	e3530000 	cmp	r3, #0
   12438:	0a00000d 	beq	12474 <dev_reg+0x128>
   1243c:	e59b3008 	ldr	r3, [fp, #8]
   12440:	e3530000 	cmp	r3, #0
   12444:	0a00000a 	beq	12474 <dev_reg+0x128>
   12448:	e51b3008 	ldr	r3, [fp, #-8]
   1244c:	e1a0c003 	mov	ip, r3
   12450:	e28be004 	add	lr, fp, #4
   12454:	e8be000f 	ldm	lr!, {r0, r1, r2, r3}
   12458:	e8ac000f 	stmia	ip!, {r0, r1, r2, r3}
   1245c:	e89e0003 	ldm	lr, {r0, r1}
   12460:	e88c0003 	stm	ip, {r0, r1}
   12464:	e51b0010 	ldr	r0, [fp, #-16]
   12468:	eb000157 	bl	129cc <OS_CPU_SR_Restore>
   1246c:	e3a03000 	mov	r3, #0
   12470:	ea000002 	b	12480 <dev_reg+0x134>
   12474:	e51b0010 	ldr	r0, [fp, #-16]
   12478:	eb000153 	bl	129cc <OS_CPU_SR_Restore>
   1247c:	e3a03001 	mov	r3, #1
   12480:	e1a00003 	mov	r0, r3
   12484:	e24bd004 	sub	sp, fp, #4
   12488:	e8bd4800 	pop	{fp, lr}
   1248c:	e28dd010 	add	sp, sp, #16
   12490:	e12fff1e 	bx	lr
   12494:	0001ae7c 	andeq	sl, r1, ip, ror lr

00012498 <dev_read>:
   12498:	e92d4800 	push	{fp, lr}
   1249c:	e28db004 	add	fp, sp, #4
   124a0:	e24dd010 	sub	sp, sp, #16
   124a4:	e50b0008 	str	r0, [fp, #-8]
   124a8:	e50b100c 	str	r1, [fp, #-12]
   124ac:	e50b2010 	str	r2, [fp, #-16]
   124b0:	e50b3014 	str	r3, [fp, #-20]
   124b4:	e51b3008 	ldr	r3, [fp, #-8]
   124b8:	e353003f 	cmp	r3, #63	; 0x3f
   124bc:	9a000001 	bls	124c8 <dev_read+0x30>
   124c0:	e3a03043 	mov	r3, #67	; 0x43
   124c4:	ea00001b 	b	12538 <dev_read+0xa0>
   124c8:	e59f0074 	ldr	r0, [pc, #116]	; 12544 <dev_read+0xac>
   124cc:	e51b2008 	ldr	r2, [fp, #-8]
   124d0:	e3a01010 	mov	r1, #16
   124d4:	e1a03002 	mov	r3, r2
   124d8:	e1a03083 	lsl	r3, r3, #1
   124dc:	e0833002 	add	r3, r3, r2
   124e0:	e1a03183 	lsl	r3, r3, #3
   124e4:	e0803003 	add	r3, r0, r3
   124e8:	e0833001 	add	r3, r3, r1
   124ec:	e5933000 	ldr	r3, [r3]
   124f0:	e3530000 	cmp	r3, #0
   124f4:	1a000001 	bne	12500 <dev_read+0x68>
   124f8:	e3a03042 	mov	r3, #66	; 0x42
   124fc:	ea00000d 	b	12538 <dev_read+0xa0>
   12500:	e59f103c 	ldr	r1, [pc, #60]	; 12544 <dev_read+0xac>
   12504:	e51b2008 	ldr	r2, [fp, #-8]
   12508:	e1a03002 	mov	r3, r2
   1250c:	e1a03083 	lsl	r3, r3, #1
   12510:	e0833002 	add	r3, r3, r2
   12514:	e1a03183 	lsl	r3, r3, #3
   12518:	e0813003 	add	r3, r1, r3
   1251c:	e593c000 	ldr	ip, [r3]
   12520:	e51b000c 	ldr	r0, [fp, #-12]
   12524:	e51b1010 	ldr	r1, [fp, #-16]
   12528:	e51b2014 	ldr	r2, [fp, #-20]
   1252c:	e59b3004 	ldr	r3, [fp, #4]
   12530:	e12fff3c 	blx	ip
   12534:	e1a03000 	mov	r3, r0
   12538:	e1a00003 	mov	r0, r3
   1253c:	e24bd004 	sub	sp, fp, #4
   12540:	e8bd8800 	pop	{fp, pc}
   12544:	0001ae7c 	andeq	sl, r1, ip, ror lr

00012548 <dev_write>:
   12548:	e92d4800 	push	{fp, lr}
   1254c:	e28db004 	add	fp, sp, #4
   12550:	e24dd010 	sub	sp, sp, #16
   12554:	e50b0008 	str	r0, [fp, #-8]
   12558:	e50b100c 	str	r1, [fp, #-12]
   1255c:	e50b2010 	str	r2, [fp, #-16]
   12560:	e50b3014 	str	r3, [fp, #-20]
   12564:	e51b3008 	ldr	r3, [fp, #-8]
   12568:	e353003f 	cmp	r3, #63	; 0x3f
   1256c:	9a000001 	bls	12578 <dev_write+0x30>
   12570:	e3a03043 	mov	r3, #67	; 0x43
   12574:	ea00001b 	b	125e8 <dev_write+0xa0>
   12578:	e59f0074 	ldr	r0, [pc, #116]	; 125f4 <dev_write+0xac>
   1257c:	e51b2008 	ldr	r2, [fp, #-8]
   12580:	e3a01010 	mov	r1, #16
   12584:	e1a03002 	mov	r3, r2
   12588:	e1a03083 	lsl	r3, r3, #1
   1258c:	e0833002 	add	r3, r3, r2
   12590:	e1a03183 	lsl	r3, r3, #3
   12594:	e0803003 	add	r3, r0, r3
   12598:	e0833001 	add	r3, r3, r1
   1259c:	e5933000 	ldr	r3, [r3]
   125a0:	e3530000 	cmp	r3, #0
   125a4:	1a000001 	bne	125b0 <dev_write+0x68>
   125a8:	e3a03042 	mov	r3, #66	; 0x42
   125ac:	ea00000d 	b	125e8 <dev_write+0xa0>
   125b0:	e59f103c 	ldr	r1, [pc, #60]	; 125f4 <dev_write+0xac>
   125b4:	e51b2008 	ldr	r2, [fp, #-8]
   125b8:	e1a03002 	mov	r3, r2
   125bc:	e1a03083 	lsl	r3, r3, #1
   125c0:	e0833002 	add	r3, r3, r2
   125c4:	e1a03183 	lsl	r3, r3, #3
   125c8:	e0813003 	add	r3, r1, r3
   125cc:	e593c004 	ldr	ip, [r3, #4]
   125d0:	e51b000c 	ldr	r0, [fp, #-12]
   125d4:	e51b1010 	ldr	r1, [fp, #-16]
   125d8:	e51b2014 	ldr	r2, [fp, #-20]
   125dc:	e59b3004 	ldr	r3, [fp, #4]
   125e0:	e12fff3c 	blx	ip
   125e4:	e1a03000 	mov	r3, r0
   125e8:	e1a00003 	mov	r0, r3
   125ec:	e24bd004 	sub	sp, fp, #4
   125f0:	e8bd8800 	pop	{fp, pc}
   125f4:	0001ae7c 	andeq	sl, r1, ip, ror lr

000125f8 <dev_open>:
   125f8:	e92d4800 	push	{fp, lr}
   125fc:	e28db004 	add	fp, sp, #4
   12600:	e24dd018 	sub	sp, sp, #24
   12604:	e50b0010 	str	r0, [fp, #-16]
   12608:	e50b1014 	str	r1, [fp, #-20]
   1260c:	e50b2018 	str	r2, [fp, #-24]
   12610:	eb0000e5 	bl	129ac <OS_CPU_SR_Save>
   12614:	e1a03000 	mov	r3, r0
   12618:	e50b300c 	str	r3, [fp, #-12]
   1261c:	e3a03000 	mov	r3, #0
   12620:	e50b3008 	str	r3, [fp, #-8]
   12624:	ea000033 	b	126f8 <dev_open+0x100>
   12628:	e59f00ec 	ldr	r0, [pc, #236]	; 1271c <dev_open+0x124>
   1262c:	e51b2008 	ldr	r2, [fp, #-8]
   12630:	e3a01010 	mov	r1, #16
   12634:	e1a03002 	mov	r3, r2
   12638:	e1a03083 	lsl	r3, r3, #1
   1263c:	e0833002 	add	r3, r3, r2
   12640:	e1a03183 	lsl	r3, r3, #3
   12644:	e0803003 	add	r3, r0, r3
   12648:	e0833001 	add	r3, r3, r1
   1264c:	e5933000 	ldr	r3, [r3]
   12650:	e51b0010 	ldr	r0, [fp, #-16]
   12654:	e1a01003 	mov	r1, r3
   12658:	eb001cfb 	bl	19a4c <strcmp>
   1265c:	e1a03000 	mov	r3, r0
   12660:	e3530000 	cmp	r3, #0
   12664:	1a000020 	bne	126ec <dev_open+0xf4>
   12668:	e59f00ac 	ldr	r0, [pc, #172]	; 1271c <dev_open+0x124>
   1266c:	e51b2008 	ldr	r2, [fp, #-8]
   12670:	e3a01010 	mov	r1, #16
   12674:	e1a03002 	mov	r3, r2
   12678:	e1a03083 	lsl	r3, r3, #1
   1267c:	e0833002 	add	r3, r3, r2
   12680:	e1a03183 	lsl	r3, r3, #3
   12684:	e0803003 	add	r3, r0, r3
   12688:	e0833001 	add	r3, r3, r1
   1268c:	e5933004 	ldr	r3, [r3, #4]
   12690:	e3530001 	cmp	r3, #1
   12694:	1a000003 	bne	126a8 <dev_open+0xb0>
   12698:	e51b000c 	ldr	r0, [fp, #-12]
   1269c:	eb0000ca 	bl	129cc <OS_CPU_SR_Restore>
   126a0:	e3a03001 	mov	r3, #1
   126a4:	ea000019 	b	12710 <dev_open+0x118>
   126a8:	e51b000c 	ldr	r0, [fp, #-12]
   126ac:	eb0000c6 	bl	129cc <OS_CPU_SR_Restore>
   126b0:	e59f0064 	ldr	r0, [pc, #100]	; 1271c <dev_open+0x124>
   126b4:	e51b2008 	ldr	r2, [fp, #-8]
   126b8:	e3a01008 	mov	r1, #8
   126bc:	e1a03002 	mov	r3, r2
   126c0:	e1a03083 	lsl	r3, r3, #1
   126c4:	e0833002 	add	r3, r3, r2
   126c8:	e1a03183 	lsl	r3, r3, #3
   126cc:	e0803003 	add	r3, r0, r3
   126d0:	e0833001 	add	r3, r3, r1
   126d4:	e5933000 	ldr	r3, [r3]
   126d8:	e51b0014 	ldr	r0, [fp, #-20]
   126dc:	e51b1018 	ldr	r1, [fp, #-24]
   126e0:	e12fff33 	blx	r3
   126e4:	e51b3008 	ldr	r3, [fp, #-8]
   126e8:	ea000008 	b	12710 <dev_open+0x118>
   126ec:	e51b3008 	ldr	r3, [fp, #-8]
   126f0:	e2833001 	add	r3, r3, #1
   126f4:	e50b3008 	str	r3, [fp, #-8]
   126f8:	e51b3008 	ldr	r3, [fp, #-8]
   126fc:	e353003f 	cmp	r3, #63	; 0x3f
   12700:	9affffc8 	bls	12628 <dev_open+0x30>
   12704:	e51b000c 	ldr	r0, [fp, #-12]
   12708:	eb0000af 	bl	129cc <OS_CPU_SR_Restore>
   1270c:	e3a03001 	mov	r3, #1
   12710:	e1a00003 	mov	r0, r3
   12714:	e24bd004 	sub	sp, fp, #4
   12718:	e8bd8800 	pop	{fp, pc}
   1271c:	0001ae7c 	andeq	sl, r1, ip, ror lr

00012720 <dev_close>:
   12720:	e92d4800 	push	{fp, lr}
   12724:	e28db004 	add	fp, sp, #4
   12728:	e24dd010 	sub	sp, sp, #16
   1272c:	e50b0010 	str	r0, [fp, #-16]
   12730:	eb00009d 	bl	129ac <OS_CPU_SR_Save>
   12734:	e1a03000 	mov	r3, r0
   12738:	e50b3008 	str	r3, [fp, #-8]
   1273c:	e59f00d8 	ldr	r0, [pc, #216]	; 1281c <dev_close+0xfc>
   12740:	e51b2010 	ldr	r2, [fp, #-16]
   12744:	e3a01010 	mov	r1, #16
   12748:	e1a03002 	mov	r3, r2
   1274c:	e1a03083 	lsl	r3, r3, #1
   12750:	e0833002 	add	r3, r3, r2
   12754:	e1a03183 	lsl	r3, r3, #3
   12758:	e0803003 	add	r3, r0, r3
   1275c:	e0833001 	add	r3, r3, r1
   12760:	e5933000 	ldr	r3, [r3]
   12764:	e3530000 	cmp	r3, #0
   12768:	1a000001 	bne	12774 <dev_close+0x54>
   1276c:	e3a03042 	mov	r3, #66	; 0x42
   12770:	ea000026 	b	12810 <dev_close+0xf0>
   12774:	e59f00a0 	ldr	r0, [pc, #160]	; 1281c <dev_close+0xfc>
   12778:	e51b2010 	ldr	r2, [fp, #-16]
   1277c:	e3a01010 	mov	r1, #16
   12780:	e1a03002 	mov	r3, r2
   12784:	e1a03083 	lsl	r3, r3, #1
   12788:	e0833002 	add	r3, r3, r2
   1278c:	e1a03183 	lsl	r3, r3, #3
   12790:	e0803003 	add	r3, r0, r3
   12794:	e0833001 	add	r3, r3, r1
   12798:	e5933004 	ldr	r3, [r3, #4]
   1279c:	e3530000 	cmp	r3, #0
   127a0:	1a000001 	bne	127ac <dev_close+0x8c>
   127a4:	e3a03044 	mov	r3, #68	; 0x44
   127a8:	ea000018 	b	12810 <dev_close+0xf0>
   127ac:	e59f0068 	ldr	r0, [pc, #104]	; 1281c <dev_close+0xfc>
   127b0:	e51b2010 	ldr	r2, [fp, #-16]
   127b4:	e3a01010 	mov	r1, #16
   127b8:	e1a03002 	mov	r3, r2
   127bc:	e1a03083 	lsl	r3, r3, #1
   127c0:	e0833002 	add	r3, r3, r2
   127c4:	e1a03183 	lsl	r3, r3, #3
   127c8:	e0803003 	add	r3, r0, r3
   127cc:	e0833001 	add	r3, r3, r1
   127d0:	e3a02001 	mov	r2, #1
   127d4:	e5832004 	str	r2, [r3, #4]
   127d8:	e59f003c 	ldr	r0, [pc, #60]	; 1281c <dev_close+0xfc>
   127dc:	e51b2010 	ldr	r2, [fp, #-16]
   127e0:	e3a01008 	mov	r1, #8
   127e4:	e1a03002 	mov	r3, r2
   127e8:	e1a03083 	lsl	r3, r3, #1
   127ec:	e0833002 	add	r3, r3, r2
   127f0:	e1a03183 	lsl	r3, r3, #3
   127f4:	e0803003 	add	r3, r0, r3
   127f8:	e0833001 	add	r3, r3, r1
   127fc:	e5933004 	ldr	r3, [r3, #4]
   12800:	e12fff33 	blx	r3
   12804:	e51b0008 	ldr	r0, [fp, #-8]
   12808:	eb00006f 	bl	129cc <OS_CPU_SR_Restore>
   1280c:	e3a03000 	mov	r3, #0
   12810:	e1a00003 	mov	r0, r3
   12814:	e24bd004 	sub	sp, fp, #4
   12818:	e8bd8800 	pop	{fp, pc}
   1281c:	0001ae7c 	andeq	sl, r1, ip, ror lr

00012820 <OSCtxSw>:
   12820:	e52de004 	push	{lr}		; (str lr, [sp, #-4]!)
   12824:	e52de004 	push	{lr}		; (str lr, [sp, #-4]!)
   12828:	e52dc004 	push	{ip}		; (str ip, [sp, #-4]!)
   1282c:	e52db004 	push	{fp}		; (str fp, [sp, #-4]!)
   12830:	e52da004 	push	{sl}		; (str sl, [sp, #-4]!)
   12834:	e52d9004 	push	{r9}		; (str r9, [sp, #-4]!)
   12838:	e52d8004 	push	{r8}		; (str r8, [sp, #-4]!)
   1283c:	e52d7004 	push	{r7}		; (str r7, [sp, #-4]!)
   12840:	e52d6004 	push	{r6}		; (str r6, [sp, #-4]!)
   12844:	e52d5004 	push	{r5}		; (str r5, [sp, #-4]!)
   12848:	e52d4004 	push	{r4}		; (str r4, [sp, #-4]!)
   1284c:	e52d3004 	push	{r3}		; (str r3, [sp, #-4]!)
   12850:	e52d2004 	push	{r2}		; (str r2, [sp, #-4]!)
   12854:	e52d1004 	push	{r1}		; (str r1, [sp, #-4]!)
   12858:	e52d0004 	push	{r0}		; (str r0, [sp, #-4]!)
   1285c:	e10f4000 	mrs	r4, CPSR
   12860:	e52d4004 	push	{r4}		; (str r4, [sp, #-4]!)
   12864:	e59f424c 	ldr	r4, [pc, #588]	; 12ab8 <OS_CPU_IRQ_ISR_1+0x54>
   12868:	e5945000 	ldr	r5, [r4]
   1286c:	e585d000 	str	sp, [r5]
   12870:	eb00011c 	bl	12ce8 <OSTaskSwHook>
   12874:	e59f4240 	ldr	r4, [pc, #576]	; 12abc <OS_CPU_IRQ_ISR_1+0x58>
   12878:	e59f5240 	ldr	r5, [pc, #576]	; 12ac0 <OS_CPU_IRQ_ISR_1+0x5c>
   1287c:	e5d56000 	ldrb	r6, [r5]
   12880:	e5c46000 	strb	r6, [r4]
   12884:	e59f422c 	ldr	r4, [pc, #556]	; 12ab8 <OS_CPU_IRQ_ISR_1+0x54>
   12888:	e59f6234 	ldr	r6, [pc, #564]	; 12ac4 <OS_CPU_IRQ_ISR_1+0x60>
   1288c:	e5966000 	ldr	r6, [r6]
   12890:	e5846000 	str	r6, [r4]
   12894:	e596d000 	ldr	sp, [r6]
   12898:	e49d4004 	pop	{r4}		; (ldr r4, [sp], #4)
   1289c:	e12ff004 	msr	CPSR_fsxc, r4
   128a0:	e49d0004 	pop	{r0}		; (ldr r0, [sp], #4)
   128a4:	e49d1004 	pop	{r1}		; (ldr r1, [sp], #4)
   128a8:	e49d2004 	pop	{r2}		; (ldr r2, [sp], #4)
   128ac:	e49d3004 	pop	{r3}		; (ldr r3, [sp], #4)
   128b0:	e49d4004 	pop	{r4}		; (ldr r4, [sp], #4)
   128b4:	e49d5004 	pop	{r5}		; (ldr r5, [sp], #4)
   128b8:	e49d6004 	pop	{r6}		; (ldr r6, [sp], #4)
   128bc:	e49d7004 	pop	{r7}		; (ldr r7, [sp], #4)
   128c0:	e49d8004 	pop	{r8}		; (ldr r8, [sp], #4)
   128c4:	e49d9004 	pop	{r9}		; (ldr r9, [sp], #4)
   128c8:	e49da004 	pop	{sl}		; (ldr sl, [sp], #4)
   128cc:	e49db004 	pop	{fp}		; (ldr fp, [sp], #4)
   128d0:	e49dc004 	pop	{ip}		; (ldr ip, [sp], #4)
   128d4:	e49de004 	pop	{lr}		; (ldr lr, [sp], #4)
   128d8:	e49df004 	pop	{pc}		; (ldr pc, [sp], #4)

000128dc <OSIntCtxSw>:
   128dc:	eb000101 	bl	12ce8 <OSTaskSwHook>
   128e0:	e59f41d4 	ldr	r4, [pc, #468]	; 12abc <OS_CPU_IRQ_ISR_1+0x58>
   128e4:	e59f51d4 	ldr	r5, [pc, #468]	; 12ac0 <OS_CPU_IRQ_ISR_1+0x5c>
   128e8:	e5d56000 	ldrb	r6, [r5]
   128ec:	e5c46000 	strb	r6, [r4]
   128f0:	e59f41c0 	ldr	r4, [pc, #448]	; 12ab8 <OS_CPU_IRQ_ISR_1+0x54>
   128f4:	e59f61c8 	ldr	r6, [pc, #456]	; 12ac4 <OS_CPU_IRQ_ISR_1+0x60>
   128f8:	e5966000 	ldr	r6, [r6]
   128fc:	e5846000 	str	r6, [r4]
   12900:	e596d000 	ldr	sp, [r6]
   12904:	e49d4004 	pop	{r4}		; (ldr r4, [sp], #4)
   12908:	e12ff004 	msr	CPSR_fsxc, r4
   1290c:	e49d0004 	pop	{r0}		; (ldr r0, [sp], #4)
   12910:	e49d1004 	pop	{r1}		; (ldr r1, [sp], #4)
   12914:	e49d2004 	pop	{r2}		; (ldr r2, [sp], #4)
   12918:	e49d3004 	pop	{r3}		; (ldr r3, [sp], #4)
   1291c:	e49d4004 	pop	{r4}		; (ldr r4, [sp], #4)
   12920:	e49d5004 	pop	{r5}		; (ldr r5, [sp], #4)
   12924:	e49d6004 	pop	{r6}		; (ldr r6, [sp], #4)
   12928:	e49d7004 	pop	{r7}		; (ldr r7, [sp], #4)
   1292c:	e49d8004 	pop	{r8}		; (ldr r8, [sp], #4)
   12930:	e49d9004 	pop	{r9}		; (ldr r9, [sp], #4)
   12934:	e49da004 	pop	{sl}		; (ldr sl, [sp], #4)
   12938:	e49db004 	pop	{fp}		; (ldr fp, [sp], #4)
   1293c:	e49dc004 	pop	{ip}		; (ldr ip, [sp], #4)
   12940:	e49de004 	pop	{lr}		; (ldr lr, [sp], #4)
   12944:	e49df004 	pop	{pc}		; (ldr pc, [sp], #4)

00012948 <OSStartHighRdy>:
   12948:	e32ff0df 	msr	CPSR_fsxc, #223	; 0xdf
   1294c:	eb0000e5 	bl	12ce8 <OSTaskSwHook>
   12950:	e59f4170 	ldr	r4, [pc, #368]	; 12ac8 <OS_CPU_IRQ_ISR_1+0x64>
   12954:	e3a05001 	mov	r5, #1
   12958:	e5c45000 	strb	r5, [r4]
   1295c:	e59f4160 	ldr	r4, [pc, #352]	; 12ac4 <OS_CPU_IRQ_ISR_1+0x60>
   12960:	e5944000 	ldr	r4, [r4]
   12964:	e594d000 	ldr	sp, [r4]
   12968:	e49d4004 	pop	{r4}		; (ldr r4, [sp], #4)
   1296c:	e12ff004 	msr	CPSR_fsxc, r4
   12970:	e49d0004 	pop	{r0}		; (ldr r0, [sp], #4)
   12974:	e49d1004 	pop	{r1}		; (ldr r1, [sp], #4)
   12978:	e49d2004 	pop	{r2}		; (ldr r2, [sp], #4)
   1297c:	e49d3004 	pop	{r3}		; (ldr r3, [sp], #4)
   12980:	e49d4004 	pop	{r4}		; (ldr r4, [sp], #4)
   12984:	e49d5004 	pop	{r5}		; (ldr r5, [sp], #4)
   12988:	e49d6004 	pop	{r6}		; (ldr r6, [sp], #4)
   1298c:	e49d7004 	pop	{r7}		; (ldr r7, [sp], #4)
   12990:	e49d8004 	pop	{r8}		; (ldr r8, [sp], #4)
   12994:	e49d9004 	pop	{r9}		; (ldr r9, [sp], #4)
   12998:	e49da004 	pop	{sl}		; (ldr sl, [sp], #4)
   1299c:	e49db004 	pop	{fp}		; (ldr fp, [sp], #4)
   129a0:	e49dc004 	pop	{ip}		; (ldr ip, [sp], #4)
   129a4:	e49de004 	pop	{lr}		; (ldr lr, [sp], #4)
   129a8:	e49df004 	pop	{pc}		; (ldr pc, [sp], #4)

000129ac <OS_CPU_SR_Save>:
   129ac:	e10f0000 	mrs	r0, CPSR
   129b0:	e38010c0 	orr	r1, r0, #192	; 0xc0
   129b4:	e121f001 	msr	CPSR_c, r1
   129b8:	e10f1000 	mrs	r1, CPSR
   129bc:	e20110c0 	and	r1, r1, #192	; 0xc0
   129c0:	e35100c0 	cmp	r1, #192	; 0xc0
   129c4:	1afffff8 	bne	129ac <OS_CPU_SR_Save>
   129c8:	e1a0f00e 	mov	pc, lr

000129cc <OS_CPU_SR_Restore>:
   129cc:	e121f000 	msr	CPSR_c, r0
   129d0:	e1a0f00e 	mov	pc, lr

000129d4 <OS_CPU_IRQ_ISR>:
   129d4:	e52d3004 	push	{r3}		; (str r3, [sp, #-4]!)
   129d8:	e52d2004 	push	{r2}		; (str r2, [sp, #-4]!)
   129dc:	e52d1004 	push	{r1}		; (str r1, [sp, #-4]!)
   129e0:	e1a0100d 	mov	r1, sp
   129e4:	e28dd00c 	add	sp, sp, #12
   129e8:	e24e2004 	sub	r2, lr, #4
   129ec:	e14f3000 	mrs	r3, SPSR
   129f0:	e321f0df 	msr	CPSR_c, #223	; 0xdf
   129f4:	e52d2004 	push	{r2}		; (str r2, [sp, #-4]!)
   129f8:	e52de004 	push	{lr}		; (str lr, [sp, #-4]!)
   129fc:	e52dc004 	push	{ip}		; (str ip, [sp, #-4]!)
   12a00:	e52db004 	push	{fp}		; (str fp, [sp, #-4]!)
   12a04:	e52da004 	push	{sl}		; (str sl, [sp, #-4]!)
   12a08:	e52d9004 	push	{r9}		; (str r9, [sp, #-4]!)
   12a0c:	e52d8004 	push	{r8}		; (str r8, [sp, #-4]!)
   12a10:	e52d7004 	push	{r7}		; (str r7, [sp, #-4]!)
   12a14:	e52d6004 	push	{r6}		; (str r6, [sp, #-4]!)
   12a18:	e52d5004 	push	{r5}		; (str r5, [sp, #-4]!)
   12a1c:	e52d4004 	push	{r4}		; (str r4, [sp, #-4]!)
   12a20:	e4914004 	ldr	r4, [r1], #4
   12a24:	e4915004 	ldr	r5, [r1], #4
   12a28:	e4916004 	ldr	r6, [r1], #4
   12a2c:	e52d6004 	push	{r6}		; (str r6, [sp, #-4]!)
   12a30:	e52d5004 	push	{r5}		; (str r5, [sp, #-4]!)
   12a34:	e52d4004 	push	{r4}		; (str r4, [sp, #-4]!)
   12a38:	e52d0004 	push	{r0}		; (str r0, [sp, #-4]!)
   12a3c:	e52d3004 	push	{r3}		; (str r3, [sp, #-4]!)
   12a40:	e59f0084 	ldr	r0, [pc, #132]	; 12acc <OS_CPU_IRQ_ISR_1+0x68>
   12a44:	e5d01000 	ldrb	r1, [r0]
   12a48:	e2811001 	add	r1, r1, #1
   12a4c:	e5c01000 	strb	r1, [r0]
   12a50:	e3510001 	cmp	r1, #1
   12a54:	1a000002 	bne	12a64 <OS_CPU_IRQ_ISR_1>
   12a58:	e59f4058 	ldr	r4, [pc, #88]	; 12ab8 <OS_CPU_IRQ_ISR_1+0x54>
   12a5c:	e5945000 	ldr	r5, [r4]
   12a60:	e585d000 	str	sp, [r5]

00012a64 <OS_CPU_IRQ_ISR_1>:
   12a64:	e321f0d2 	msr	CPSR_c, #210	; 0xd2
   12a68:	ebfff8d7 	bl	10dcc <OS_CPU_IRQ_ISR_Handler>
   12a6c:	e321f0df 	msr	CPSR_c, #223	; 0xdf
   12a70:	eb0000e4 	bl	12e08 <OSIntExit>
   12a74:	e49d4004 	pop	{r4}		; (ldr r4, [sp], #4)
   12a78:	e12ff004 	msr	CPSR_fsxc, r4
   12a7c:	e49d0004 	pop	{r0}		; (ldr r0, [sp], #4)
   12a80:	e49d1004 	pop	{r1}		; (ldr r1, [sp], #4)
   12a84:	e49d2004 	pop	{r2}		; (ldr r2, [sp], #4)
   12a88:	e49d3004 	pop	{r3}		; (ldr r3, [sp], #4)
   12a8c:	e49d4004 	pop	{r4}		; (ldr r4, [sp], #4)
   12a90:	e49d5004 	pop	{r5}		; (ldr r5, [sp], #4)
   12a94:	e49d6004 	pop	{r6}		; (ldr r6, [sp], #4)
   12a98:	e49d7004 	pop	{r7}		; (ldr r7, [sp], #4)
   12a9c:	e49d8004 	pop	{r8}		; (ldr r8, [sp], #4)
   12aa0:	e49d9004 	pop	{r9}		; (ldr r9, [sp], #4)
   12aa4:	e49da004 	pop	{sl}		; (ldr sl, [sp], #4)
   12aa8:	e49db004 	pop	{fp}		; (ldr fp, [sp], #4)
   12aac:	e49dc004 	pop	{ip}		; (ldr ip, [sp], #4)
   12ab0:	e49de004 	pop	{lr}		; (ldr lr, [sp], #4)
   12ab4:	e49df004 	pop	{pc}		; (ldr pc, [sp], #4)
   12ab8:	0001bdd8 	ldrdeq	fp, [r1], -r8
   12abc:	0001b4c4 	andeq	fp, r1, r4, asr #9
   12ac0:	0001b484 	andeq	fp, r1, r4, lsl #9
   12ac4:	0001bdbc 			; <UNDEFINED> instruction: 0x0001bdbc
   12ac8:	0001b47d 	andeq	fp, r1, sp, ror r4
   12acc:	0001bdd5 	ldrdeq	fp, [r1], -r5

00012ad0 <OSTaskStkInit>:
   12ad0:	e52db004 	push	{fp}		; (str fp, [sp, #-4]!)
   12ad4:	e28db000 	add	fp, sp, #0
   12ad8:	e24dd01c 	sub	sp, sp, #28
   12adc:	e50b0010 	str	r0, [fp, #-16]
   12ae0:	e50b1014 	str	r1, [fp, #-20]
   12ae4:	e50b2018 	str	r2, [fp, #-24]
   12ae8:	e14b31ba 	strh	r3, [fp, #-26]	; 0xffffffe6
   12aec:	e51b3018 	ldr	r3, [fp, #-24]
   12af0:	e50b3008 	str	r3, [fp, #-8]
   12af4:	e51b2010 	ldr	r2, [fp, #-16]
   12af8:	e51b3008 	ldr	r3, [fp, #-8]
   12afc:	e5832000 	str	r2, [r3]
   12b00:	e51b3008 	ldr	r3, [fp, #-8]
   12b04:	e2433004 	sub	r3, r3, #4
   12b08:	e50b3008 	str	r3, [fp, #-8]
   12b0c:	e51b3008 	ldr	r3, [fp, #-8]
   12b10:	e59f2164 	ldr	r2, [pc, #356]	; 12c7c <OSTaskStkInit+0x1ac>
   12b14:	e5832000 	str	r2, [r3]
   12b18:	e51b3008 	ldr	r3, [fp, #-8]
   12b1c:	e2433004 	sub	r3, r3, #4
   12b20:	e50b3008 	str	r3, [fp, #-8]
   12b24:	e51b3008 	ldr	r3, [fp, #-8]
   12b28:	e59f2150 	ldr	r2, [pc, #336]	; 12c80 <OSTaskStkInit+0x1b0>
   12b2c:	e5832000 	str	r2, [r3]
   12b30:	e51b3008 	ldr	r3, [fp, #-8]
   12b34:	e2433004 	sub	r3, r3, #4
   12b38:	e50b3008 	str	r3, [fp, #-8]
   12b3c:	e51b3008 	ldr	r3, [fp, #-8]
   12b40:	e59f213c 	ldr	r2, [pc, #316]	; 12c84 <OSTaskStkInit+0x1b4>
   12b44:	e5832000 	str	r2, [r3]
   12b48:	e51b3008 	ldr	r3, [fp, #-8]
   12b4c:	e2433004 	sub	r3, r3, #4
   12b50:	e50b3008 	str	r3, [fp, #-8]
   12b54:	e51b3008 	ldr	r3, [fp, #-8]
   12b58:	e59f2128 	ldr	r2, [pc, #296]	; 12c88 <OSTaskStkInit+0x1b8>
   12b5c:	e5832000 	str	r2, [r3]
   12b60:	e51b3008 	ldr	r3, [fp, #-8]
   12b64:	e2433004 	sub	r3, r3, #4
   12b68:	e50b3008 	str	r3, [fp, #-8]
   12b6c:	e51b3008 	ldr	r3, [fp, #-8]
   12b70:	e59f2114 	ldr	r2, [pc, #276]	; 12c8c <OSTaskStkInit+0x1bc>
   12b74:	e5832000 	str	r2, [r3]
   12b78:	e51b3008 	ldr	r3, [fp, #-8]
   12b7c:	e2433004 	sub	r3, r3, #4
   12b80:	e50b3008 	str	r3, [fp, #-8]
   12b84:	e51b3008 	ldr	r3, [fp, #-8]
   12b88:	e59f2100 	ldr	r2, [pc, #256]	; 12c90 <OSTaskStkInit+0x1c0>
   12b8c:	e5832000 	str	r2, [r3]
   12b90:	e51b3008 	ldr	r3, [fp, #-8]
   12b94:	e2433004 	sub	r3, r3, #4
   12b98:	e50b3008 	str	r3, [fp, #-8]
   12b9c:	e51b3008 	ldr	r3, [fp, #-8]
   12ba0:	e59f20ec 	ldr	r2, [pc, #236]	; 12c94 <OSTaskStkInit+0x1c4>
   12ba4:	e5832000 	str	r2, [r3]
   12ba8:	e51b3008 	ldr	r3, [fp, #-8]
   12bac:	e2433004 	sub	r3, r3, #4
   12bb0:	e50b3008 	str	r3, [fp, #-8]
   12bb4:	e51b3008 	ldr	r3, [fp, #-8]
   12bb8:	e59f20d8 	ldr	r2, [pc, #216]	; 12c98 <OSTaskStkInit+0x1c8>
   12bbc:	e5832000 	str	r2, [r3]
   12bc0:	e51b3008 	ldr	r3, [fp, #-8]
   12bc4:	e2433004 	sub	r3, r3, #4
   12bc8:	e50b3008 	str	r3, [fp, #-8]
   12bcc:	e51b3008 	ldr	r3, [fp, #-8]
   12bd0:	e59f20c4 	ldr	r2, [pc, #196]	; 12c9c <OSTaskStkInit+0x1cc>
   12bd4:	e5832000 	str	r2, [r3]
   12bd8:	e51b3008 	ldr	r3, [fp, #-8]
   12bdc:	e2433004 	sub	r3, r3, #4
   12be0:	e50b3008 	str	r3, [fp, #-8]
   12be4:	e51b3008 	ldr	r3, [fp, #-8]
   12be8:	e59f20b0 	ldr	r2, [pc, #176]	; 12ca0 <OSTaskStkInit+0x1d0>
   12bec:	e5832000 	str	r2, [r3]
   12bf0:	e51b3008 	ldr	r3, [fp, #-8]
   12bf4:	e2433004 	sub	r3, r3, #4
   12bf8:	e50b3008 	str	r3, [fp, #-8]
   12bfc:	e51b3008 	ldr	r3, [fp, #-8]
   12c00:	e59f209c 	ldr	r2, [pc, #156]	; 12ca4 <OSTaskStkInit+0x1d4>
   12c04:	e5832000 	str	r2, [r3]
   12c08:	e51b3008 	ldr	r3, [fp, #-8]
   12c0c:	e2433004 	sub	r3, r3, #4
   12c10:	e50b3008 	str	r3, [fp, #-8]
   12c14:	e51b3008 	ldr	r3, [fp, #-8]
   12c18:	e59f2088 	ldr	r2, [pc, #136]	; 12ca8 <OSTaskStkInit+0x1d8>
   12c1c:	e5832000 	str	r2, [r3]
   12c20:	e51b3008 	ldr	r3, [fp, #-8]
   12c24:	e2433004 	sub	r3, r3, #4
   12c28:	e50b3008 	str	r3, [fp, #-8]
   12c2c:	e51b3008 	ldr	r3, [fp, #-8]
   12c30:	e59f2074 	ldr	r2, [pc, #116]	; 12cac <OSTaskStkInit+0x1dc>
   12c34:	e5832000 	str	r2, [r3]
   12c38:	e51b3008 	ldr	r3, [fp, #-8]
   12c3c:	e2433004 	sub	r3, r3, #4
   12c40:	e50b3008 	str	r3, [fp, #-8]
   12c44:	e51b2014 	ldr	r2, [fp, #-20]
   12c48:	e51b3008 	ldr	r3, [fp, #-8]
   12c4c:	e5832000 	str	r2, [r3]
   12c50:	e51b3008 	ldr	r3, [fp, #-8]
   12c54:	e2433004 	sub	r3, r3, #4
   12c58:	e50b3008 	str	r3, [fp, #-8]
   12c5c:	e51b3008 	ldr	r3, [fp, #-8]
   12c60:	e3a0201f 	mov	r2, #31
   12c64:	e5832000 	str	r2, [r3]
   12c68:	e51b3008 	ldr	r3, [fp, #-8]
   12c6c:	e1a00003 	mov	r0, r3
   12c70:	e24bd000 	sub	sp, fp, #0
   12c74:	e49db004 	pop	{fp}		; (ldr fp, [sp], #4)
   12c78:	e12fff1e 	bx	lr
   12c7c:	14141414 	ldrne	r1, [r4], #-1044	; 0x414
   12c80:	12121212 	andsne	r1, r2, #536870913	; 0x20000001
   12c84:	11111111 	tstne	r1, r1, lsl r1
   12c88:	10101010 	andsne	r1, r0, r0, lsl r0
   12c8c:	09090909 	stmdbeq	r9, {r0, r3, r8, fp}
   12c90:	08080808 	stmdaeq	r8, {r3, fp}
   12c94:	07070707 	streq	r0, [r7, -r7, lsl #14]
   12c98:	06060606 	streq	r0, [r6], -r6, lsl #12
   12c9c:	05050505 	streq	r0, [r5, #-1285]	; 0x505
   12ca0:	04040404 	streq	r0, [r4], #-1028	; 0x404
   12ca4:	03030303 	movweq	r0, #13059	; 0x3303
   12ca8:	02020202 	andeq	r0, r2, #536870912	; 0x20000000
   12cac:	01010101 	tsteq	r1, r1, lsl #2

00012cb0 <OSTaskCreateHook>:
   12cb0:	e52db004 	push	{fp}		; (str fp, [sp, #-4]!)
   12cb4:	e28db000 	add	fp, sp, #0
   12cb8:	e24dd00c 	sub	sp, sp, #12
   12cbc:	e50b0008 	str	r0, [fp, #-8]
   12cc0:	e24bd000 	sub	sp, fp, #0
   12cc4:	e49db004 	pop	{fp}		; (ldr fp, [sp], #4)
   12cc8:	e12fff1e 	bx	lr

00012ccc <OSTaskDelHook>:
   12ccc:	e52db004 	push	{fp}		; (str fp, [sp, #-4]!)
   12cd0:	e28db000 	add	fp, sp, #0
   12cd4:	e24dd00c 	sub	sp, sp, #12
   12cd8:	e50b0008 	str	r0, [fp, #-8]
   12cdc:	e24bd000 	sub	sp, fp, #0
   12ce0:	e49db004 	pop	{fp}		; (ldr fp, [sp], #4)
   12ce4:	e12fff1e 	bx	lr

00012ce8 <OSTaskSwHook>:
   12ce8:	e52db004 	push	{fp}		; (str fp, [sp, #-4]!)
   12cec:	e28db000 	add	fp, sp, #0
   12cf0:	e24bd000 	sub	sp, fp, #0
   12cf4:	e49db004 	pop	{fp}		; (ldr fp, [sp], #4)
   12cf8:	e12fff1e 	bx	lr

00012cfc <OSTaskStatHook>:
   12cfc:	e52db004 	push	{fp}		; (str fp, [sp, #-4]!)
   12d00:	e28db000 	add	fp, sp, #0
   12d04:	e24bd000 	sub	sp, fp, #0
   12d08:	e49db004 	pop	{fp}		; (ldr fp, [sp], #4)
   12d0c:	e12fff1e 	bx	lr

00012d10 <OSTimeTickHook>:
   12d10:	e52db004 	push	{fp}		; (str fp, [sp, #-4]!)
   12d14:	e28db000 	add	fp, sp, #0
   12d18:	e24bd000 	sub	sp, fp, #0
   12d1c:	e49db004 	pop	{fp}		; (ldr fp, [sp], #4)
   12d20:	e12fff1e 	bx	lr

00012d24 <OSInitHookBegin>:
   12d24:	e52db004 	push	{fp}		; (str fp, [sp, #-4]!)
   12d28:	e28db000 	add	fp, sp, #0
   12d2c:	e24bd000 	sub	sp, fp, #0
   12d30:	e49db004 	pop	{fp}		; (ldr fp, [sp], #4)
   12d34:	e12fff1e 	bx	lr

00012d38 <OSInitHookEnd>:
   12d38:	e52db004 	push	{fp}		; (str fp, [sp, #-4]!)
   12d3c:	e28db000 	add	fp, sp, #0
   12d40:	e24bd000 	sub	sp, fp, #0
   12d44:	e49db004 	pop	{fp}		; (ldr fp, [sp], #4)
   12d48:	e12fff1e 	bx	lr

00012d4c <OSTaskIdleHook>:
   12d4c:	e52db004 	push	{fp}		; (str fp, [sp, #-4]!)
   12d50:	e28db000 	add	fp, sp, #0
   12d54:	e24bd000 	sub	sp, fp, #0
   12d58:	e49db004 	pop	{fp}		; (ldr fp, [sp], #4)
   12d5c:	e12fff1e 	bx	lr

00012d60 <OSTCBInitHook>:
   12d60:	e52db004 	push	{fp}		; (str fp, [sp, #-4]!)
   12d64:	e28db000 	add	fp, sp, #0
   12d68:	e24dd00c 	sub	sp, sp, #12
   12d6c:	e50b0008 	str	r0, [fp, #-8]
   12d70:	e24bd000 	sub	sp, fp, #0
   12d74:	e49db004 	pop	{fp}		; (ldr fp, [sp], #4)
   12d78:	e12fff1e 	bx	lr

00012d7c <OSInit>:
   12d7c:	e92d4800 	push	{fp, lr}
   12d80:	e28db004 	add	fp, sp, #4
   12d84:	ebffffe6 	bl	12d24 <OSInitHookBegin>
   12d88:	eb0002da 	bl	138f8 <OS_InitMisc>
   12d8c:	eb000306 	bl	139ac <OS_InitRdyList>
   12d90:	eb000360 	bl	13b18 <OS_InitTCBList>
   12d94:	eb0002ac 	bl	1384c <OS_InitEventList>
   12d98:	eb0008ba 	bl	15088 <OS_FlagInit>
   12d9c:	eb000c57 	bl	15f00 <OS_MemInit>
   12da0:	eb001367 	bl	17b44 <OS_QInit>
   12da4:	eb00032b 	bl	13a58 <OS_InitTaskIdle>
   12da8:	eb000342 	bl	13ab8 <OS_InitTaskStat>
   12dac:	ebffffe1 	bl	12d38 <OSInitHookEnd>
   12db0:	e8bd8800 	pop	{fp, pc}

00012db4 <OSIntEnter>:
   12db4:	e52db004 	push	{fp}		; (str fp, [sp, #-4]!)
   12db8:	e28db000 	add	fp, sp, #0
   12dbc:	e59f303c 	ldr	r3, [pc, #60]	; 12e00 <OSIntEnter+0x4c>
   12dc0:	e5d33000 	ldrb	r3, [r3]
   12dc4:	e3530001 	cmp	r3, #1
   12dc8:	1a000009 	bne	12df4 <OSIntEnter+0x40>
   12dcc:	e59f3030 	ldr	r3, [pc, #48]	; 12e04 <OSIntEnter+0x50>
   12dd0:	e5d33000 	ldrb	r3, [r3]
   12dd4:	e35300ff 	cmp	r3, #255	; 0xff
   12dd8:	0a000005 	beq	12df4 <OSIntEnter+0x40>
   12ddc:	e59f3020 	ldr	r3, [pc, #32]	; 12e04 <OSIntEnter+0x50>
   12de0:	e5d33000 	ldrb	r3, [r3]
   12de4:	e2833001 	add	r3, r3, #1
   12de8:	e6ef2073 	uxtb	r2, r3
   12dec:	e59f3010 	ldr	r3, [pc, #16]	; 12e04 <OSIntEnter+0x50>
   12df0:	e5c32000 	strb	r2, [r3]
   12df4:	e24bd000 	sub	sp, fp, #0
   12df8:	e49db004 	pop	{fp}		; (ldr fp, [sp], #4)
   12dfc:	e12fff1e 	bx	lr
   12e00:	0001b47d 	andeq	fp, r1, sp, ror r4
   12e04:	0001bdd5 	ldrdeq	fp, [r1], -r5

00012e08 <OSIntExit>:
   12e08:	e92d4800 	push	{fp, lr}
   12e0c:	e28db004 	add	fp, sp, #4
   12e10:	e24dd008 	sub	sp, sp, #8
   12e14:	e59f3108 	ldr	r3, [pc, #264]	; 12f24 <OSIntExit+0x11c>
   12e18:	e5d33000 	ldrb	r3, [r3]
   12e1c:	e3530001 	cmp	r3, #1
   12e20:	1a00003d 	bne	12f1c <OSIntExit+0x114>
   12e24:	ebfffee0 	bl	129ac <OS_CPU_SR_Save>
   12e28:	e1a03000 	mov	r3, r0
   12e2c:	e50b3008 	str	r3, [fp, #-8]
   12e30:	e59f30f0 	ldr	r3, [pc, #240]	; 12f28 <OSIntExit+0x120>
   12e34:	e5d33000 	ldrb	r3, [r3]
   12e38:	e3530000 	cmp	r3, #0
   12e3c:	0a000005 	beq	12e58 <OSIntExit+0x50>
   12e40:	e59f30e0 	ldr	r3, [pc, #224]	; 12f28 <OSIntExit+0x120>
   12e44:	e5d33000 	ldrb	r3, [r3]
   12e48:	e2433001 	sub	r3, r3, #1
   12e4c:	e6ef2073 	uxtb	r2, r3
   12e50:	e59f30d0 	ldr	r3, [pc, #208]	; 12f28 <OSIntExit+0x120>
   12e54:	e5c32000 	strb	r2, [r3]
   12e58:	e59f30c8 	ldr	r3, [pc, #200]	; 12f28 <OSIntExit+0x120>
   12e5c:	e5d33000 	ldrb	r3, [r3]
   12e60:	e3530000 	cmp	r3, #0
   12e64:	1a00002a 	bne	12f14 <OSIntExit+0x10c>
   12e68:	e59f30bc 	ldr	r3, [pc, #188]	; 12f2c <OSIntExit+0x124>
   12e6c:	e5d33000 	ldrb	r3, [r3]
   12e70:	e3530000 	cmp	r3, #0
   12e74:	1a000026 	bne	12f14 <OSIntExit+0x10c>
   12e78:	e59f30b0 	ldr	r3, [pc, #176]	; 12f30 <OSIntExit+0x128>
   12e7c:	e5d33000 	ldrb	r3, [r3]
   12e80:	e59f20ac 	ldr	r2, [pc, #172]	; 12f34 <OSIntExit+0x12c>
   12e84:	e7d22003 	ldrb	r2, [r2, r3]
   12e88:	e59f30a8 	ldr	r3, [pc, #168]	; 12f38 <OSIntExit+0x130>
   12e8c:	e5c32000 	strb	r2, [r3]
   12e90:	e59f30a0 	ldr	r3, [pc, #160]	; 12f38 <OSIntExit+0x130>
   12e94:	e5d33000 	ldrb	r3, [r3]
   12e98:	e1a03183 	lsl	r3, r3, #3
   12e9c:	e6ef2073 	uxtb	r2, r3
   12ea0:	e59f3090 	ldr	r3, [pc, #144]	; 12f38 <OSIntExit+0x130>
   12ea4:	e5d33000 	ldrb	r3, [r3]
   12ea8:	e59f108c 	ldr	r1, [pc, #140]	; 12f3c <OSIntExit+0x134>
   12eac:	e7d13003 	ldrb	r3, [r1, r3]
   12eb0:	e59f107c 	ldr	r1, [pc, #124]	; 12f34 <OSIntExit+0x12c>
   12eb4:	e7d13003 	ldrb	r3, [r1, r3]
   12eb8:	e0823003 	add	r3, r2, r3
   12ebc:	e6ef2073 	uxtb	r2, r3
   12ec0:	e59f3078 	ldr	r3, [pc, #120]	; 12f40 <OSIntExit+0x138>
   12ec4:	e5c32000 	strb	r2, [r3]
   12ec8:	e59f3070 	ldr	r3, [pc, #112]	; 12f40 <OSIntExit+0x138>
   12ecc:	e5d32000 	ldrb	r2, [r3]
   12ed0:	e59f306c 	ldr	r3, [pc, #108]	; 12f44 <OSIntExit+0x13c>
   12ed4:	e5d33000 	ldrb	r3, [r3]
   12ed8:	e1520003 	cmp	r2, r3
   12edc:	0a00000c 	beq	12f14 <OSIntExit+0x10c>
   12ee0:	e59f3058 	ldr	r3, [pc, #88]	; 12f40 <OSIntExit+0x138>
   12ee4:	e5d33000 	ldrb	r3, [r3]
   12ee8:	e1a02003 	mov	r2, r3
   12eec:	e59f3054 	ldr	r3, [pc, #84]	; 12f48 <OSIntExit+0x140>
   12ef0:	e7932102 	ldr	r2, [r3, r2, lsl #2]
   12ef4:	e59f3050 	ldr	r3, [pc, #80]	; 12f4c <OSIntExit+0x144>
   12ef8:	e5832000 	str	r2, [r3]
   12efc:	e59f304c 	ldr	r3, [pc, #76]	; 12f50 <OSIntExit+0x148>
   12f00:	e5933000 	ldr	r3, [r3]
   12f04:	e2832001 	add	r2, r3, #1
   12f08:	e59f3040 	ldr	r3, [pc, #64]	; 12f50 <OSIntExit+0x148>
   12f0c:	e5832000 	str	r2, [r3]
   12f10:	ebfffe71 	bl	128dc <OSIntCtxSw>
   12f14:	e51b0008 	ldr	r0, [fp, #-8]
   12f18:	ebfffeab 	bl	129cc <OS_CPU_SR_Restore>
   12f1c:	e24bd004 	sub	sp, fp, #4
   12f20:	e8bd8800 	pop	{fp, pc}
   12f24:	0001b47d 	andeq	fp, r1, sp, ror r4
   12f28:	0001bdd5 	ldrdeq	fp, [r1], -r5
   12f2c:	0001b47c 	andeq	fp, r1, ip, ror r4
   12f30:	0001bdc4 	andeq	fp, r1, r4, asr #27
   12f34:	00019eac 	andeq	r9, r1, ip, lsr #29
   12f38:	0001bdd4 	ldrdeq	fp, [r1], -r4
   12f3c:	0001bdc8 	andeq	fp, r1, r8, asr #27
   12f40:	0001b484 	andeq	fp, r1, r4, lsl #9
   12f44:	0001b4c4 	andeq	fp, r1, r4, asr #9
   12f48:	0001ca4c 	andeq	ip, r1, ip, asr #20
   12f4c:	0001bdbc 			; <UNDEFINED> instruction: 0x0001bdbc
   12f50:	0001bd30 	andeq	fp, r1, r0, lsr sp

00012f54 <OSSchedLock>:
   12f54:	e92d4800 	push	{fp, lr}
   12f58:	e28db004 	add	fp, sp, #4
   12f5c:	e24dd008 	sub	sp, sp, #8
   12f60:	e59f304c 	ldr	r3, [pc, #76]	; 12fb4 <OSSchedLock+0x60>
   12f64:	e5d33000 	ldrb	r3, [r3]
   12f68:	e3530001 	cmp	r3, #1
   12f6c:	1a00000e 	bne	12fac <OSSchedLock+0x58>
   12f70:	ebfffe8d 	bl	129ac <OS_CPU_SR_Save>
   12f74:	e1a03000 	mov	r3, r0
   12f78:	e50b3008 	str	r3, [fp, #-8]
   12f7c:	e59f3034 	ldr	r3, [pc, #52]	; 12fb8 <OSSchedLock+0x64>
   12f80:	e5d33000 	ldrb	r3, [r3]
   12f84:	e35300ff 	cmp	r3, #255	; 0xff
   12f88:	0a000005 	beq	12fa4 <OSSchedLock+0x50>
   12f8c:	e59f3024 	ldr	r3, [pc, #36]	; 12fb8 <OSSchedLock+0x64>
   12f90:	e5d33000 	ldrb	r3, [r3]
   12f94:	e2833001 	add	r3, r3, #1
   12f98:	e6ef2073 	uxtb	r2, r3
   12f9c:	e59f3014 	ldr	r3, [pc, #20]	; 12fb8 <OSSchedLock+0x64>
   12fa0:	e5c32000 	strb	r2, [r3]
   12fa4:	e51b0008 	ldr	r0, [fp, #-8]
   12fa8:	ebfffe87 	bl	129cc <OS_CPU_SR_Restore>
   12fac:	e24bd004 	sub	sp, fp, #4
   12fb0:	e8bd8800 	pop	{fp, pc}
   12fb4:	0001b47d 	andeq	fp, r1, sp, ror r4
   12fb8:	0001b47c 	andeq	fp, r1, ip, ror r4

00012fbc <OSSchedUnlock>:
   12fbc:	e92d4800 	push	{fp, lr}
   12fc0:	e28db004 	add	fp, sp, #4
   12fc4:	e24dd008 	sub	sp, sp, #8
   12fc8:	e59f3088 	ldr	r3, [pc, #136]	; 13058 <OSSchedUnlock+0x9c>
   12fcc:	e5d33000 	ldrb	r3, [r3]
   12fd0:	e3530001 	cmp	r3, #1
   12fd4:	1a00001d 	bne	13050 <OSSchedUnlock+0x94>
   12fd8:	ebfffe73 	bl	129ac <OS_CPU_SR_Save>
   12fdc:	e1a03000 	mov	r3, r0
   12fe0:	e50b3008 	str	r3, [fp, #-8]
   12fe4:	e59f3070 	ldr	r3, [pc, #112]	; 1305c <OSSchedUnlock+0xa0>
   12fe8:	e5d33000 	ldrb	r3, [r3]
   12fec:	e3530000 	cmp	r3, #0
   12ff0:	0a000014 	beq	13048 <OSSchedUnlock+0x8c>
   12ff4:	e59f3060 	ldr	r3, [pc, #96]	; 1305c <OSSchedUnlock+0xa0>
   12ff8:	e5d33000 	ldrb	r3, [r3]
   12ffc:	e2433001 	sub	r3, r3, #1
   13000:	e6ef2073 	uxtb	r2, r3
   13004:	e59f3050 	ldr	r3, [pc, #80]	; 1305c <OSSchedUnlock+0xa0>
   13008:	e5c32000 	strb	r2, [r3]
   1300c:	e59f3048 	ldr	r3, [pc, #72]	; 1305c <OSSchedUnlock+0xa0>
   13010:	e5d33000 	ldrb	r3, [r3]
   13014:	e3530000 	cmp	r3, #0
   13018:	1a000007 	bne	1303c <OSSchedUnlock+0x80>
   1301c:	e59f303c 	ldr	r3, [pc, #60]	; 13060 <OSSchedUnlock+0xa4>
   13020:	e5d33000 	ldrb	r3, [r3]
   13024:	e3530000 	cmp	r3, #0
   13028:	1a000003 	bne	1303c <OSSchedUnlock+0x80>
   1302c:	e51b0008 	ldr	r0, [fp, #-8]
   13030:	ebfffe65 	bl	129cc <OS_CPU_SR_Restore>
   13034:	eb0002ee 	bl	13bf4 <OS_Sched>
   13038:	ea000004 	b	13050 <OSSchedUnlock+0x94>
   1303c:	e51b0008 	ldr	r0, [fp, #-8]
   13040:	ebfffe61 	bl	129cc <OS_CPU_SR_Restore>
   13044:	ea000001 	b	13050 <OSSchedUnlock+0x94>
   13048:	e51b0008 	ldr	r0, [fp, #-8]
   1304c:	ebfffe5e 	bl	129cc <OS_CPU_SR_Restore>
   13050:	e24bd004 	sub	sp, fp, #4
   13054:	e8bd8800 	pop	{fp, pc}
   13058:	0001b47d 	andeq	fp, r1, sp, ror r4
   1305c:	0001b47c 	andeq	fp, r1, ip, ror r4
   13060:	0001bdd5 	ldrdeq	fp, [r1], -r5

00013064 <OSStart>:
   13064:	e92d4800 	push	{fp, lr}
   13068:	e28db004 	add	fp, sp, #4
   1306c:	e24dd008 	sub	sp, sp, #8
   13070:	e59f309c 	ldr	r3, [pc, #156]	; 13114 <OSStart+0xb0>
   13074:	e5d33000 	ldrb	r3, [r3]
   13078:	e3530000 	cmp	r3, #0
   1307c:	1a000022 	bne	1310c <OSStart+0xa8>
   13080:	e59f3090 	ldr	r3, [pc, #144]	; 13118 <OSStart+0xb4>
   13084:	e5d33000 	ldrb	r3, [r3]
   13088:	e59f208c 	ldr	r2, [pc, #140]	; 1311c <OSStart+0xb8>
   1308c:	e7d23003 	ldrb	r3, [r2, r3]
   13090:	e54b3005 	strb	r3, [fp, #-5]
   13094:	e55b3005 	ldrb	r3, [fp, #-5]
   13098:	e59f2080 	ldr	r2, [pc, #128]	; 13120 <OSStart+0xbc>
   1309c:	e7d23003 	ldrb	r3, [r2, r3]
   130a0:	e59f2074 	ldr	r2, [pc, #116]	; 1311c <OSStart+0xb8>
   130a4:	e7d23003 	ldrb	r3, [r2, r3]
   130a8:	e54b3006 	strb	r3, [fp, #-6]
   130ac:	e55b3005 	ldrb	r3, [fp, #-5]
   130b0:	e1a03183 	lsl	r3, r3, #3
   130b4:	e6ef2073 	uxtb	r2, r3
   130b8:	e55b3006 	ldrb	r3, [fp, #-6]
   130bc:	e0823003 	add	r3, r2, r3
   130c0:	e6ef2073 	uxtb	r2, r3
   130c4:	e59f3058 	ldr	r3, [pc, #88]	; 13124 <OSStart+0xc0>
   130c8:	e5c32000 	strb	r2, [r3]
   130cc:	e59f3050 	ldr	r3, [pc, #80]	; 13124 <OSStart+0xc0>
   130d0:	e5d32000 	ldrb	r2, [r3]
   130d4:	e59f304c 	ldr	r3, [pc, #76]	; 13128 <OSStart+0xc4>
   130d8:	e5c32000 	strb	r2, [r3]
   130dc:	e59f3040 	ldr	r3, [pc, #64]	; 13124 <OSStart+0xc0>
   130e0:	e5d33000 	ldrb	r3, [r3]
   130e4:	e1a02003 	mov	r2, r3
   130e8:	e59f303c 	ldr	r3, [pc, #60]	; 1312c <OSStart+0xc8>
   130ec:	e7932102 	ldr	r2, [r3, r2, lsl #2]
   130f0:	e59f3038 	ldr	r3, [pc, #56]	; 13130 <OSStart+0xcc>
   130f4:	e5832000 	str	r2, [r3]
   130f8:	e59f3030 	ldr	r3, [pc, #48]	; 13130 <OSStart+0xcc>
   130fc:	e5932000 	ldr	r2, [r3]
   13100:	e59f302c 	ldr	r3, [pc, #44]	; 13134 <OSStart+0xd0>
   13104:	e5832000 	str	r2, [r3]
   13108:	ebfffe0e 	bl	12948 <OSStartHighRdy>
   1310c:	e24bd004 	sub	sp, fp, #4
   13110:	e8bd8800 	pop	{fp, pc}
   13114:	0001b47d 	andeq	fp, r1, sp, ror r4
   13118:	0001bdc4 	andeq	fp, r1, r4, asr #27
   1311c:	00019eac 	andeq	r9, r1, ip, lsr #29
   13120:	0001bdc8 	andeq	fp, r1, r8, asr #27
   13124:	0001b484 	andeq	fp, r1, r4, lsl #9
   13128:	0001b4c4 	andeq	fp, r1, r4, asr #9
   1312c:	0001ca4c 	andeq	ip, r1, ip, asr #20
   13130:	0001bdbc 			; <UNDEFINED> instruction: 0x0001bdbc
   13134:	0001bdd8 	ldrdeq	fp, [r1], -r8

00013138 <OSStatInit>:
   13138:	e92d4800 	push	{fp, lr}
   1313c:	e28db004 	add	fp, sp, #4
   13140:	e24dd008 	sub	sp, sp, #8
   13144:	e3a00002 	mov	r0, #2
   13148:	eb001870 	bl	19310 <OSTimeDly>
   1314c:	ebfffe16 	bl	129ac <OS_CPU_SR_Save>
   13150:	e1a03000 	mov	r3, r0
   13154:	e50b3008 	str	r3, [fp, #-8]
   13158:	e59f304c 	ldr	r3, [pc, #76]	; 131ac <OSStatInit+0x74>
   1315c:	e3a02000 	mov	r2, #0
   13160:	e5832000 	str	r2, [r3]
   13164:	e51b0008 	ldr	r0, [fp, #-8]
   13168:	ebfffe17 	bl	129cc <OS_CPU_SR_Restore>
   1316c:	e3a00064 	mov	r0, #100	; 0x64
   13170:	eb001866 	bl	19310 <OSTimeDly>
   13174:	ebfffe0c 	bl	129ac <OS_CPU_SR_Save>
   13178:	e1a03000 	mov	r3, r0
   1317c:	e50b3008 	str	r3, [fp, #-8]
   13180:	e59f3024 	ldr	r3, [pc, #36]	; 131ac <OSStatInit+0x74>
   13184:	e5932000 	ldr	r2, [r3]
   13188:	e59f3020 	ldr	r3, [pc, #32]	; 131b0 <OSStatInit+0x78>
   1318c:	e5832000 	str	r2, [r3]
   13190:	e59f301c 	ldr	r3, [pc, #28]	; 131b4 <OSStatInit+0x7c>
   13194:	e3a02001 	mov	r2, #1
   13198:	e5c32000 	strb	r2, [r3]
   1319c:	e51b0008 	ldr	r0, [fp, #-8]
   131a0:	ebfffe09 	bl	129cc <OS_CPU_SR_Restore>
   131a4:	e24bd004 	sub	sp, fp, #4
   131a8:	e8bd8800 	pop	{fp, pc}
   131ac:	0001b480 	andeq	fp, r1, r0, lsl #9
   131b0:	0001bd34 	andeq	fp, r1, r4, lsr sp
   131b4:	0001ca48 	andeq	ip, r1, r8, asr #20

000131b8 <OSTimeTick>:
   131b8:	e92d4800 	push	{fp, lr}
   131bc:	e28db004 	add	fp, sp, #4
   131c0:	e24dd008 	sub	sp, sp, #8
   131c4:	ebfffed1 	bl	12d10 <OSTimeTickHook>
   131c8:	ebfffdf7 	bl	129ac <OS_CPU_SR_Save>
   131cc:	e1a03000 	mov	r3, r0
   131d0:	e50b300c 	str	r3, [fp, #-12]
   131d4:	e59f3118 	ldr	r3, [pc, #280]	; 132f4 <OSTimeTick+0x13c>
   131d8:	e5933000 	ldr	r3, [r3]
   131dc:	e2832001 	add	r2, r3, #1
   131e0:	e59f310c 	ldr	r3, [pc, #268]	; 132f4 <OSTimeTick+0x13c>
   131e4:	e5832000 	str	r2, [r3]
   131e8:	e51b000c 	ldr	r0, [fp, #-12]
   131ec:	ebfffdf6 	bl	129cc <OS_CPU_SR_Restore>
   131f0:	e59f3100 	ldr	r3, [pc, #256]	; 132f8 <OSTimeTick+0x140>
   131f4:	e5d33000 	ldrb	r3, [r3]
   131f8:	e3530001 	cmp	r3, #1
   131fc:	1a00003a 	bne	132ec <OSTimeTick+0x134>
   13200:	e59f30f4 	ldr	r3, [pc, #244]	; 132fc <OSTimeTick+0x144>
   13204:	e5933000 	ldr	r3, [r3]
   13208:	e50b3008 	str	r3, [fp, #-8]
   1320c:	ea000032 	b	132dc <OSTimeTick+0x124>
   13210:	ebfffde5 	bl	129ac <OS_CPU_SR_Save>
   13214:	e1a03000 	mov	r3, r0
   13218:	e50b300c 	str	r3, [fp, #-12]
   1321c:	e51b3008 	ldr	r3, [fp, #-8]
   13220:	e1d332ba 	ldrh	r3, [r3, #42]	; 0x2a
   13224:	e3530000 	cmp	r3, #0
   13228:	0a000026 	beq	132c8 <OSTimeTick+0x110>
   1322c:	e51b3008 	ldr	r3, [fp, #-8]
   13230:	e1d332ba 	ldrh	r3, [r3, #42]	; 0x2a
   13234:	e2433001 	sub	r3, r3, #1
   13238:	e6ff2073 	uxth	r2, r3
   1323c:	e51b3008 	ldr	r3, [fp, #-8]
   13240:	e1c322ba 	strh	r2, [r3, #42]	; 0x2a
   13244:	e51b3008 	ldr	r3, [fp, #-8]
   13248:	e1d332ba 	ldrh	r3, [r3, #42]	; 0x2a
   1324c:	e3530000 	cmp	r3, #0
   13250:	1a00001c 	bne	132c8 <OSTimeTick+0x110>
   13254:	e51b3008 	ldr	r3, [fp, #-8]
   13258:	e5d3302c 	ldrb	r3, [r3, #44]	; 0x2c
   1325c:	e2033008 	and	r3, r3, #8
   13260:	e3530000 	cmp	r3, #0
   13264:	1a000014 	bne	132bc <OSTimeTick+0x104>
   13268:	e51b3008 	ldr	r3, [fp, #-8]
   1326c:	e5d32031 	ldrb	r2, [r3, #49]	; 0x31
   13270:	e59f3088 	ldr	r3, [pc, #136]	; 13300 <OSTimeTick+0x148>
   13274:	e5d33000 	ldrb	r3, [r3]
   13278:	e1823003 	orr	r3, r2, r3
   1327c:	e6ef2073 	uxtb	r2, r3
   13280:	e59f3078 	ldr	r3, [pc, #120]	; 13300 <OSTimeTick+0x148>
   13284:	e5c32000 	strb	r2, [r3]
   13288:	e51b3008 	ldr	r3, [fp, #-8]
   1328c:	e5d3302f 	ldrb	r3, [r3, #47]	; 0x2f
   13290:	e51b2008 	ldr	r2, [fp, #-8]
   13294:	e5d2202f 	ldrb	r2, [r2, #47]	; 0x2f
   13298:	e59f1064 	ldr	r1, [pc, #100]	; 13304 <OSTimeTick+0x14c>
   1329c:	e7d11002 	ldrb	r1, [r1, r2]
   132a0:	e51b2008 	ldr	r2, [fp, #-8]
   132a4:	e5d22030 	ldrb	r2, [r2, #48]	; 0x30
   132a8:	e1812002 	orr	r2, r1, r2
   132ac:	e6ef1072 	uxtb	r1, r2
   132b0:	e59f204c 	ldr	r2, [pc, #76]	; 13304 <OSTimeTick+0x14c>
   132b4:	e7c21003 	strb	r1, [r2, r3]
   132b8:	ea000002 	b	132c8 <OSTimeTick+0x110>
   132bc:	e51b3008 	ldr	r3, [fp, #-8]
   132c0:	e3a02001 	mov	r2, #1
   132c4:	e1c322ba 	strh	r2, [r3, #42]	; 0x2a
   132c8:	e51b3008 	ldr	r3, [fp, #-8]
   132cc:	e5933014 	ldr	r3, [r3, #20]
   132d0:	e50b3008 	str	r3, [fp, #-8]
   132d4:	e51b000c 	ldr	r0, [fp, #-12]
   132d8:	ebfffdbb 	bl	129cc <OS_CPU_SR_Restore>
   132dc:	e51b3008 	ldr	r3, [fp, #-8]
   132e0:	e5d3302d 	ldrb	r3, [r3, #45]	; 0x2d
   132e4:	e353003f 	cmp	r3, #63	; 0x3f
   132e8:	1affffc8 	bne	13210 <OSTimeTick+0x58>
   132ec:	e24bd004 	sub	sp, fp, #4
   132f0:	e8bd8800 	pop	{fp, pc}
   132f4:	0001bddc 	ldrdeq	fp, [r1], -ip
   132f8:	0001b47d 	andeq	fp, r1, sp, ror r4
   132fc:	0001b4c8 	andeq	fp, r1, r8, asr #9
   13300:	0001bdc4 	andeq	fp, r1, r4, asr #27
   13304:	0001bdc8 	andeq	fp, r1, r8, asr #27

00013308 <OSVersion>:
   13308:	e52db004 	push	{fp}		; (str fp, [sp, #-4]!)
   1330c:	e28db000 	add	fp, sp, #0
   13310:	e3a030fc 	mov	r3, #252	; 0xfc
   13314:	e1a00003 	mov	r0, r3
   13318:	e24bd000 	sub	sp, fp, #0
   1331c:	e49db004 	pop	{fp}		; (ldr fp, [sp], #4)
   13320:	e12fff1e 	bx	lr

00013324 <OS_Dummy>:
   13324:	e52db004 	push	{fp}		; (str fp, [sp, #-4]!)
   13328:	e28db000 	add	fp, sp, #0
   1332c:	e24bd000 	sub	sp, fp, #0
   13330:	e49db004 	pop	{fp}		; (ldr fp, [sp], #4)
   13334:	e12fff1e 	bx	lr

00013338 <OS_EventTaskRdy>:
   13338:	e52db004 	push	{fp}		; (str fp, [sp, #-4]!)
   1333c:	e28db000 	add	fp, sp, #0
   13340:	e24dd024 	sub	sp, sp, #36	; 0x24
   13344:	e50b0018 	str	r0, [fp, #-24]
   13348:	e50b101c 	str	r1, [fp, #-28]
   1334c:	e1a03002 	mov	r3, r2
   13350:	e54b301d 	strb	r3, [fp, #-29]
   13354:	e51b3018 	ldr	r3, [fp, #-24]
   13358:	e5d33001 	ldrb	r3, [r3, #1]
   1335c:	e59f21b8 	ldr	r2, [pc, #440]	; 1351c <OS_EventTaskRdy+0x1e4>
   13360:	e7d23003 	ldrb	r3, [r2, r3]
   13364:	e54b3005 	strb	r3, [fp, #-5]
   13368:	e55b3005 	ldrb	r3, [fp, #-5]
   1336c:	e59f21ac 	ldr	r2, [pc, #428]	; 13520 <OS_EventTaskRdy+0x1e8>
   13370:	e7d23003 	ldrb	r3, [r2, r3]
   13374:	e54b3006 	strb	r3, [fp, #-6]
   13378:	e55b2005 	ldrb	r2, [fp, #-5]
   1337c:	e51b1018 	ldr	r1, [fp, #-24]
   13380:	e3a03008 	mov	r3, #8
   13384:	e0812002 	add	r2, r1, r2
   13388:	e0823003 	add	r3, r2, r3
   1338c:	e5d33000 	ldrb	r3, [r3]
   13390:	e59f2184 	ldr	r2, [pc, #388]	; 1351c <OS_EventTaskRdy+0x1e4>
   13394:	e7d23003 	ldrb	r3, [r2, r3]
   13398:	e54b3007 	strb	r3, [fp, #-7]
   1339c:	e55b3007 	ldrb	r3, [fp, #-7]
   133a0:	e59f2178 	ldr	r2, [pc, #376]	; 13520 <OS_EventTaskRdy+0x1e8>
   133a4:	e7d23003 	ldrb	r3, [r2, r3]
   133a8:	e54b3008 	strb	r3, [fp, #-8]
   133ac:	e55b3005 	ldrb	r3, [fp, #-5]
   133b0:	e1a03183 	lsl	r3, r3, #3
   133b4:	e6ef2073 	uxtb	r2, r3
   133b8:	e55b3007 	ldrb	r3, [fp, #-7]
   133bc:	e0823003 	add	r3, r2, r3
   133c0:	e54b3009 	strb	r3, [fp, #-9]
   133c4:	e55b3005 	ldrb	r3, [fp, #-5]
   133c8:	e55b1005 	ldrb	r1, [fp, #-5]
   133cc:	e51b0018 	ldr	r0, [fp, #-24]
   133d0:	e3a02008 	mov	r2, #8
   133d4:	e0801001 	add	r1, r0, r1
   133d8:	e0812002 	add	r2, r1, r2
   133dc:	e5d22000 	ldrb	r2, [r2]
   133e0:	e6ef1072 	uxtb	r1, r2
   133e4:	e55b2008 	ldrb	r2, [fp, #-8]
   133e8:	e1e02002 	mvn	r2, r2
   133ec:	e6ef2072 	uxtb	r2, r2
   133f0:	e0012002 	and	r2, r1, r2
   133f4:	e6ef2072 	uxtb	r2, r2
   133f8:	e6ef1072 	uxtb	r1, r2
   133fc:	e51b0018 	ldr	r0, [fp, #-24]
   13400:	e3a02008 	mov	r2, #8
   13404:	e0800003 	add	r0, r0, r3
   13408:	e0802002 	add	r2, r0, r2
   1340c:	e5c21000 	strb	r1, [r2]
   13410:	e51b1018 	ldr	r1, [fp, #-24]
   13414:	e3a02008 	mov	r2, #8
   13418:	e0813003 	add	r3, r1, r3
   1341c:	e0833002 	add	r3, r3, r2
   13420:	e5d33000 	ldrb	r3, [r3]
   13424:	e3530000 	cmp	r3, #0
   13428:	1a00000a 	bne	13458 <OS_EventTaskRdy+0x120>
   1342c:	e51b3018 	ldr	r3, [fp, #-24]
   13430:	e5d33001 	ldrb	r3, [r3, #1]
   13434:	e6ef2073 	uxtb	r2, r3
   13438:	e55b3006 	ldrb	r3, [fp, #-6]
   1343c:	e1e03003 	mvn	r3, r3
   13440:	e6ef3073 	uxtb	r3, r3
   13444:	e0023003 	and	r3, r2, r3
   13448:	e6ef3073 	uxtb	r3, r3
   1344c:	e6ef2073 	uxtb	r2, r3
   13450:	e51b3018 	ldr	r3, [fp, #-24]
   13454:	e5c32001 	strb	r2, [r3, #1]
   13458:	e55b2009 	ldrb	r2, [fp, #-9]
   1345c:	e59f30c0 	ldr	r3, [pc, #192]	; 13524 <OS_EventTaskRdy+0x1ec>
   13460:	e7933102 	ldr	r3, [r3, r2, lsl #2]
   13464:	e50b3010 	str	r3, [fp, #-16]
   13468:	e51b3010 	ldr	r3, [fp, #-16]
   1346c:	e3a02000 	mov	r2, #0
   13470:	e1c322ba 	strh	r2, [r3, #42]	; 0x2a
   13474:	e51b3010 	ldr	r3, [fp, #-16]
   13478:	e3a02000 	mov	r2, #0
   1347c:	e583201c 	str	r2, [r3, #28]
   13480:	e51b3010 	ldr	r3, [fp, #-16]
   13484:	e51b201c 	ldr	r2, [fp, #-28]
   13488:	e5832020 	str	r2, [r3, #32]
   1348c:	e51b3010 	ldr	r3, [fp, #-16]
   13490:	e5d3302c 	ldrb	r3, [r3, #44]	; 0x2c
   13494:	e6ef2073 	uxtb	r2, r3
   13498:	e55b301d 	ldrb	r3, [fp, #-29]
   1349c:	e1e03003 	mvn	r3, r3
   134a0:	e6ef3073 	uxtb	r3, r3
   134a4:	e0023003 	and	r3, r2, r3
   134a8:	e6ef3073 	uxtb	r3, r3
   134ac:	e6ef2073 	uxtb	r2, r3
   134b0:	e51b3010 	ldr	r3, [fp, #-16]
   134b4:	e5c3202c 	strb	r2, [r3, #44]	; 0x2c
   134b8:	e51b3010 	ldr	r3, [fp, #-16]
   134bc:	e5d3302c 	ldrb	r3, [r3, #44]	; 0x2c
   134c0:	e3530000 	cmp	r3, #0
   134c4:	1a00000f 	bne	13508 <OS_EventTaskRdy+0x1d0>
   134c8:	e59f3058 	ldr	r3, [pc, #88]	; 13528 <OS_EventTaskRdy+0x1f0>
   134cc:	e5d32000 	ldrb	r2, [r3]
   134d0:	e55b3006 	ldrb	r3, [fp, #-6]
   134d4:	e1823003 	orr	r3, r2, r3
   134d8:	e6ef2073 	uxtb	r2, r3
   134dc:	e59f3044 	ldr	r3, [pc, #68]	; 13528 <OS_EventTaskRdy+0x1f0>
   134e0:	e5c32000 	strb	r2, [r3]
   134e4:	e55b3005 	ldrb	r3, [fp, #-5]
   134e8:	e55b2005 	ldrb	r2, [fp, #-5]
   134ec:	e59f1038 	ldr	r1, [pc, #56]	; 1352c <OS_EventTaskRdy+0x1f4>
   134f0:	e7d11002 	ldrb	r1, [r1, r2]
   134f4:	e55b2008 	ldrb	r2, [fp, #-8]
   134f8:	e1812002 	orr	r2, r1, r2
   134fc:	e6ef1072 	uxtb	r1, r2
   13500:	e59f2024 	ldr	r2, [pc, #36]	; 1352c <OS_EventTaskRdy+0x1f4>
   13504:	e7c21003 	strb	r1, [r2, r3]
   13508:	e55b3009 	ldrb	r3, [fp, #-9]
   1350c:	e1a00003 	mov	r0, r3
   13510:	e24bd000 	sub	sp, fp, #0
   13514:	e49db004 	pop	{fp}		; (ldr fp, [sp], #4)
   13518:	e12fff1e 	bx	lr
   1351c:	00019eac 	andeq	r9, r1, ip, lsr #29
   13520:	00019ea4 	andeq	r9, r1, r4, lsr #29
   13524:	0001ca4c 	andeq	ip, r1, ip, asr #20
   13528:	0001bdc4 	andeq	fp, r1, r4, asr #27
   1352c:	0001bdc8 	andeq	fp, r1, r8, asr #27

00013530 <OS_EventTaskWait>:
   13530:	e52db004 	push	{fp}		; (str fp, [sp, #-4]!)
   13534:	e28db000 	add	fp, sp, #0
   13538:	e24dd00c 	sub	sp, sp, #12
   1353c:	e50b0008 	str	r0, [fp, #-8]
   13540:	e59f312c 	ldr	r3, [pc, #300]	; 13674 <OS_EventTaskWait+0x144>
   13544:	e5933000 	ldr	r3, [r3]
   13548:	e51b2008 	ldr	r2, [fp, #-8]
   1354c:	e583201c 	str	r2, [r3, #28]
   13550:	e59f311c 	ldr	r3, [pc, #284]	; 13674 <OS_EventTaskWait+0x144>
   13554:	e5933000 	ldr	r3, [r3]
   13558:	e5d3302f 	ldrb	r3, [r3, #47]	; 0x2f
   1355c:	e59f2110 	ldr	r2, [pc, #272]	; 13674 <OS_EventTaskWait+0x144>
   13560:	e5922000 	ldr	r2, [r2]
   13564:	e5d2202f 	ldrb	r2, [r2, #47]	; 0x2f
   13568:	e59f1108 	ldr	r1, [pc, #264]	; 13678 <OS_EventTaskWait+0x148>
   1356c:	e7d12002 	ldrb	r2, [r1, r2]
   13570:	e6ef1072 	uxtb	r1, r2
   13574:	e59f20f8 	ldr	r2, [pc, #248]	; 13674 <OS_EventTaskWait+0x144>
   13578:	e5922000 	ldr	r2, [r2]
   1357c:	e5d22030 	ldrb	r2, [r2, #48]	; 0x30
   13580:	e6ef2072 	uxtb	r2, r2
   13584:	e1e02002 	mvn	r2, r2
   13588:	e6ef2072 	uxtb	r2, r2
   1358c:	e0012002 	and	r2, r1, r2
   13590:	e6ef2072 	uxtb	r2, r2
   13594:	e6ef1072 	uxtb	r1, r2
   13598:	e59f20d8 	ldr	r2, [pc, #216]	; 13678 <OS_EventTaskWait+0x148>
   1359c:	e7c21003 	strb	r1, [r2, r3]
   135a0:	e59f20d0 	ldr	r2, [pc, #208]	; 13678 <OS_EventTaskWait+0x148>
   135a4:	e7d23003 	ldrb	r3, [r2, r3]
   135a8:	e3530000 	cmp	r3, #0
   135ac:	1a00000d 	bne	135e8 <OS_EventTaskWait+0xb8>
   135b0:	e59f30bc 	ldr	r3, [pc, #188]	; 13674 <OS_EventTaskWait+0x144>
   135b4:	e5933000 	ldr	r3, [r3]
   135b8:	e5d33031 	ldrb	r3, [r3, #49]	; 0x31
   135bc:	e6ef3073 	uxtb	r3, r3
   135c0:	e1e03003 	mvn	r3, r3
   135c4:	e6ef2073 	uxtb	r2, r3
   135c8:	e59f30ac 	ldr	r3, [pc, #172]	; 1367c <OS_EventTaskWait+0x14c>
   135cc:	e5d33000 	ldrb	r3, [r3]
   135d0:	e6ef3073 	uxtb	r3, r3
   135d4:	e0023003 	and	r3, r2, r3
   135d8:	e6ef3073 	uxtb	r3, r3
   135dc:	e6ef2073 	uxtb	r2, r3
   135e0:	e59f3094 	ldr	r3, [pc, #148]	; 1367c <OS_EventTaskWait+0x14c>
   135e4:	e5c32000 	strb	r2, [r3]
   135e8:	e59f3084 	ldr	r3, [pc, #132]	; 13674 <OS_EventTaskWait+0x144>
   135ec:	e5933000 	ldr	r3, [r3]
   135f0:	e5d3302f 	ldrb	r3, [r3, #47]	; 0x2f
   135f4:	e1a01003 	mov	r1, r3
   135f8:	e59f3074 	ldr	r3, [pc, #116]	; 13674 <OS_EventTaskWait+0x144>
   135fc:	e5933000 	ldr	r3, [r3]
   13600:	e5d3302f 	ldrb	r3, [r3, #47]	; 0x2f
   13604:	e1a02003 	mov	r2, r3
   13608:	e51b0008 	ldr	r0, [fp, #-8]
   1360c:	e3a03008 	mov	r3, #8
   13610:	e0802002 	add	r2, r0, r2
   13614:	e0823003 	add	r3, r2, r3
   13618:	e5d32000 	ldrb	r2, [r3]
   1361c:	e59f3050 	ldr	r3, [pc, #80]	; 13674 <OS_EventTaskWait+0x144>
   13620:	e5933000 	ldr	r3, [r3]
   13624:	e5d33030 	ldrb	r3, [r3, #48]	; 0x30
   13628:	e1823003 	orr	r3, r2, r3
   1362c:	e6ef2073 	uxtb	r2, r3
   13630:	e51b0008 	ldr	r0, [fp, #-8]
   13634:	e3a03008 	mov	r3, #8
   13638:	e0801001 	add	r1, r0, r1
   1363c:	e0813003 	add	r3, r1, r3
   13640:	e5c32000 	strb	r2, [r3]
   13644:	e51b3008 	ldr	r3, [fp, #-8]
   13648:	e5d32001 	ldrb	r2, [r3, #1]
   1364c:	e59f3020 	ldr	r3, [pc, #32]	; 13674 <OS_EventTaskWait+0x144>
   13650:	e5933000 	ldr	r3, [r3]
   13654:	e5d33031 	ldrb	r3, [r3, #49]	; 0x31
   13658:	e1823003 	orr	r3, r2, r3
   1365c:	e6ef2073 	uxtb	r2, r3
   13660:	e51b3008 	ldr	r3, [fp, #-8]
   13664:	e5c32001 	strb	r2, [r3, #1]
   13668:	e24bd000 	sub	sp, fp, #0
   1366c:	e49db004 	pop	{fp}		; (ldr fp, [sp], #4)
   13670:	e12fff1e 	bx	lr
   13674:	0001bdd8 	ldrdeq	fp, [r1], -r8
   13678:	0001bdc8 	andeq	fp, r1, r8, asr #27
   1367c:	0001bdc4 	andeq	fp, r1, r4, asr #27

00013680 <OS_EventTO>:
   13680:	e52db004 	push	{fp}		; (str fp, [sp, #-4]!)
   13684:	e28db000 	add	fp, sp, #0
   13688:	e24dd00c 	sub	sp, sp, #12
   1368c:	e50b0008 	str	r0, [fp, #-8]
   13690:	e59f30e4 	ldr	r3, [pc, #228]	; 1377c <OS_EventTO+0xfc>
   13694:	e5933000 	ldr	r3, [r3]
   13698:	e5d3302f 	ldrb	r3, [r3, #47]	; 0x2f
   1369c:	e59f20d8 	ldr	r2, [pc, #216]	; 1377c <OS_EventTO+0xfc>
   136a0:	e5922000 	ldr	r2, [r2]
   136a4:	e5d2202f 	ldrb	r2, [r2, #47]	; 0x2f
   136a8:	e1a01002 	mov	r1, r2
   136ac:	e51b0008 	ldr	r0, [fp, #-8]
   136b0:	e3a02008 	mov	r2, #8
   136b4:	e0801001 	add	r1, r0, r1
   136b8:	e0812002 	add	r2, r1, r2
   136bc:	e5d22000 	ldrb	r2, [r2]
   136c0:	e6ef1072 	uxtb	r1, r2
   136c4:	e59f20b0 	ldr	r2, [pc, #176]	; 1377c <OS_EventTO+0xfc>
   136c8:	e5922000 	ldr	r2, [r2]
   136cc:	e5d22030 	ldrb	r2, [r2, #48]	; 0x30
   136d0:	e6ef2072 	uxtb	r2, r2
   136d4:	e1e02002 	mvn	r2, r2
   136d8:	e6ef2072 	uxtb	r2, r2
   136dc:	e0012002 	and	r2, r1, r2
   136e0:	e6ef2072 	uxtb	r2, r2
   136e4:	e6ef1072 	uxtb	r1, r2
   136e8:	e51b0008 	ldr	r0, [fp, #-8]
   136ec:	e3a02008 	mov	r2, #8
   136f0:	e0800003 	add	r0, r0, r3
   136f4:	e0802002 	add	r2, r0, r2
   136f8:	e5c21000 	strb	r1, [r2]
   136fc:	e51b1008 	ldr	r1, [fp, #-8]
   13700:	e3a02008 	mov	r2, #8
   13704:	e0813003 	add	r3, r1, r3
   13708:	e0833002 	add	r3, r3, r2
   1370c:	e5d33000 	ldrb	r3, [r3]
   13710:	e3530000 	cmp	r3, #0
   13714:	1a00000d 	bne	13750 <OS_EventTO+0xd0>
   13718:	e51b3008 	ldr	r3, [fp, #-8]
   1371c:	e5d33001 	ldrb	r3, [r3, #1]
   13720:	e6ef2073 	uxtb	r2, r3
   13724:	e59f3050 	ldr	r3, [pc, #80]	; 1377c <OS_EventTO+0xfc>
   13728:	e5933000 	ldr	r3, [r3]
   1372c:	e5d33031 	ldrb	r3, [r3, #49]	; 0x31
   13730:	e6ef3073 	uxtb	r3, r3
   13734:	e1e03003 	mvn	r3, r3
   13738:	e6ef3073 	uxtb	r3, r3
   1373c:	e0023003 	and	r3, r2, r3
   13740:	e6ef3073 	uxtb	r3, r3
   13744:	e6ef2073 	uxtb	r2, r3
   13748:	e51b3008 	ldr	r3, [fp, #-8]
   1374c:	e5c32001 	strb	r2, [r3, #1]
   13750:	e59f3024 	ldr	r3, [pc, #36]	; 1377c <OS_EventTO+0xfc>
   13754:	e5933000 	ldr	r3, [r3]
   13758:	e3a02000 	mov	r2, #0
   1375c:	e5c3202c 	strb	r2, [r3, #44]	; 0x2c
   13760:	e59f3014 	ldr	r3, [pc, #20]	; 1377c <OS_EventTO+0xfc>
   13764:	e5933000 	ldr	r3, [r3]
   13768:	e3a02000 	mov	r2, #0
   1376c:	e583201c 	str	r2, [r3, #28]
   13770:	e24bd000 	sub	sp, fp, #0
   13774:	e49db004 	pop	{fp}		; (ldr fp, [sp], #4)
   13778:	e12fff1e 	bx	lr
   1377c:	0001bdd8 	ldrdeq	fp, [r1], -r8

00013780 <OS_EventWaitListInit>:
   13780:	e52db004 	push	{fp}		; (str fp, [sp, #-4]!)
   13784:	e28db000 	add	fp, sp, #0
   13788:	e24dd014 	sub	sp, sp, #20
   1378c:	e50b0010 	str	r0, [fp, #-16]
   13790:	e51b3010 	ldr	r3, [fp, #-16]
   13794:	e3a02000 	mov	r2, #0
   13798:	e5c32001 	strb	r2, [r3, #1]
   1379c:	e51b3010 	ldr	r3, [fp, #-16]
   137a0:	e2833008 	add	r3, r3, #8
   137a4:	e50b3008 	str	r3, [fp, #-8]
   137a8:	e51b3008 	ldr	r3, [fp, #-8]
   137ac:	e2832001 	add	r2, r3, #1
   137b0:	e50b2008 	str	r2, [fp, #-8]
   137b4:	e3a02000 	mov	r2, #0
   137b8:	e5c32000 	strb	r2, [r3]
   137bc:	e51b3008 	ldr	r3, [fp, #-8]
   137c0:	e2832001 	add	r2, r3, #1
   137c4:	e50b2008 	str	r2, [fp, #-8]
   137c8:	e3a02000 	mov	r2, #0
   137cc:	e5c32000 	strb	r2, [r3]
   137d0:	e51b3008 	ldr	r3, [fp, #-8]
   137d4:	e2832001 	add	r2, r3, #1
   137d8:	e50b2008 	str	r2, [fp, #-8]
   137dc:	e3a02000 	mov	r2, #0
   137e0:	e5c32000 	strb	r2, [r3]
   137e4:	e51b3008 	ldr	r3, [fp, #-8]
   137e8:	e2832001 	add	r2, r3, #1
   137ec:	e50b2008 	str	r2, [fp, #-8]
   137f0:	e3a02000 	mov	r2, #0
   137f4:	e5c32000 	strb	r2, [r3]
   137f8:	e51b3008 	ldr	r3, [fp, #-8]
   137fc:	e2832001 	add	r2, r3, #1
   13800:	e50b2008 	str	r2, [fp, #-8]
   13804:	e3a02000 	mov	r2, #0
   13808:	e5c32000 	strb	r2, [r3]
   1380c:	e51b3008 	ldr	r3, [fp, #-8]
   13810:	e2832001 	add	r2, r3, #1
   13814:	e50b2008 	str	r2, [fp, #-8]
   13818:	e3a02000 	mov	r2, #0
   1381c:	e5c32000 	strb	r2, [r3]
   13820:	e51b3008 	ldr	r3, [fp, #-8]
   13824:	e2832001 	add	r2, r3, #1
   13828:	e50b2008 	str	r2, [fp, #-8]
   1382c:	e3a02000 	mov	r2, #0
   13830:	e5c32000 	strb	r2, [r3]
   13834:	e51b3008 	ldr	r3, [fp, #-8]
   13838:	e3a02000 	mov	r2, #0
   1383c:	e5c32000 	strb	r2, [r3]
   13840:	e24bd000 	sub	sp, fp, #0
   13844:	e49db004 	pop	{fp}		; (ldr fp, [sp], #4)
   13848:	e12fff1e 	bx	lr

0001384c <OS_InitEventList>:
   1384c:	e52db004 	push	{fp}		; (str fp, [sp, #-4]!)
   13850:	e28db000 	add	fp, sp, #0
   13854:	e24dd014 	sub	sp, sp, #20
   13858:	e59f308c 	ldr	r3, [pc, #140]	; 138ec <OS_InitEventList+0xa0>
   1385c:	e50b300c 	str	r3, [fp, #-12]
   13860:	e59f3088 	ldr	r3, [pc, #136]	; 138f0 <OS_InitEventList+0xa4>
   13864:	e50b3010 	str	r3, [fp, #-16]
   13868:	e3a03000 	mov	r3, #0
   1386c:	e14b30b6 	strh	r3, [fp, #-6]
   13870:	ea00000e 	b	138b0 <OS_InitEventList+0x64>
   13874:	e51b300c 	ldr	r3, [fp, #-12]
   13878:	e3a02000 	mov	r2, #0
   1387c:	e5c32000 	strb	r2, [r3]
   13880:	e51b300c 	ldr	r3, [fp, #-12]
   13884:	e51b2010 	ldr	r2, [fp, #-16]
   13888:	e5832004 	str	r2, [r3, #4]
   1388c:	e51b300c 	ldr	r3, [fp, #-12]
   13890:	e2833010 	add	r3, r3, #16
   13894:	e50b300c 	str	r3, [fp, #-12]
   13898:	e51b3010 	ldr	r3, [fp, #-16]
   1389c:	e2833010 	add	r3, r3, #16
   138a0:	e50b3010 	str	r3, [fp, #-16]
   138a4:	e15b30b6 	ldrh	r3, [fp, #-6]
   138a8:	e2833001 	add	r3, r3, #1
   138ac:	e14b30b6 	strh	r3, [fp, #-6]
   138b0:	e15b30b6 	ldrh	r3, [fp, #-6]
   138b4:	e353000d 	cmp	r3, #13
   138b8:	9affffed 	bls	13874 <OS_InitEventList+0x28>
   138bc:	e51b300c 	ldr	r3, [fp, #-12]
   138c0:	e3a02000 	mov	r2, #0
   138c4:	e5c32000 	strb	r2, [r3]
   138c8:	e51b300c 	ldr	r3, [fp, #-12]
   138cc:	e3a02000 	mov	r2, #0
   138d0:	e5832004 	str	r2, [r3, #4]
   138d4:	e59f3018 	ldr	r3, [pc, #24]	; 138f4 <OS_InitEventList+0xa8>
   138d8:	e59f200c 	ldr	r2, [pc, #12]	; 138ec <OS_InitEventList+0xa0>
   138dc:	e5832000 	str	r2, [r3]
   138e0:	e24bd000 	sub	sp, fp, #0
   138e4:	e49db004 	pop	{fp}		; (ldr fp, [sp], #4)
   138e8:	e12fff1e 	bx	lr
   138ec:	0001c5e0 	andeq	ip, r1, r0, ror #11
   138f0:	0001c5f0 	strdeq	ip, [r1], -r0
   138f4:	0001bdd0 	ldrdeq	fp, [r1], -r0

000138f8 <OS_InitMisc>:
   138f8:	e52db004 	push	{fp}		; (str fp, [sp, #-4]!)
   138fc:	e28db000 	add	fp, sp, #0
   13900:	e59f307c 	ldr	r3, [pc, #124]	; 13984 <OS_InitMisc+0x8c>
   13904:	e3a02000 	mov	r2, #0
   13908:	e5832000 	str	r2, [r3]
   1390c:	e59f3074 	ldr	r3, [pc, #116]	; 13988 <OS_InitMisc+0x90>
   13910:	e3a02000 	mov	r2, #0
   13914:	e5c32000 	strb	r2, [r3]
   13918:	e59f306c 	ldr	r3, [pc, #108]	; 1398c <OS_InitMisc+0x94>
   1391c:	e3a02000 	mov	r2, #0
   13920:	e5c32000 	strb	r2, [r3]
   13924:	e59f3064 	ldr	r3, [pc, #100]	; 13990 <OS_InitMisc+0x98>
   13928:	e3a02000 	mov	r2, #0
   1392c:	e5c32000 	strb	r2, [r3]
   13930:	e59f305c 	ldr	r3, [pc, #92]	; 13994 <OS_InitMisc+0x9c>
   13934:	e3a02000 	mov	r2, #0
   13938:	e5c32000 	strb	r2, [r3]
   1393c:	e59f3054 	ldr	r3, [pc, #84]	; 13998 <OS_InitMisc+0xa0>
   13940:	e3a02000 	mov	r2, #0
   13944:	e5832000 	str	r2, [r3]
   13948:	e59f304c 	ldr	r3, [pc, #76]	; 1399c <OS_InitMisc+0xa4>
   1394c:	e3a02000 	mov	r2, #0
   13950:	e5832000 	str	r2, [r3]
   13954:	e59f3044 	ldr	r3, [pc, #68]	; 139a0 <OS_InitMisc+0xa8>
   13958:	e3a02000 	mov	r2, #0
   1395c:	e5832000 	str	r2, [r3]
   13960:	e59f303c 	ldr	r3, [pc, #60]	; 139a4 <OS_InitMisc+0xac>
   13964:	e3a02000 	mov	r2, #0
   13968:	e5832000 	str	r2, [r3]
   1396c:	e59f3034 	ldr	r3, [pc, #52]	; 139a8 <OS_InitMisc+0xb0>
   13970:	e3a02000 	mov	r2, #0
   13974:	e5c32000 	strb	r2, [r3]
   13978:	e24bd000 	sub	sp, fp, #0
   1397c:	e49db004 	pop	{fp}		; (ldr fp, [sp], #4)
   13980:	e12fff1e 	bx	lr
   13984:	0001bddc 	ldrdeq	fp, [r1], -ip
   13988:	0001bdd5 	ldrdeq	fp, [r1], -r5
   1398c:	0001b47c 	andeq	fp, r1, ip, ror r4
   13990:	0001bd3d 	andeq	fp, r1, sp, lsr sp
   13994:	0001b47d 	andeq	fp, r1, sp, ror r4
   13998:	0001bd30 	andeq	fp, r1, r0, lsr sp
   1399c:	0001b480 	andeq	fp, r1, r0, lsl #9
   139a0:	0001cb4c 	andeq	ip, r1, ip, asr #22
   139a4:	0001bd34 	andeq	fp, r1, r4, lsr sp
   139a8:	0001ca48 	andeq	ip, r1, r8, asr #20

000139ac <OS_InitRdyList>:
   139ac:	e52db004 	push	{fp}		; (str fp, [sp, #-4]!)
   139b0:	e28db000 	add	fp, sp, #0
   139b4:	e24dd00c 	sub	sp, sp, #12
   139b8:	e59f3080 	ldr	r3, [pc, #128]	; 13a40 <OS_InitRdyList+0x94>
   139bc:	e3a02000 	mov	r2, #0
   139c0:	e5c32000 	strb	r2, [r3]
   139c4:	e59f3078 	ldr	r3, [pc, #120]	; 13a44 <OS_InitRdyList+0x98>
   139c8:	e50b300c 	str	r3, [fp, #-12]
   139cc:	e3a03000 	mov	r3, #0
   139d0:	e14b30b6 	strh	r3, [fp, #-6]
   139d4:	ea000007 	b	139f8 <OS_InitRdyList+0x4c>
   139d8:	e51b300c 	ldr	r3, [fp, #-12]
   139dc:	e2832001 	add	r2, r3, #1
   139e0:	e50b200c 	str	r2, [fp, #-12]
   139e4:	e3a02000 	mov	r2, #0
   139e8:	e5c32000 	strb	r2, [r3]
   139ec:	e15b30b6 	ldrh	r3, [fp, #-6]
   139f0:	e2833001 	add	r3, r3, #1
   139f4:	e14b30b6 	strh	r3, [fp, #-6]
   139f8:	e15b30b6 	ldrh	r3, [fp, #-6]
   139fc:	e3530007 	cmp	r3, #7
   13a00:	9afffff4 	bls	139d8 <OS_InitRdyList+0x2c>
   13a04:	e59f303c 	ldr	r3, [pc, #60]	; 13a48 <OS_InitRdyList+0x9c>
   13a08:	e3a02000 	mov	r2, #0
   13a0c:	e5c32000 	strb	r2, [r3]
   13a10:	e59f3034 	ldr	r3, [pc, #52]	; 13a4c <OS_InitRdyList+0xa0>
   13a14:	e3a02000 	mov	r2, #0
   13a18:	e5c32000 	strb	r2, [r3]
   13a1c:	e59f302c 	ldr	r3, [pc, #44]	; 13a50 <OS_InitRdyList+0xa4>
   13a20:	e3a02000 	mov	r2, #0
   13a24:	e5832000 	str	r2, [r3]
   13a28:	e59f3024 	ldr	r3, [pc, #36]	; 13a54 <OS_InitRdyList+0xa8>
   13a2c:	e3a02000 	mov	r2, #0
   13a30:	e5832000 	str	r2, [r3]
   13a34:	e24bd000 	sub	sp, fp, #0
   13a38:	e49db004 	pop	{fp}		; (ldr fp, [sp], #4)
   13a3c:	e12fff1e 	bx	lr
   13a40:	0001bdc4 	andeq	fp, r1, r4, asr #27
   13a44:	0001bdc8 	andeq	fp, r1, r8, asr #27
   13a48:	0001b4c4 	andeq	fp, r1, r4, asr #9
   13a4c:	0001b484 	andeq	fp, r1, r4, lsl #9
   13a50:	0001bdbc 			; <UNDEFINED> instruction: 0x0001bdbc
   13a54:	0001bdd8 	ldrdeq	fp, [r1], -r8

00013a58 <OS_InitTaskIdle>:
   13a58:	e92d4800 	push	{fp, lr}
   13a5c:	e28db004 	add	fp, sp, #4
   13a60:	e24dd018 	sub	sp, sp, #24
   13a64:	e59f303c 	ldr	r3, [pc, #60]	; 13aa8 <OS_InitTaskIdle+0x50>
   13a68:	e58d3000 	str	r3, [sp]
   13a6c:	e59f3038 	ldr	r3, [pc, #56]	; 13aac <OS_InitTaskIdle+0x54>
   13a70:	e58d3004 	str	r3, [sp, #4]
   13a74:	e3a03c02 	mov	r3, #512	; 0x200
   13a78:	e58d3008 	str	r3, [sp, #8]
   13a7c:	e3a03000 	mov	r3, #0
   13a80:	e58d300c 	str	r3, [sp, #12]
   13a84:	e3a03003 	mov	r3, #3
   13a88:	e58d3010 	str	r3, [sp, #16]
   13a8c:	e59f001c 	ldr	r0, [pc, #28]	; 13ab0 <OS_InitTaskIdle+0x58>
   13a90:	e3a01000 	mov	r1, #0
   13a94:	e59f2018 	ldr	r2, [pc, #24]	; 13ab4 <OS_InitTaskIdle+0x5c>
   13a98:	e3a0303f 	mov	r3, #63	; 0x3f
   13a9c:	eb00135a 	bl	1880c <OSTaskCreateExt>
   13aa0:	e24bd004 	sub	sp, fp, #4
   13aa4:	e8bd8800 	pop	{fp, pc}
   13aa8:	0000ffff 	strdeq	pc, [r0], -pc	; <UNPREDICTABLE>
   13aac:	0001bde0 	andeq	fp, r1, r0, ror #27
   13ab0:	00013cf4 	strdeq	r3, [r1], -r4
   13ab4:	0001c5dc 	ldrdeq	ip, [r1], -ip	; <UNPREDICTABLE>

00013ab8 <OS_InitTaskStat>:
   13ab8:	e92d4800 	push	{fp, lr}
   13abc:	e28db004 	add	fp, sp, #4
   13ac0:	e24dd018 	sub	sp, sp, #24
   13ac4:	e59f303c 	ldr	r3, [pc, #60]	; 13b08 <OS_InitTaskStat+0x50>
   13ac8:	e58d3000 	str	r3, [sp]
   13acc:	e59f3038 	ldr	r3, [pc, #56]	; 13b0c <OS_InitTaskStat+0x54>
   13ad0:	e58d3004 	str	r3, [sp, #4]
   13ad4:	e3a03c02 	mov	r3, #512	; 0x200
   13ad8:	e58d3008 	str	r3, [sp, #8]
   13adc:	e3a03000 	mov	r3, #0
   13ae0:	e58d300c 	str	r3, [sp, #12]
   13ae4:	e3a03003 	mov	r3, #3
   13ae8:	e58d3010 	str	r3, [sp, #16]
   13aec:	e59f001c 	ldr	r0, [pc, #28]	; 13b10 <OS_InitTaskStat+0x58>
   13af0:	e3a01000 	mov	r1, #0
   13af4:	e59f2018 	ldr	r2, [pc, #24]	; 13b14 <OS_InitTaskStat+0x5c>
   13af8:	e3a0303e 	mov	r3, #62	; 0x3e
   13afc:	eb001342 	bl	1880c <OSTaskCreateExt>
   13b00:	e24bd004 	sub	sp, fp, #4
   13b04:	e8bd8800 	pop	{fp, pc}
   13b08:	0000fffe 	strdeq	pc, [r0], -lr
   13b0c:	0001b530 	andeq	fp, r1, r0, lsr r5
   13b10:	00013d38 	andeq	r3, r1, r8, lsr sp
   13b14:	0001bd2c 	andeq	fp, r1, ip, lsr #26

00013b18 <OS_InitTCBList>:
   13b18:	e52db004 	push	{fp}		; (str fp, [sp, #-4]!)
   13b1c:	e28db000 	add	fp, sp, #0
   13b20:	e24dd014 	sub	sp, sp, #20
   13b24:	e59f30b4 	ldr	r3, [pc, #180]	; 13be0 <OS_InitTCBList+0xc8>
   13b28:	e3a02000 	mov	r2, #0
   13b2c:	e5832000 	str	r2, [r3]
   13b30:	e3a03000 	mov	r3, #0
   13b34:	e54b3005 	strb	r3, [fp, #-5]
   13b38:	ea000006 	b	13b58 <OS_InitTCBList+0x40>
   13b3c:	e55b2005 	ldrb	r2, [fp, #-5]
   13b40:	e59f309c 	ldr	r3, [pc, #156]	; 13be4 <OS_InitTCBList+0xcc>
   13b44:	e3a01000 	mov	r1, #0
   13b48:	e7831102 	str	r1, [r3, r2, lsl #2]
   13b4c:	e55b3005 	ldrb	r3, [fp, #-5]
   13b50:	e2833001 	add	r3, r3, #1
   13b54:	e54b3005 	strb	r3, [fp, #-5]
   13b58:	e55b3005 	ldrb	r3, [fp, #-5]
   13b5c:	e353003f 	cmp	r3, #63	; 0x3f
   13b60:	9afffff5 	bls	13b3c <OS_InitTCBList+0x24>
   13b64:	e59f307c 	ldr	r3, [pc, #124]	; 13be8 <OS_InitTCBList+0xd0>
   13b68:	e50b300c 	str	r3, [fp, #-12]
   13b6c:	e59f3078 	ldr	r3, [pc, #120]	; 13bec <OS_InitTCBList+0xd4>
   13b70:	e50b3010 	str	r3, [fp, #-16]
   13b74:	e3a03000 	mov	r3, #0
   13b78:	e54b3005 	strb	r3, [fp, #-5]
   13b7c:	ea00000b 	b	13bb0 <OS_InitTCBList+0x98>
   13b80:	e51b300c 	ldr	r3, [fp, #-12]
   13b84:	e51b2010 	ldr	r2, [fp, #-16]
   13b88:	e5832014 	str	r2, [r3, #20]
   13b8c:	e51b300c 	ldr	r3, [fp, #-12]
   13b90:	e2833034 	add	r3, r3, #52	; 0x34
   13b94:	e50b300c 	str	r3, [fp, #-12]
   13b98:	e51b3010 	ldr	r3, [fp, #-16]
   13b9c:	e2833034 	add	r3, r3, #52	; 0x34
   13ba0:	e50b3010 	str	r3, [fp, #-16]
   13ba4:	e55b3005 	ldrb	r3, [fp, #-5]
   13ba8:	e2833001 	add	r3, r3, #1
   13bac:	e54b3005 	strb	r3, [fp, #-5]
   13bb0:	e55b3005 	ldrb	r3, [fp, #-5]
   13bb4:	e353000f 	cmp	r3, #15
   13bb8:	9afffff0 	bls	13b80 <OS_InitTCBList+0x68>
   13bbc:	e51b300c 	ldr	r3, [fp, #-12]
   13bc0:	e3a02000 	mov	r2, #0
   13bc4:	e5832014 	str	r2, [r3, #20]
   13bc8:	e59f3020 	ldr	r3, [pc, #32]	; 13bf0 <OS_InitTCBList+0xd8>
   13bcc:	e59f2014 	ldr	r2, [pc, #20]	; 13be8 <OS_InitTCBList+0xd0>
   13bd0:	e5832000 	str	r2, [r3]
   13bd4:	e24bd000 	sub	sp, fp, #0
   13bd8:	e49db004 	pop	{fp}		; (ldr fp, [sp], #4)
   13bdc:	e12fff1e 	bx	lr
   13be0:	0001b4c8 	andeq	fp, r1, r8, asr #9
   13be4:	0001ca4c 	andeq	ip, r1, ip, asr #20
   13be8:	0001c6d0 	ldrdeq	ip, [r1], -r0
   13bec:	0001c704 	andeq	ip, r1, r4, lsl #14
   13bf0:	0001bd38 	andeq	fp, r1, r8, lsr sp

00013bf4 <OS_Sched>:
   13bf4:	e92d4800 	push	{fp, lr}
   13bf8:	e28db004 	add	fp, sp, #4
   13bfc:	e24dd008 	sub	sp, sp, #8
   13c00:	ebfffb69 	bl	129ac <OS_CPU_SR_Save>
   13c04:	e1a03000 	mov	r3, r0
   13c08:	e50b3008 	str	r3, [fp, #-8]
   13c0c:	e59f30b8 	ldr	r3, [pc, #184]	; 13ccc <OS_Sched+0xd8>
   13c10:	e5d33000 	ldrb	r3, [r3]
   13c14:	e3530000 	cmp	r3, #0
   13c18:	1a000027 	bne	13cbc <OS_Sched+0xc8>
   13c1c:	e59f30ac 	ldr	r3, [pc, #172]	; 13cd0 <OS_Sched+0xdc>
   13c20:	e5d33000 	ldrb	r3, [r3]
   13c24:	e3530000 	cmp	r3, #0
   13c28:	1a000023 	bne	13cbc <OS_Sched+0xc8>
   13c2c:	e59f30a0 	ldr	r3, [pc, #160]	; 13cd4 <OS_Sched+0xe0>
   13c30:	e5d33000 	ldrb	r3, [r3]
   13c34:	e59f209c 	ldr	r2, [pc, #156]	; 13cd8 <OS_Sched+0xe4>
   13c38:	e7d23003 	ldrb	r3, [r2, r3]
   13c3c:	e54b3009 	strb	r3, [fp, #-9]
   13c40:	e55b3009 	ldrb	r3, [fp, #-9]
   13c44:	e1a03183 	lsl	r3, r3, #3
   13c48:	e6ef2073 	uxtb	r2, r3
   13c4c:	e55b3009 	ldrb	r3, [fp, #-9]
   13c50:	e59f1084 	ldr	r1, [pc, #132]	; 13cdc <OS_Sched+0xe8>
   13c54:	e7d13003 	ldrb	r3, [r1, r3]
   13c58:	e59f1078 	ldr	r1, [pc, #120]	; 13cd8 <OS_Sched+0xe4>
   13c5c:	e7d13003 	ldrb	r3, [r1, r3]
   13c60:	e0823003 	add	r3, r2, r3
   13c64:	e6ef2073 	uxtb	r2, r3
   13c68:	e59f3070 	ldr	r3, [pc, #112]	; 13ce0 <OS_Sched+0xec>
   13c6c:	e5c32000 	strb	r2, [r3]
   13c70:	e59f3068 	ldr	r3, [pc, #104]	; 13ce0 <OS_Sched+0xec>
   13c74:	e5d32000 	ldrb	r2, [r3]
   13c78:	e59f3064 	ldr	r3, [pc, #100]	; 13ce4 <OS_Sched+0xf0>
   13c7c:	e5d33000 	ldrb	r3, [r3]
   13c80:	e1520003 	cmp	r2, r3
   13c84:	0a00000c 	beq	13cbc <OS_Sched+0xc8>
   13c88:	e59f3050 	ldr	r3, [pc, #80]	; 13ce0 <OS_Sched+0xec>
   13c8c:	e5d33000 	ldrb	r3, [r3]
   13c90:	e1a02003 	mov	r2, r3
   13c94:	e59f304c 	ldr	r3, [pc, #76]	; 13ce8 <OS_Sched+0xf4>
   13c98:	e7932102 	ldr	r2, [r3, r2, lsl #2]
   13c9c:	e59f3048 	ldr	r3, [pc, #72]	; 13cec <OS_Sched+0xf8>
   13ca0:	e5832000 	str	r2, [r3]
   13ca4:	e59f3044 	ldr	r3, [pc, #68]	; 13cf0 <OS_Sched+0xfc>
   13ca8:	e5933000 	ldr	r3, [r3]
   13cac:	e2832001 	add	r2, r3, #1
   13cb0:	e59f3038 	ldr	r3, [pc, #56]	; 13cf0 <OS_Sched+0xfc>
   13cb4:	e5832000 	str	r2, [r3]
   13cb8:	ebfffad8 	bl	12820 <OSCtxSw>
   13cbc:	e51b0008 	ldr	r0, [fp, #-8]
   13cc0:	ebfffb41 	bl	129cc <OS_CPU_SR_Restore>
   13cc4:	e24bd004 	sub	sp, fp, #4
   13cc8:	e8bd8800 	pop	{fp, pc}
   13ccc:	0001bdd5 	ldrdeq	fp, [r1], -r5
   13cd0:	0001b47c 	andeq	fp, r1, ip, ror r4
   13cd4:	0001bdc4 	andeq	fp, r1, r4, asr #27
   13cd8:	00019eac 	andeq	r9, r1, ip, lsr #29
   13cdc:	0001bdc8 	andeq	fp, r1, r8, asr #27
   13ce0:	0001b484 	andeq	fp, r1, r4, lsl #9
   13ce4:	0001b4c4 	andeq	fp, r1, r4, asr #9
   13ce8:	0001ca4c 	andeq	ip, r1, ip, asr #20
   13cec:	0001bdbc 			; <UNDEFINED> instruction: 0x0001bdbc
   13cf0:	0001bd30 	andeq	fp, r1, r0, lsr sp

00013cf4 <OS_TaskIdle>:
   13cf4:	e92d4800 	push	{fp, lr}
   13cf8:	e28db004 	add	fp, sp, #4
   13cfc:	e24dd010 	sub	sp, sp, #16
   13d00:	e50b0010 	str	r0, [fp, #-16]
   13d04:	ebfffb28 	bl	129ac <OS_CPU_SR_Save>
   13d08:	e1a03000 	mov	r3, r0
   13d0c:	e50b3008 	str	r3, [fp, #-8]
   13d10:	e59f301c 	ldr	r3, [pc, #28]	; 13d34 <OS_TaskIdle+0x40>
   13d14:	e5933000 	ldr	r3, [r3]
   13d18:	e2832001 	add	r2, r3, #1
   13d1c:	e59f3010 	ldr	r3, [pc, #16]	; 13d34 <OS_TaskIdle+0x40>
   13d20:	e5832000 	str	r2, [r3]
   13d24:	e51b0008 	ldr	r0, [fp, #-8]
   13d28:	ebfffb27 	bl	129cc <OS_CPU_SR_Restore>
   13d2c:	ebfffc06 	bl	12d4c <OSTaskIdleHook>
   13d30:	eafffff3 	b	13d04 <OS_TaskIdle+0x10>
   13d34:	0001b480 	andeq	fp, r1, r0, lsl #9

00013d38 <OS_TaskStat>:
   13d38:	e92d4800 	push	{fp, lr}
   13d3c:	e28db004 	add	fp, sp, #4
   13d40:	e24dd018 	sub	sp, sp, #24
   13d44:	e50b0018 	str	r0, [fp, #-24]
   13d48:	ea000001 	b	13d54 <OS_TaskStat+0x1c>
   13d4c:	e3a000c8 	mov	r0, #200	; 0xc8
   13d50:	eb00156e 	bl	19310 <OSTimeDly>
   13d54:	e59f30e8 	ldr	r3, [pc, #232]	; 13e44 <OS_TaskStat+0x10c>
   13d58:	e5d33000 	ldrb	r3, [r3]
   13d5c:	e3530000 	cmp	r3, #0
   13d60:	0afffff9 	beq	13d4c <OS_TaskStat+0x14>
   13d64:	e59f30dc 	ldr	r3, [pc, #220]	; 13e48 <OS_TaskStat+0x110>
   13d68:	e5932000 	ldr	r2, [r3]
   13d6c:	e59f30d8 	ldr	r3, [pc, #216]	; 13e4c <OS_TaskStat+0x114>
   13d70:	e0831293 	umull	r1, r3, r3, r2
   13d74:	e1a032a3 	lsr	r3, r3, #5
   13d78:	e50b3008 	str	r3, [fp, #-8]
   13d7c:	ebfffb0a 	bl	129ac <OS_CPU_SR_Save>
   13d80:	e1a03000 	mov	r3, r0
   13d84:	e50b300c 	str	r3, [fp, #-12]
   13d88:	e59f30c0 	ldr	r3, [pc, #192]	; 13e50 <OS_TaskStat+0x118>
   13d8c:	e5932000 	ldr	r2, [r3]
   13d90:	e59f30bc 	ldr	r3, [pc, #188]	; 13e54 <OS_TaskStat+0x11c>
   13d94:	e5832000 	str	r2, [r3]
   13d98:	e59f30b0 	ldr	r3, [pc, #176]	; 13e50 <OS_TaskStat+0x118>
   13d9c:	e5933000 	ldr	r3, [r3]
   13da0:	e50b3010 	str	r3, [fp, #-16]
   13da4:	e59f30a4 	ldr	r3, [pc, #164]	; 13e50 <OS_TaskStat+0x118>
   13da8:	e3a02000 	mov	r2, #0
   13dac:	e5832000 	str	r2, [r3]
   13db0:	e51b000c 	ldr	r0, [fp, #-12]
   13db4:	ebfffb04 	bl	129cc <OS_CPU_SR_Restore>
   13db8:	e51b3008 	ldr	r3, [fp, #-8]
   13dbc:	e3530000 	cmp	r3, #0
   13dc0:	0a000012 	beq	13e10 <OS_TaskStat+0xd8>
   13dc4:	e51b0010 	ldr	r0, [fp, #-16]
   13dc8:	e51b1008 	ldr	r1, [fp, #-8]
   13dcc:	eb0017aa 	bl	19c7c <__aeabi_uidiv>
   13dd0:	e1a03000 	mov	r3, r0
   13dd4:	e6ef3073 	uxtb	r3, r3
   13dd8:	e2633064 	rsb	r3, r3, #100	; 0x64
   13ddc:	e6ef3073 	uxtb	r3, r3
   13de0:	e54b3011 	strb	r3, [fp, #-17]
   13de4:	e15b31d1 	ldrsb	r3, [fp, #-17]	; 0xffffffef
   13de8:	e3530000 	cmp	r3, #0
   13dec:	ba000003 	blt	13e00 <OS_TaskStat+0xc8>
   13df0:	e59f3060 	ldr	r3, [pc, #96]	; 13e58 <OS_TaskStat+0x120>
   13df4:	e55b2011 	ldrb	r2, [fp, #-17]
   13df8:	e5c32000 	strb	r2, [r3]
   13dfc:	ea00000c 	b	13e34 <OS_TaskStat+0xfc>
   13e00:	e59f3050 	ldr	r3, [pc, #80]	; 13e58 <OS_TaskStat+0x120>
   13e04:	e3a02000 	mov	r2, #0
   13e08:	e5c32000 	strb	r2, [r3]
   13e0c:	ea000008 	b	13e34 <OS_TaskStat+0xfc>
   13e10:	e59f3040 	ldr	r3, [pc, #64]	; 13e58 <OS_TaskStat+0x120>
   13e14:	e3a02000 	mov	r2, #0
   13e18:	e5c32000 	strb	r2, [r3]
   13e1c:	e59f3024 	ldr	r3, [pc, #36]	; 13e48 <OS_TaskStat+0x110>
   13e20:	e5932000 	ldr	r2, [r3]
   13e24:	e59f3020 	ldr	r3, [pc, #32]	; 13e4c <OS_TaskStat+0x114>
   13e28:	e0831293 	umull	r1, r3, r3, r2
   13e2c:	e1a032a3 	lsr	r3, r3, #5
   13e30:	e50b3008 	str	r3, [fp, #-8]
   13e34:	ebfffbb0 	bl	12cfc <OSTaskStatHook>
   13e38:	e3a00064 	mov	r0, #100	; 0x64
   13e3c:	eb001533 	bl	19310 <OSTimeDly>
   13e40:	eaffffcd 	b	13d7c <OS_TaskStat+0x44>
   13e44:	0001ca48 	andeq	ip, r1, r8, asr #20
   13e48:	0001bd34 	andeq	fp, r1, r4, lsr sp
   13e4c:	51eb851f 	mvnpl	r8, pc, lsl r5
   13e50:	0001b480 	andeq	fp, r1, r0, lsl #9
   13e54:	0001cb4c 	andeq	ip, r1, ip, asr #22
   13e58:	0001bd3c 	andeq	fp, r1, ip, lsr sp

00013e5c <OS_TCBInit>:
   13e5c:	e92d4800 	push	{fp, lr}
   13e60:	e28db004 	add	fp, sp, #4
   13e64:	e24dd018 	sub	sp, sp, #24
   13e68:	e50b1014 	str	r1, [fp, #-20]
   13e6c:	e50b2018 	str	r2, [fp, #-24]
   13e70:	e1a02000 	mov	r2, r0
   13e74:	e54b200d 	strb	r2, [fp, #-13]
   13e78:	e14b31b0 	strh	r3, [fp, #-16]
   13e7c:	ebfffaca 	bl	129ac <OS_CPU_SR_Save>
   13e80:	e1a03000 	mov	r3, r0
   13e84:	e50b3008 	str	r3, [fp, #-8]
   13e88:	e59f3208 	ldr	r3, [pc, #520]	; 14098 <OS_TCBInit+0x23c>
   13e8c:	e5933000 	ldr	r3, [r3]
   13e90:	e50b300c 	str	r3, [fp, #-12]
   13e94:	e51b300c 	ldr	r3, [fp, #-12]
   13e98:	e3530000 	cmp	r3, #0
   13e9c:	0a000077 	beq	14080 <OS_TCBInit+0x224>
   13ea0:	e51b300c 	ldr	r3, [fp, #-12]
   13ea4:	e5932014 	ldr	r2, [r3, #20]
   13ea8:	e59f31e8 	ldr	r3, [pc, #488]	; 14098 <OS_TCBInit+0x23c>
   13eac:	e5832000 	str	r2, [r3]
   13eb0:	e51b0008 	ldr	r0, [fp, #-8]
   13eb4:	ebfffac4 	bl	129cc <OS_CPU_SR_Restore>
   13eb8:	e51b300c 	ldr	r3, [fp, #-12]
   13ebc:	e51b2014 	ldr	r2, [fp, #-20]
   13ec0:	e5832000 	str	r2, [r3]
   13ec4:	e51b300c 	ldr	r3, [fp, #-12]
   13ec8:	e55b200d 	ldrb	r2, [fp, #-13]
   13ecc:	e5c3202d 	strb	r2, [r3, #45]	; 0x2d
   13ed0:	e51b300c 	ldr	r3, [fp, #-12]
   13ed4:	e3a02000 	mov	r2, #0
   13ed8:	e5c3202c 	strb	r2, [r3, #44]	; 0x2c
   13edc:	e51b300c 	ldr	r3, [fp, #-12]
   13ee0:	e3a02000 	mov	r2, #0
   13ee4:	e1c322ba 	strh	r2, [r3, #42]	; 0x2a
   13ee8:	e51b300c 	ldr	r3, [fp, #-12]
   13eec:	e59b2008 	ldr	r2, [fp, #8]
   13ef0:	e5832004 	str	r2, [r3, #4]
   13ef4:	e51b300c 	ldr	r3, [fp, #-12]
   13ef8:	e59b2004 	ldr	r2, [fp, #4]
   13efc:	e583200c 	str	r2, [r3, #12]
   13f00:	e51b300c 	ldr	r3, [fp, #-12]
   13f04:	e51b2018 	ldr	r2, [fp, #-24]
   13f08:	e5832008 	str	r2, [r3, #8]
   13f0c:	e51b300c 	ldr	r3, [fp, #-12]
   13f10:	e1db20bc 	ldrh	r2, [fp, #12]
   13f14:	e1c321b0 	strh	r2, [r3, #16]
   13f18:	e51b300c 	ldr	r3, [fp, #-12]
   13f1c:	e15b21b0 	ldrh	r2, [fp, #-16]
   13f20:	e1c321b2 	strh	r2, [r3, #18]
   13f24:	e51b300c 	ldr	r3, [fp, #-12]
   13f28:	e3a02000 	mov	r2, #0
   13f2c:	e5c32032 	strb	r2, [r3, #50]	; 0x32
   13f30:	e55b300d 	ldrb	r3, [fp, #-13]
   13f34:	e1a031a3 	lsr	r3, r3, #3
   13f38:	e6ef2073 	uxtb	r2, r3
   13f3c:	e51b300c 	ldr	r3, [fp, #-12]
   13f40:	e5c3202f 	strb	r2, [r3, #47]	; 0x2f
   13f44:	e51b300c 	ldr	r3, [fp, #-12]
   13f48:	e5d3302f 	ldrb	r3, [r3, #47]	; 0x2f
   13f4c:	e59f2148 	ldr	r2, [pc, #328]	; 1409c <OS_TCBInit+0x240>
   13f50:	e7d22003 	ldrb	r2, [r2, r3]
   13f54:	e51b300c 	ldr	r3, [fp, #-12]
   13f58:	e5c32031 	strb	r2, [r3, #49]	; 0x31
   13f5c:	e55b300d 	ldrb	r3, [fp, #-13]
   13f60:	e2033007 	and	r3, r3, #7
   13f64:	e6ef2073 	uxtb	r2, r3
   13f68:	e51b300c 	ldr	r3, [fp, #-12]
   13f6c:	e5c3202e 	strb	r2, [r3, #46]	; 0x2e
   13f70:	e51b300c 	ldr	r3, [fp, #-12]
   13f74:	e5d3302e 	ldrb	r3, [r3, #46]	; 0x2e
   13f78:	e59f211c 	ldr	r2, [pc, #284]	; 1409c <OS_TCBInit+0x240>
   13f7c:	e7d22003 	ldrb	r2, [r2, r3]
   13f80:	e51b300c 	ldr	r3, [fp, #-12]
   13f84:	e5c32030 	strb	r2, [r3, #48]	; 0x30
   13f88:	e51b300c 	ldr	r3, [fp, #-12]
   13f8c:	e3a02000 	mov	r2, #0
   13f90:	e583201c 	str	r2, [r3, #28]
   13f94:	e51b300c 	ldr	r3, [fp, #-12]
   13f98:	e3a02000 	mov	r2, #0
   13f9c:	e5832024 	str	r2, [r3, #36]	; 0x24
   13fa0:	e51b300c 	ldr	r3, [fp, #-12]
   13fa4:	e3a02000 	mov	r2, #0
   13fa8:	e5832020 	str	r2, [r3, #32]
   13fac:	e51b000c 	ldr	r0, [fp, #-12]
   13fb0:	ebfffb6a 	bl	12d60 <OSTCBInitHook>
   13fb4:	e51b000c 	ldr	r0, [fp, #-12]
   13fb8:	ebfffb3c 	bl	12cb0 <OSTaskCreateHook>
   13fbc:	ebfffa7a 	bl	129ac <OS_CPU_SR_Save>
   13fc0:	e1a03000 	mov	r3, r0
   13fc4:	e50b3008 	str	r3, [fp, #-8]
   13fc8:	e55b200d 	ldrb	r2, [fp, #-13]
   13fcc:	e59f30cc 	ldr	r3, [pc, #204]	; 140a0 <OS_TCBInit+0x244>
   13fd0:	e51b100c 	ldr	r1, [fp, #-12]
   13fd4:	e7831102 	str	r1, [r3, r2, lsl #2]
   13fd8:	e59f30c4 	ldr	r3, [pc, #196]	; 140a4 <OS_TCBInit+0x248>
   13fdc:	e5932000 	ldr	r2, [r3]
   13fe0:	e51b300c 	ldr	r3, [fp, #-12]
   13fe4:	e5832014 	str	r2, [r3, #20]
   13fe8:	e51b300c 	ldr	r3, [fp, #-12]
   13fec:	e3a02000 	mov	r2, #0
   13ff0:	e5832018 	str	r2, [r3, #24]
   13ff4:	e59f30a8 	ldr	r3, [pc, #168]	; 140a4 <OS_TCBInit+0x248>
   13ff8:	e5933000 	ldr	r3, [r3]
   13ffc:	e3530000 	cmp	r3, #0
   14000:	0a000003 	beq	14014 <OS_TCBInit+0x1b8>
   14004:	e59f3098 	ldr	r3, [pc, #152]	; 140a4 <OS_TCBInit+0x248>
   14008:	e5933000 	ldr	r3, [r3]
   1400c:	e51b200c 	ldr	r2, [fp, #-12]
   14010:	e5832018 	str	r2, [r3, #24]
   14014:	e59f3088 	ldr	r3, [pc, #136]	; 140a4 <OS_TCBInit+0x248>
   14018:	e51b200c 	ldr	r2, [fp, #-12]
   1401c:	e5832000 	str	r2, [r3]
   14020:	e51b300c 	ldr	r3, [fp, #-12]
   14024:	e5d32031 	ldrb	r2, [r3, #49]	; 0x31
   14028:	e59f3078 	ldr	r3, [pc, #120]	; 140a8 <OS_TCBInit+0x24c>
   1402c:	e5d33000 	ldrb	r3, [r3]
   14030:	e1823003 	orr	r3, r2, r3
   14034:	e6ef2073 	uxtb	r2, r3
   14038:	e59f3068 	ldr	r3, [pc, #104]	; 140a8 <OS_TCBInit+0x24c>
   1403c:	e5c32000 	strb	r2, [r3]
   14040:	e51b300c 	ldr	r3, [fp, #-12]
   14044:	e5d3302f 	ldrb	r3, [r3, #47]	; 0x2f
   14048:	e51b200c 	ldr	r2, [fp, #-12]
   1404c:	e5d2202f 	ldrb	r2, [r2, #47]	; 0x2f
   14050:	e59f1054 	ldr	r1, [pc, #84]	; 140ac <OS_TCBInit+0x250>
   14054:	e7d11002 	ldrb	r1, [r1, r2]
   14058:	e51b200c 	ldr	r2, [fp, #-12]
   1405c:	e5d22030 	ldrb	r2, [r2, #48]	; 0x30
   14060:	e1812002 	orr	r2, r1, r2
   14064:	e6ef1072 	uxtb	r1, r2
   14068:	e59f203c 	ldr	r2, [pc, #60]	; 140ac <OS_TCBInit+0x250>
   1406c:	e7c21003 	strb	r1, [r2, r3]
   14070:	e51b0008 	ldr	r0, [fp, #-8]
   14074:	ebfffa54 	bl	129cc <OS_CPU_SR_Restore>
   14078:	e3a03000 	mov	r3, #0
   1407c:	ea000002 	b	1408c <OS_TCBInit+0x230>
   14080:	e51b0008 	ldr	r0, [fp, #-8]
   14084:	ebfffa50 	bl	129cc <OS_CPU_SR_Restore>
   14088:	e3a03046 	mov	r3, #70	; 0x46
   1408c:	e1a00003 	mov	r0, r3
   14090:	e24bd004 	sub	sp, fp, #4
   14094:	e8bd8800 	pop	{fp, pc}
   14098:	0001bd38 	andeq	fp, r1, r8, lsr sp
   1409c:	00019ea4 	andeq	r9, r1, r4, lsr #29
   140a0:	0001ca4c 	andeq	ip, r1, ip, asr #20
   140a4:	0001b4c8 	andeq	fp, r1, r8, asr #9
   140a8:	0001bdc4 	andeq	fp, r1, r4, asr #27
   140ac:	0001bdc8 	andeq	fp, r1, r8, asr #27

000140b0 <OSFlagAccept>:
   140b0:	e92d4800 	push	{fp, lr}
   140b4:	e28db004 	add	fp, sp, #4
   140b8:	e24dd020 	sub	sp, sp, #32
   140bc:	e50b0018 	str	r0, [fp, #-24]
   140c0:	e50b3020 	str	r3, [fp, #-32]
   140c4:	e14b11ba 	strh	r1, [fp, #-26]	; 0xffffffe6
   140c8:	e1a03002 	mov	r3, r2
   140cc:	e54b301b 	strb	r3, [fp, #-27]
   140d0:	e51b3018 	ldr	r3, [fp, #-24]
   140d4:	e3530000 	cmp	r3, #0
   140d8:	1a000004 	bne	140f0 <OSFlagAccept+0x40>
   140dc:	e51b3020 	ldr	r3, [fp, #-32]
   140e0:	e3e02069 	mvn	r2, #105	; 0x69
   140e4:	e5c32000 	strb	r2, [r3]
   140e8:	e3a03000 	mov	r3, #0
   140ec:	ea0000ad 	b	143a8 <OSFlagAccept+0x2f8>
   140f0:	e51b3018 	ldr	r3, [fp, #-24]
   140f4:	e5d33000 	ldrb	r3, [r3]
   140f8:	e3530005 	cmp	r3, #5
   140fc:	0a000004 	beq	14114 <OSFlagAccept+0x64>
   14100:	e51b3020 	ldr	r3, [fp, #-32]
   14104:	e3a02001 	mov	r2, #1
   14108:	e5c32000 	strb	r2, [r3]
   1410c:	e3a03000 	mov	r3, #0
   14110:	ea0000a4 	b	143a8 <OSFlagAccept+0x2f8>
   14114:	e55b301b 	ldrb	r3, [fp, #-27]
   14118:	e6af3073 	sxtb	r3, r3
   1411c:	e3530000 	cmp	r3, #0
   14120:	aa000005 	bge	1413c <OSFlagAccept+0x8c>
   14124:	e55b301b 	ldrb	r3, [fp, #-27]
   14128:	e203307f 	and	r3, r3, #127	; 0x7f
   1412c:	e54b301b 	strb	r3, [fp, #-27]
   14130:	e3a03001 	mov	r3, #1
   14134:	e54b3007 	strb	r3, [fp, #-7]
   14138:	ea000001 	b	14144 <OSFlagAccept+0x94>
   1413c:	e3a03000 	mov	r3, #0
   14140:	e54b3007 	strb	r3, [fp, #-7]
   14144:	e51b3020 	ldr	r3, [fp, #-32]
   14148:	e3a02000 	mov	r2, #0
   1414c:	e5c32000 	strb	r2, [r3]
   14150:	ebfffa15 	bl	129ac <OS_CPU_SR_Save>
   14154:	e1a03000 	mov	r3, r0
   14158:	e50b300c 	str	r3, [fp, #-12]
   1415c:	e55b301b 	ldrb	r3, [fp, #-27]
   14160:	e3530003 	cmp	r3, #3
   14164:	979ff103 	ldrls	pc, [pc, r3, lsl #2]
   14168:	ea000085 	b	14384 <OSFlagAccept+0x2d4>
   1416c:	00014280 	andeq	r4, r1, r0, lsl #5
   14170:	00014304 	andeq	r4, r1, r4, lsl #6
   14174:	0001417c 	andeq	r4, r1, ip, ror r1
   14178:	00014200 	andeq	r4, r1, r0, lsl #4
   1417c:	e51b3018 	ldr	r3, [fp, #-24]
   14180:	e1d320b8 	ldrh	r2, [r3, #8]
   14184:	e15b31ba 	ldrh	r3, [fp, #-26]	; 0xffffffe6
   14188:	e0023003 	and	r3, r2, r3
   1418c:	e14b30be 	strh	r3, [fp, #-14]
   14190:	e15b20be 	ldrh	r2, [fp, #-14]
   14194:	e15b31ba 	ldrh	r3, [fp, #-26]	; 0xffffffe6
   14198:	e1520003 	cmp	r2, r3
   1419c:	1a00000e 	bne	141dc <OSFlagAccept+0x12c>
   141a0:	e55b3007 	ldrb	r3, [fp, #-7]
   141a4:	e3530001 	cmp	r3, #1
   141a8:	1a00000e 	bne	141e8 <OSFlagAccept+0x138>
   141ac:	e51b3018 	ldr	r3, [fp, #-24]
   141b0:	e1d330b8 	ldrh	r3, [r3, #8]
   141b4:	e6ff2073 	uxth	r2, r3
   141b8:	e15b30be 	ldrh	r3, [fp, #-14]
   141bc:	e1e03003 	mvn	r3, r3
   141c0:	e6ff3073 	uxth	r3, r3
   141c4:	e0023003 	and	r3, r2, r3
   141c8:	e6ff3073 	uxth	r3, r3
   141cc:	e6ff2073 	uxth	r2, r3
   141d0:	e51b3018 	ldr	r3, [fp, #-24]
   141d4:	e1c320b8 	strh	r2, [r3, #8]
   141d8:	ea000002 	b	141e8 <OSFlagAccept+0x138>
   141dc:	e51b3020 	ldr	r3, [fp, #-32]
   141e0:	e3e02067 	mvn	r2, #103	; 0x67
   141e4:	e5c32000 	strb	r2, [r3]
   141e8:	e51b3018 	ldr	r3, [fp, #-24]
   141ec:	e1d330b8 	ldrh	r3, [r3, #8]
   141f0:	e14b30b6 	strh	r3, [fp, #-6]
   141f4:	e51b000c 	ldr	r0, [fp, #-12]
   141f8:	ebfff9f3 	bl	129cc <OS_CPU_SR_Restore>
   141fc:	ea000068 	b	143a4 <OSFlagAccept+0x2f4>
   14200:	e51b3018 	ldr	r3, [fp, #-24]
   14204:	e1d320b8 	ldrh	r2, [r3, #8]
   14208:	e15b31ba 	ldrh	r3, [fp, #-26]	; 0xffffffe6
   1420c:	e0023003 	and	r3, r2, r3
   14210:	e14b30be 	strh	r3, [fp, #-14]
   14214:	e15b30be 	ldrh	r3, [fp, #-14]
   14218:	e3530000 	cmp	r3, #0
   1421c:	0a00000e 	beq	1425c <OSFlagAccept+0x1ac>
   14220:	e55b3007 	ldrb	r3, [fp, #-7]
   14224:	e3530001 	cmp	r3, #1
   14228:	1a00000e 	bne	14268 <OSFlagAccept+0x1b8>
   1422c:	e51b3018 	ldr	r3, [fp, #-24]
   14230:	e1d330b8 	ldrh	r3, [r3, #8]
   14234:	e6ff2073 	uxth	r2, r3
   14238:	e15b30be 	ldrh	r3, [fp, #-14]
   1423c:	e1e03003 	mvn	r3, r3
   14240:	e6ff3073 	uxth	r3, r3
   14244:	e0023003 	and	r3, r2, r3
   14248:	e6ff3073 	uxth	r3, r3
   1424c:	e6ff2073 	uxth	r2, r3
   14250:	e51b3018 	ldr	r3, [fp, #-24]
   14254:	e1c320b8 	strh	r2, [r3, #8]
   14258:	ea000002 	b	14268 <OSFlagAccept+0x1b8>
   1425c:	e51b3020 	ldr	r3, [fp, #-32]
   14260:	e3e02067 	mvn	r2, #103	; 0x67
   14264:	e5c32000 	strb	r2, [r3]
   14268:	e51b3018 	ldr	r3, [fp, #-24]
   1426c:	e1d330b8 	ldrh	r3, [r3, #8]
   14270:	e14b30b6 	strh	r3, [fp, #-6]
   14274:	e51b000c 	ldr	r0, [fp, #-12]
   14278:	ebfff9d3 	bl	129cc <OS_CPU_SR_Restore>
   1427c:	ea000048 	b	143a4 <OSFlagAccept+0x2f4>
   14280:	e51b3018 	ldr	r3, [fp, #-24]
   14284:	e1d330b8 	ldrh	r3, [r3, #8]
   14288:	e6ff3073 	uxth	r3, r3
   1428c:	e1e03003 	mvn	r3, r3
   14290:	e6ff2073 	uxth	r2, r3
   14294:	e15b31ba 	ldrh	r3, [fp, #-26]	; 0xffffffe6
   14298:	e0023003 	and	r3, r2, r3
   1429c:	e6ff3073 	uxth	r3, r3
   142a0:	e14b30be 	strh	r3, [fp, #-14]
   142a4:	e15b20be 	ldrh	r2, [fp, #-14]
   142a8:	e15b31ba 	ldrh	r3, [fp, #-26]	; 0xffffffe6
   142ac:	e1520003 	cmp	r2, r3
   142b0:	1a00000a 	bne	142e0 <OSFlagAccept+0x230>
   142b4:	e55b3007 	ldrb	r3, [fp, #-7]
   142b8:	e3530001 	cmp	r3, #1
   142bc:	1a00000a 	bne	142ec <OSFlagAccept+0x23c>
   142c0:	e51b3018 	ldr	r3, [fp, #-24]
   142c4:	e1d320b8 	ldrh	r2, [r3, #8]
   142c8:	e15b30be 	ldrh	r3, [fp, #-14]
   142cc:	e1823003 	orr	r3, r2, r3
   142d0:	e6ff2073 	uxth	r2, r3
   142d4:	e51b3018 	ldr	r3, [fp, #-24]
   142d8:	e1c320b8 	strh	r2, [r3, #8]
   142dc:	ea000002 	b	142ec <OSFlagAccept+0x23c>
   142e0:	e51b3020 	ldr	r3, [fp, #-32]
   142e4:	e3e02067 	mvn	r2, #103	; 0x67
   142e8:	e5c32000 	strb	r2, [r3]
   142ec:	e51b3018 	ldr	r3, [fp, #-24]
   142f0:	e1d330b8 	ldrh	r3, [r3, #8]
   142f4:	e14b30b6 	strh	r3, [fp, #-6]
   142f8:	e51b000c 	ldr	r0, [fp, #-12]
   142fc:	ebfff9b2 	bl	129cc <OS_CPU_SR_Restore>
   14300:	ea000027 	b	143a4 <OSFlagAccept+0x2f4>
   14304:	e51b3018 	ldr	r3, [fp, #-24]
   14308:	e1d330b8 	ldrh	r3, [r3, #8]
   1430c:	e6ff3073 	uxth	r3, r3
   14310:	e1e03003 	mvn	r3, r3
   14314:	e6ff2073 	uxth	r2, r3
   14318:	e15b31ba 	ldrh	r3, [fp, #-26]	; 0xffffffe6
   1431c:	e0023003 	and	r3, r2, r3
   14320:	e6ff3073 	uxth	r3, r3
   14324:	e14b30be 	strh	r3, [fp, #-14]
   14328:	e15b30be 	ldrh	r3, [fp, #-14]
   1432c:	e3530000 	cmp	r3, #0
   14330:	0a00000a 	beq	14360 <OSFlagAccept+0x2b0>
   14334:	e55b3007 	ldrb	r3, [fp, #-7]
   14338:	e3530001 	cmp	r3, #1
   1433c:	1a00000a 	bne	1436c <OSFlagAccept+0x2bc>
   14340:	e51b3018 	ldr	r3, [fp, #-24]
   14344:	e1d320b8 	ldrh	r2, [r3, #8]
   14348:	e15b30be 	ldrh	r3, [fp, #-14]
   1434c:	e1823003 	orr	r3, r2, r3
   14350:	e6ff2073 	uxth	r2, r3
   14354:	e51b3018 	ldr	r3, [fp, #-24]
   14358:	e1c320b8 	strh	r2, [r3, #8]
   1435c:	ea000002 	b	1436c <OSFlagAccept+0x2bc>
   14360:	e51b3020 	ldr	r3, [fp, #-32]
   14364:	e3e02067 	mvn	r2, #103	; 0x67
   14368:	e5c32000 	strb	r2, [r3]
   1436c:	e51b3018 	ldr	r3, [fp, #-24]
   14370:	e1d330b8 	ldrh	r3, [r3, #8]
   14374:	e14b30b6 	strh	r3, [fp, #-6]
   14378:	e51b000c 	ldr	r0, [fp, #-12]
   1437c:	ebfff992 	bl	129cc <OS_CPU_SR_Restore>
   14380:	ea000007 	b	143a4 <OSFlagAccept+0x2f4>
   14384:	e51b000c 	ldr	r0, [fp, #-12]
   14388:	ebfff98f 	bl	129cc <OS_CPU_SR_Restore>
   1438c:	e3a03000 	mov	r3, #0
   14390:	e14b30b6 	strh	r3, [fp, #-6]
   14394:	e51b3020 	ldr	r3, [fp, #-32]
   14398:	e3e02068 	mvn	r2, #104	; 0x68
   1439c:	e5c32000 	strb	r2, [r3]
   143a0:	e1a00000 	nop			; (mov r0, r0)
   143a4:	e15b30b6 	ldrh	r3, [fp, #-6]
   143a8:	e1a00003 	mov	r0, r3
   143ac:	e24bd004 	sub	sp, fp, #4
   143b0:	e8bd8800 	pop	{fp, pc}

000143b4 <OSFlagCreate>:
   143b4:	e92d4800 	push	{fp, lr}
   143b8:	e28db004 	add	fp, sp, #4
   143bc:	e24dd010 	sub	sp, sp, #16
   143c0:	e1a03000 	mov	r3, r0
   143c4:	e50b1014 	str	r1, [fp, #-20]
   143c8:	e14b30be 	strh	r3, [fp, #-14]
   143cc:	e59f30b4 	ldr	r3, [pc, #180]	; 14488 <OSFlagCreate+0xd4>
   143d0:	e5d33000 	ldrb	r3, [r3]
   143d4:	e3530000 	cmp	r3, #0
   143d8:	0a000004 	beq	143f0 <OSFlagCreate+0x3c>
   143dc:	e51b3014 	ldr	r3, [fp, #-20]
   143e0:	e3e02072 	mvn	r2, #114	; 0x72
   143e4:	e5c32000 	strb	r2, [r3]
   143e8:	e3a03000 	mov	r3, #0
   143ec:	ea000022 	b	1447c <OSFlagCreate+0xc8>
   143f0:	ebfff96d 	bl	129ac <OS_CPU_SR_Save>
   143f4:	e1a03000 	mov	r3, r0
   143f8:	e50b3008 	str	r3, [fp, #-8]
   143fc:	e59f3088 	ldr	r3, [pc, #136]	; 1448c <OSFlagCreate+0xd8>
   14400:	e5933000 	ldr	r3, [r3]
   14404:	e50b300c 	str	r3, [fp, #-12]
   14408:	e51b300c 	ldr	r3, [fp, #-12]
   1440c:	e3530000 	cmp	r3, #0
   14410:	0a000013 	beq	14464 <OSFlagCreate+0xb0>
   14414:	e59f3070 	ldr	r3, [pc, #112]	; 1448c <OSFlagCreate+0xd8>
   14418:	e5933000 	ldr	r3, [r3]
   1441c:	e5932004 	ldr	r2, [r3, #4]
   14420:	e59f3064 	ldr	r3, [pc, #100]	; 1448c <OSFlagCreate+0xd8>
   14424:	e5832000 	str	r2, [r3]
   14428:	e51b300c 	ldr	r3, [fp, #-12]
   1442c:	e3a02005 	mov	r2, #5
   14430:	e5c32000 	strb	r2, [r3]
   14434:	e51b300c 	ldr	r3, [fp, #-12]
   14438:	e15b20be 	ldrh	r2, [fp, #-14]
   1443c:	e1c320b8 	strh	r2, [r3, #8]
   14440:	e51b300c 	ldr	r3, [fp, #-12]
   14444:	e3a02000 	mov	r2, #0
   14448:	e5832004 	str	r2, [r3, #4]
   1444c:	e51b0008 	ldr	r0, [fp, #-8]
   14450:	ebfff95d 	bl	129cc <OS_CPU_SR_Restore>
   14454:	e51b3014 	ldr	r3, [fp, #-20]
   14458:	e3a02000 	mov	r2, #0
   1445c:	e5c32000 	strb	r2, [r3]
   14460:	ea000004 	b	14478 <OSFlagCreate+0xc4>
   14464:	e51b0008 	ldr	r0, [fp, #-8]
   14468:	ebfff957 	bl	129cc <OS_CPU_SR_Restore>
   1446c:	e51b3014 	ldr	r3, [fp, #-20]
   14470:	e3e02065 	mvn	r2, #101	; 0x65
   14474:	e5c32000 	strb	r2, [r3]
   14478:	e51b300c 	ldr	r3, [fp, #-12]
   1447c:	e1a00003 	mov	r0, r3
   14480:	e24bd004 	sub	sp, fp, #4
   14484:	e8bd8800 	pop	{fp, pc}
   14488:	0001bdd5 	ldrdeq	fp, [r1], -r5
   1448c:	0001ca44 	andeq	ip, r1, r4, asr #20

00014490 <OSFlagDel>:
   14490:	e92d4800 	push	{fp, lr}
   14494:	e28db004 	add	fp, sp, #4
   14498:	e24dd020 	sub	sp, sp, #32
   1449c:	e50b0018 	str	r0, [fp, #-24]
   144a0:	e1a03001 	mov	r3, r1
   144a4:	e50b2020 	str	r2, [fp, #-32]
   144a8:	e54b3019 	strb	r3, [fp, #-25]
   144ac:	e59f31c0 	ldr	r3, [pc, #448]	; 14674 <OSFlagDel+0x1e4>
   144b0:	e5d33000 	ldrb	r3, [r3]
   144b4:	e3530000 	cmp	r3, #0
   144b8:	0a000004 	beq	144d0 <OSFlagDel+0x40>
   144bc:	e51b3020 	ldr	r3, [fp, #-32]
   144c0:	e3e02073 	mvn	r2, #115	; 0x73
   144c4:	e5c32000 	strb	r2, [r3]
   144c8:	e51b3018 	ldr	r3, [fp, #-24]
   144cc:	ea000065 	b	14668 <OSFlagDel+0x1d8>
   144d0:	e51b3018 	ldr	r3, [fp, #-24]
   144d4:	e3530000 	cmp	r3, #0
   144d8:	1a000004 	bne	144f0 <OSFlagDel+0x60>
   144dc:	e51b3020 	ldr	r3, [fp, #-32]
   144e0:	e3e02069 	mvn	r2, #105	; 0x69
   144e4:	e5c32000 	strb	r2, [r3]
   144e8:	e51b3018 	ldr	r3, [fp, #-24]
   144ec:	ea00005d 	b	14668 <OSFlagDel+0x1d8>
   144f0:	e51b3018 	ldr	r3, [fp, #-24]
   144f4:	e5d33000 	ldrb	r3, [r3]
   144f8:	e3530005 	cmp	r3, #5
   144fc:	0a000004 	beq	14514 <OSFlagDel+0x84>
   14500:	e51b3020 	ldr	r3, [fp, #-32]
   14504:	e3a02001 	mov	r2, #1
   14508:	e5c32000 	strb	r2, [r3]
   1450c:	e51b3018 	ldr	r3, [fp, #-24]
   14510:	ea000054 	b	14668 <OSFlagDel+0x1d8>
   14514:	ebfff924 	bl	129ac <OS_CPU_SR_Save>
   14518:	e1a03000 	mov	r3, r0
   1451c:	e50b3010 	str	r3, [fp, #-16]
   14520:	e51b3018 	ldr	r3, [fp, #-24]
   14524:	e5933004 	ldr	r3, [r3, #4]
   14528:	e3530000 	cmp	r3, #0
   1452c:	0a000002 	beq	1453c <OSFlagDel+0xac>
   14530:	e3a03001 	mov	r3, #1
   14534:	e54b3005 	strb	r3, [fp, #-5]
   14538:	ea000001 	b	14544 <OSFlagDel+0xb4>
   1453c:	e3a03000 	mov	r3, #0
   14540:	e54b3005 	strb	r3, [fp, #-5]
   14544:	e55b3019 	ldrb	r3, [fp, #-25]
   14548:	e3530000 	cmp	r3, #0
   1454c:	0a000002 	beq	1455c <OSFlagDel+0xcc>
   14550:	e3530001 	cmp	r3, #1
   14554:	0a00001b 	beq	145c8 <OSFlagDel+0x138>
   14558:	ea00003c 	b	14650 <OSFlagDel+0x1c0>
   1455c:	e55b3005 	ldrb	r3, [fp, #-5]
   14560:	e3530000 	cmp	r3, #0
   14564:	1a000010 	bne	145ac <OSFlagDel+0x11c>
   14568:	e51b3018 	ldr	r3, [fp, #-24]
   1456c:	e3a02000 	mov	r2, #0
   14570:	e5c32000 	strb	r2, [r3]
   14574:	e59f30fc 	ldr	r3, [pc, #252]	; 14678 <OSFlagDel+0x1e8>
   14578:	e5932000 	ldr	r2, [r3]
   1457c:	e51b3018 	ldr	r3, [fp, #-24]
   14580:	e5832004 	str	r2, [r3, #4]
   14584:	e59f30ec 	ldr	r3, [pc, #236]	; 14678 <OSFlagDel+0x1e8>
   14588:	e51b2018 	ldr	r2, [fp, #-24]
   1458c:	e5832000 	str	r2, [r3]
   14590:	e51b0010 	ldr	r0, [fp, #-16]
   14594:	ebfff90c 	bl	129cc <OS_CPU_SR_Restore>
   14598:	e51b3020 	ldr	r3, [fp, #-32]
   1459c:	e3a02000 	mov	r2, #0
   145a0:	e5c32000 	strb	r2, [r3]
   145a4:	e3a03000 	mov	r3, #0
   145a8:	ea00002e 	b	14668 <OSFlagDel+0x1d8>
   145ac:	e51b0010 	ldr	r0, [fp, #-16]
   145b0:	ebfff905 	bl	129cc <OS_CPU_SR_Restore>
   145b4:	e51b3020 	ldr	r3, [fp, #-32]
   145b8:	e3a02008 	mov	r2, #8
   145bc:	e5c32000 	strb	r2, [r3]
   145c0:	e51b3018 	ldr	r3, [fp, #-24]
   145c4:	ea000027 	b	14668 <OSFlagDel+0x1d8>
   145c8:	e51b3018 	ldr	r3, [fp, #-24]
   145cc:	e5933004 	ldr	r3, [r3, #4]
   145d0:	e50b300c 	str	r3, [fp, #-12]
   145d4:	ea000005 	b	145f0 <OSFlagDel+0x160>
   145d8:	e51b000c 	ldr	r0, [fp, #-12]
   145dc:	e3a01000 	mov	r1, #0
   145e0:	eb0002d0 	bl	15128 <OS_FlagTaskRdy>
   145e4:	e51b300c 	ldr	r3, [fp, #-12]
   145e8:	e5933000 	ldr	r3, [r3]
   145ec:	e50b300c 	str	r3, [fp, #-12]
   145f0:	e51b300c 	ldr	r3, [fp, #-12]
   145f4:	e3530000 	cmp	r3, #0
   145f8:	1afffff6 	bne	145d8 <OSFlagDel+0x148>
   145fc:	e51b3018 	ldr	r3, [fp, #-24]
   14600:	e3a02000 	mov	r2, #0
   14604:	e5c32000 	strb	r2, [r3]
   14608:	e59f3068 	ldr	r3, [pc, #104]	; 14678 <OSFlagDel+0x1e8>
   1460c:	e5932000 	ldr	r2, [r3]
   14610:	e51b3018 	ldr	r3, [fp, #-24]
   14614:	e5832004 	str	r2, [r3, #4]
   14618:	e59f3058 	ldr	r3, [pc, #88]	; 14678 <OSFlagDel+0x1e8>
   1461c:	e51b2018 	ldr	r2, [fp, #-24]
   14620:	e5832000 	str	r2, [r3]
   14624:	e51b0010 	ldr	r0, [fp, #-16]
   14628:	ebfff8e7 	bl	129cc <OS_CPU_SR_Restore>
   1462c:	e55b3005 	ldrb	r3, [fp, #-5]
   14630:	e3530001 	cmp	r3, #1
   14634:	1a000000 	bne	1463c <OSFlagDel+0x1ac>
   14638:	ebfffd6d 	bl	13bf4 <OS_Sched>
   1463c:	e51b3020 	ldr	r3, [fp, #-32]
   14640:	e3a02000 	mov	r2, #0
   14644:	e5c32000 	strb	r2, [r3]
   14648:	e3a03000 	mov	r3, #0
   1464c:	ea000005 	b	14668 <OSFlagDel+0x1d8>
   14650:	e51b0010 	ldr	r0, [fp, #-16]
   14654:	ebfff8dc 	bl	129cc <OS_CPU_SR_Restore>
   14658:	e51b3020 	ldr	r3, [fp, #-32]
   1465c:	e3a02007 	mov	r2, #7
   14660:	e5c32000 	strb	r2, [r3]
   14664:	e51b3018 	ldr	r3, [fp, #-24]
   14668:	e1a00003 	mov	r0, r3
   1466c:	e24bd004 	sub	sp, fp, #4
   14670:	e8bd8800 	pop	{fp, pc}
   14674:	0001bdd5 	ldrdeq	fp, [r1], -r5
   14678:	0001ca44 	andeq	ip, r1, r4, asr #20

0001467c <OSFlagPend>:
   1467c:	e92d4800 	push	{fp, lr}
   14680:	e28db004 	add	fp, sp, #4
   14684:	e24dd038 	sub	sp, sp, #56	; 0x38
   14688:	e50b0028 	str	r0, [fp, #-40]	; 0x28
   1468c:	e14b12ba 	strh	r1, [fp, #-42]	; 0xffffffd6
   14690:	e54b202b 	strb	r2, [fp, #-43]	; 0x2b
   14694:	e14b32be 	strh	r3, [fp, #-46]	; 0xffffffd2
   14698:	e59f34ac 	ldr	r3, [pc, #1196]	; 14b4c <OSFlagPend+0x4d0>
   1469c:	e5d33000 	ldrb	r3, [r3]
   146a0:	e3530000 	cmp	r3, #0
   146a4:	0a000004 	beq	146bc <OSFlagPend+0x40>
   146a8:	e59b3004 	ldr	r3, [fp, #4]
   146ac:	e3a02002 	mov	r2, #2
   146b0:	e5c32000 	strb	r2, [r3]
   146b4:	e3a03000 	mov	r3, #0
   146b8:	ea000120 	b	14b40 <OSFlagPend+0x4c4>
   146bc:	e51b3028 	ldr	r3, [fp, #-40]	; 0x28
   146c0:	e3530000 	cmp	r3, #0
   146c4:	1a000004 	bne	146dc <OSFlagPend+0x60>
   146c8:	e59b3004 	ldr	r3, [fp, #4]
   146cc:	e3e02069 	mvn	r2, #105	; 0x69
   146d0:	e5c32000 	strb	r2, [r3]
   146d4:	e3a03000 	mov	r3, #0
   146d8:	ea000118 	b	14b40 <OSFlagPend+0x4c4>
   146dc:	e51b3028 	ldr	r3, [fp, #-40]	; 0x28
   146e0:	e5d33000 	ldrb	r3, [r3]
   146e4:	e3530005 	cmp	r3, #5
   146e8:	0a000004 	beq	14700 <OSFlagPend+0x84>
   146ec:	e59b3004 	ldr	r3, [fp, #4]
   146f0:	e3a02001 	mov	r2, #1
   146f4:	e5c32000 	strb	r2, [r3]
   146f8:	e3a03000 	mov	r3, #0
   146fc:	ea00010f 	b	14b40 <OSFlagPend+0x4c4>
   14700:	e55b302b 	ldrb	r3, [fp, #-43]	; 0x2b
   14704:	e6af3073 	sxtb	r3, r3
   14708:	e3530000 	cmp	r3, #0
   1470c:	aa000005 	bge	14728 <OSFlagPend+0xac>
   14710:	e55b302b 	ldrb	r3, [fp, #-43]	; 0x2b
   14714:	e203307f 	and	r3, r3, #127	; 0x7f
   14718:	e54b302b 	strb	r3, [fp, #-43]	; 0x2b
   1471c:	e3a03001 	mov	r3, #1
   14720:	e54b3007 	strb	r3, [fp, #-7]
   14724:	ea000001 	b	14730 <OSFlagPend+0xb4>
   14728:	e3a03000 	mov	r3, #0
   1472c:	e54b3007 	strb	r3, [fp, #-7]
   14730:	ebfff89d 	bl	129ac <OS_CPU_SR_Save>
   14734:	e1a03000 	mov	r3, r0
   14738:	e50b300c 	str	r3, [fp, #-12]
   1473c:	e55b302b 	ldrb	r3, [fp, #-43]	; 0x2b
   14740:	e3530003 	cmp	r3, #3
   14744:	979ff103 	ldrls	pc, [pc, r3, lsl #2]
   14748:	ea0000ad 	b	14a04 <OSFlagPend+0x388>
   1474c:	000148b0 			; <UNDEFINED> instruction: 0x000148b0
   14750:	0001495c 	andeq	r4, r1, ip, asr r9
   14754:	0001475c 	andeq	r4, r1, ip, asr r7
   14758:	00014808 	andeq	r4, r1, r8, lsl #16
   1475c:	e51b3028 	ldr	r3, [fp, #-40]	; 0x28
   14760:	e1d320b8 	ldrh	r2, [r3, #8]
   14764:	e15b32ba 	ldrh	r3, [fp, #-42]	; 0xffffffd6
   14768:	e0023003 	and	r3, r2, r3
   1476c:	e14b30be 	strh	r3, [fp, #-14]
   14770:	e15b20be 	ldrh	r2, [fp, #-14]
   14774:	e15b32ba 	ldrh	r3, [fp, #-42]	; 0xffffffd6
   14778:	e1520003 	cmp	r2, r3
   1477c:	1a000017 	bne	147e0 <OSFlagPend+0x164>
   14780:	e55b3007 	ldrb	r3, [fp, #-7]
   14784:	e3530001 	cmp	r3, #1
   14788:	1a00000a 	bne	147b8 <OSFlagPend+0x13c>
   1478c:	e51b3028 	ldr	r3, [fp, #-40]	; 0x28
   14790:	e1d330b8 	ldrh	r3, [r3, #8]
   14794:	e6ff2073 	uxth	r2, r3
   14798:	e15b30be 	ldrh	r3, [fp, #-14]
   1479c:	e1e03003 	mvn	r3, r3
   147a0:	e6ff3073 	uxth	r3, r3
   147a4:	e0023003 	and	r3, r2, r3
   147a8:	e6ff3073 	uxth	r3, r3
   147ac:	e6ff2073 	uxth	r2, r3
   147b0:	e51b3028 	ldr	r3, [fp, #-40]	; 0x28
   147b4:	e1c320b8 	strh	r2, [r3, #8]
   147b8:	e51b3028 	ldr	r3, [fp, #-40]	; 0x28
   147bc:	e1d330b8 	ldrh	r3, [r3, #8]
   147c0:	e14b30b6 	strh	r3, [fp, #-6]
   147c4:	e51b000c 	ldr	r0, [fp, #-12]
   147c8:	ebfff87f 	bl	129cc <OS_CPU_SR_Restore>
   147cc:	e59b3004 	ldr	r3, [fp, #4]
   147d0:	e3a02000 	mov	r2, #0
   147d4:	e5c32000 	strb	r2, [r3]
   147d8:	e15b30b6 	ldrh	r3, [fp, #-6]
   147dc:	ea0000d7 	b	14b40 <OSFlagPend+0x4c4>
   147e0:	e24b1024 	sub	r1, fp, #36	; 0x24
   147e4:	e15b22ba 	ldrh	r2, [fp, #-42]	; 0xffffffd6
   147e8:	e55b302b 	ldrb	r3, [fp, #-43]	; 0x2b
   147ec:	e15b02be 	ldrh	r0, [fp, #-46]	; 0xffffffd2
   147f0:	e58d0000 	str	r0, [sp]
   147f4:	e51b0028 	ldr	r0, [fp, #-40]	; 0x28
   147f8:	eb0001bf 	bl	14efc <OS_FlagBlock>
   147fc:	e51b000c 	ldr	r0, [fp, #-12]
   14800:	ebfff871 	bl	129cc <OS_CPU_SR_Restore>
   14804:	ea000087 	b	14a28 <OSFlagPend+0x3ac>
   14808:	e51b3028 	ldr	r3, [fp, #-40]	; 0x28
   1480c:	e1d320b8 	ldrh	r2, [r3, #8]
   14810:	e15b32ba 	ldrh	r3, [fp, #-42]	; 0xffffffd6
   14814:	e0023003 	and	r3, r2, r3
   14818:	e14b30be 	strh	r3, [fp, #-14]
   1481c:	e15b30be 	ldrh	r3, [fp, #-14]
   14820:	e3530000 	cmp	r3, #0
   14824:	0a000017 	beq	14888 <OSFlagPend+0x20c>
   14828:	e55b3007 	ldrb	r3, [fp, #-7]
   1482c:	e3530001 	cmp	r3, #1
   14830:	1a00000a 	bne	14860 <OSFlagPend+0x1e4>
   14834:	e51b3028 	ldr	r3, [fp, #-40]	; 0x28
   14838:	e1d330b8 	ldrh	r3, [r3, #8]
   1483c:	e6ff2073 	uxth	r2, r3
   14840:	e15b30be 	ldrh	r3, [fp, #-14]
   14844:	e1e03003 	mvn	r3, r3
   14848:	e6ff3073 	uxth	r3, r3
   1484c:	e0023003 	and	r3, r2, r3
   14850:	e6ff3073 	uxth	r3, r3
   14854:	e6ff2073 	uxth	r2, r3
   14858:	e51b3028 	ldr	r3, [fp, #-40]	; 0x28
   1485c:	e1c320b8 	strh	r2, [r3, #8]
   14860:	e51b3028 	ldr	r3, [fp, #-40]	; 0x28
   14864:	e1d330b8 	ldrh	r3, [r3, #8]
   14868:	e14b30b6 	strh	r3, [fp, #-6]
   1486c:	e51b000c 	ldr	r0, [fp, #-12]
   14870:	ebfff855 	bl	129cc <OS_CPU_SR_Restore>
   14874:	e59b3004 	ldr	r3, [fp, #4]
   14878:	e3a02000 	mov	r2, #0
   1487c:	e5c32000 	strb	r2, [r3]
   14880:	e15b30b6 	ldrh	r3, [fp, #-6]
   14884:	ea0000ad 	b	14b40 <OSFlagPend+0x4c4>
   14888:	e24b1024 	sub	r1, fp, #36	; 0x24
   1488c:	e15b22ba 	ldrh	r2, [fp, #-42]	; 0xffffffd6
   14890:	e55b302b 	ldrb	r3, [fp, #-43]	; 0x2b
   14894:	e15b02be 	ldrh	r0, [fp, #-46]	; 0xffffffd2
   14898:	e58d0000 	str	r0, [sp]
   1489c:	e51b0028 	ldr	r0, [fp, #-40]	; 0x28
   148a0:	eb000195 	bl	14efc <OS_FlagBlock>
   148a4:	e51b000c 	ldr	r0, [fp, #-12]
   148a8:	ebfff847 	bl	129cc <OS_CPU_SR_Restore>
   148ac:	ea00005d 	b	14a28 <OSFlagPend+0x3ac>
   148b0:	e51b3028 	ldr	r3, [fp, #-40]	; 0x28
   148b4:	e1d330b8 	ldrh	r3, [r3, #8]
   148b8:	e6ff3073 	uxth	r3, r3
   148bc:	e1e03003 	mvn	r3, r3
   148c0:	e6ff2073 	uxth	r2, r3
   148c4:	e15b32ba 	ldrh	r3, [fp, #-42]	; 0xffffffd6
   148c8:	e0023003 	and	r3, r2, r3
   148cc:	e6ff3073 	uxth	r3, r3
   148d0:	e14b30be 	strh	r3, [fp, #-14]
   148d4:	e15b20be 	ldrh	r2, [fp, #-14]
   148d8:	e15b32ba 	ldrh	r3, [fp, #-42]	; 0xffffffd6
   148dc:	e1520003 	cmp	r2, r3
   148e0:	1a000013 	bne	14934 <OSFlagPend+0x2b8>
   148e4:	e55b3007 	ldrb	r3, [fp, #-7]
   148e8:	e3530001 	cmp	r3, #1
   148ec:	1a000006 	bne	1490c <OSFlagPend+0x290>
   148f0:	e51b3028 	ldr	r3, [fp, #-40]	; 0x28
   148f4:	e1d320b8 	ldrh	r2, [r3, #8]
   148f8:	e15b30be 	ldrh	r3, [fp, #-14]
   148fc:	e1823003 	orr	r3, r2, r3
   14900:	e6ff2073 	uxth	r2, r3
   14904:	e51b3028 	ldr	r3, [fp, #-40]	; 0x28
   14908:	e1c320b8 	strh	r2, [r3, #8]
   1490c:	e51b3028 	ldr	r3, [fp, #-40]	; 0x28
   14910:	e1d330b8 	ldrh	r3, [r3, #8]
   14914:	e14b30b6 	strh	r3, [fp, #-6]
   14918:	e51b000c 	ldr	r0, [fp, #-12]
   1491c:	ebfff82a 	bl	129cc <OS_CPU_SR_Restore>
   14920:	e59b3004 	ldr	r3, [fp, #4]
   14924:	e3a02000 	mov	r2, #0
   14928:	e5c32000 	strb	r2, [r3]
   1492c:	e15b30b6 	ldrh	r3, [fp, #-6]
   14930:	ea000082 	b	14b40 <OSFlagPend+0x4c4>
   14934:	e24b1024 	sub	r1, fp, #36	; 0x24
   14938:	e15b22ba 	ldrh	r2, [fp, #-42]	; 0xffffffd6
   1493c:	e55b302b 	ldrb	r3, [fp, #-43]	; 0x2b
   14940:	e15b02be 	ldrh	r0, [fp, #-46]	; 0xffffffd2
   14944:	e58d0000 	str	r0, [sp]
   14948:	e51b0028 	ldr	r0, [fp, #-40]	; 0x28
   1494c:	eb00016a 	bl	14efc <OS_FlagBlock>
   14950:	e51b000c 	ldr	r0, [fp, #-12]
   14954:	ebfff81c 	bl	129cc <OS_CPU_SR_Restore>
   14958:	ea000032 	b	14a28 <OSFlagPend+0x3ac>
   1495c:	e51b3028 	ldr	r3, [fp, #-40]	; 0x28
   14960:	e1d330b8 	ldrh	r3, [r3, #8]
   14964:	e6ff3073 	uxth	r3, r3
   14968:	e1e03003 	mvn	r3, r3
   1496c:	e6ff2073 	uxth	r2, r3
   14970:	e15b32ba 	ldrh	r3, [fp, #-42]	; 0xffffffd6
   14974:	e0023003 	and	r3, r2, r3
   14978:	e6ff3073 	uxth	r3, r3
   1497c:	e14b30be 	strh	r3, [fp, #-14]
   14980:	e15b30be 	ldrh	r3, [fp, #-14]
   14984:	e3530000 	cmp	r3, #0
   14988:	0a000013 	beq	149dc <OSFlagPend+0x360>
   1498c:	e55b3007 	ldrb	r3, [fp, #-7]
   14990:	e3530001 	cmp	r3, #1
   14994:	1a000006 	bne	149b4 <OSFlagPend+0x338>
   14998:	e51b3028 	ldr	r3, [fp, #-40]	; 0x28
   1499c:	e1d320b8 	ldrh	r2, [r3, #8]
   149a0:	e15b30be 	ldrh	r3, [fp, #-14]
   149a4:	e1823003 	orr	r3, r2, r3
   149a8:	e6ff2073 	uxth	r2, r3
   149ac:	e51b3028 	ldr	r3, [fp, #-40]	; 0x28
   149b0:	e1c320b8 	strh	r2, [r3, #8]
   149b4:	e51b3028 	ldr	r3, [fp, #-40]	; 0x28
   149b8:	e1d330b8 	ldrh	r3, [r3, #8]
   149bc:	e14b30b6 	strh	r3, [fp, #-6]
   149c0:	e51b000c 	ldr	r0, [fp, #-12]
   149c4:	ebfff800 	bl	129cc <OS_CPU_SR_Restore>
   149c8:	e59b3004 	ldr	r3, [fp, #4]
   149cc:	e3a02000 	mov	r2, #0
   149d0:	e5c32000 	strb	r2, [r3]
   149d4:	e15b30b6 	ldrh	r3, [fp, #-6]
   149d8:	ea000058 	b	14b40 <OSFlagPend+0x4c4>
   149dc:	e24b1024 	sub	r1, fp, #36	; 0x24
   149e0:	e15b22ba 	ldrh	r2, [fp, #-42]	; 0xffffffd6
   149e4:	e55b302b 	ldrb	r3, [fp, #-43]	; 0x2b
   149e8:	e15b02be 	ldrh	r0, [fp, #-46]	; 0xffffffd2
   149ec:	e58d0000 	str	r0, [sp]
   149f0:	e51b0028 	ldr	r0, [fp, #-40]	; 0x28
   149f4:	eb000140 	bl	14efc <OS_FlagBlock>
   149f8:	e51b000c 	ldr	r0, [fp, #-12]
   149fc:	ebfff7f2 	bl	129cc <OS_CPU_SR_Restore>
   14a00:	ea000008 	b	14a28 <OSFlagPend+0x3ac>
   14a04:	e51b000c 	ldr	r0, [fp, #-12]
   14a08:	ebfff7ef 	bl	129cc <OS_CPU_SR_Restore>
   14a0c:	e3a03000 	mov	r3, #0
   14a10:	e14b30b6 	strh	r3, [fp, #-6]
   14a14:	e59b3004 	ldr	r3, [fp, #4]
   14a18:	e3e02068 	mvn	r2, #104	; 0x68
   14a1c:	e5c32000 	strb	r2, [r3]
   14a20:	e15b30b6 	ldrh	r3, [fp, #-6]
   14a24:	ea000045 	b	14b40 <OSFlagPend+0x4c4>
   14a28:	ebfffc71 	bl	13bf4 <OS_Sched>
   14a2c:	ebfff7de 	bl	129ac <OS_CPU_SR_Save>
   14a30:	e1a03000 	mov	r3, r0
   14a34:	e50b300c 	str	r3, [fp, #-12]
   14a38:	e59f3110 	ldr	r3, [pc, #272]	; 14b50 <OSFlagPend+0x4d4>
   14a3c:	e5933000 	ldr	r3, [r3]
   14a40:	e5d3302c 	ldrb	r3, [r3, #44]	; 0x2c
   14a44:	e2033020 	and	r3, r3, #32
   14a48:	e3530000 	cmp	r3, #0
   14a4c:	0a00000e 	beq	14a8c <OSFlagPend+0x410>
   14a50:	e24b3024 	sub	r3, fp, #36	; 0x24
   14a54:	e1a00003 	mov	r0, r3
   14a58:	eb0001ec 	bl	15210 <OS_FlagUnlink>
   14a5c:	e59f30ec 	ldr	r3, [pc, #236]	; 14b50 <OSFlagPend+0x4d4>
   14a60:	e5933000 	ldr	r3, [r3]
   14a64:	e3a02000 	mov	r2, #0
   14a68:	e5c3202c 	strb	r2, [r3, #44]	; 0x2c
   14a6c:	e51b000c 	ldr	r0, [fp, #-12]
   14a70:	ebfff7d5 	bl	129cc <OS_CPU_SR_Restore>
   14a74:	e3a03000 	mov	r3, #0
   14a78:	e14b30b6 	strh	r3, [fp, #-6]
   14a7c:	e59b3004 	ldr	r3, [fp, #4]
   14a80:	e3a0200a 	mov	r2, #10
   14a84:	e5c32000 	strb	r2, [r3]
   14a88:	ea00002b 	b	14b3c <OSFlagPend+0x4c0>
   14a8c:	e55b3007 	ldrb	r3, [fp, #-7]
   14a90:	e3530001 	cmp	r3, #1
   14a94:	1a000020 	bne	14b1c <OSFlagPend+0x4a0>
   14a98:	e55b302b 	ldrb	r3, [fp, #-43]	; 0x2b
   14a9c:	e3530003 	cmp	r3, #3
   14aa0:	979ff103 	ldrls	pc, [pc, r3, lsl #2]
   14aa4:	ea00001c 	b	14b1c <OSFlagPend+0x4a0>
   14aa8:	00014af4 	strdeq	r4, [r1], -r4	; <UNPREDICTABLE>
   14aac:	00014af4 	strdeq	r4, [r1], -r4	; <UNPREDICTABLE>
   14ab0:	00014ab8 			; <UNDEFINED> instruction: 0x00014ab8
   14ab4:	00014ab8 			; <UNDEFINED> instruction: 0x00014ab8
   14ab8:	e51b3028 	ldr	r3, [fp, #-40]	; 0x28
   14abc:	e1d330b8 	ldrh	r3, [r3, #8]
   14ac0:	e6ff2073 	uxth	r2, r3
   14ac4:	e59f3084 	ldr	r3, [pc, #132]	; 14b50 <OSFlagPend+0x4d4>
   14ac8:	e5933000 	ldr	r3, [r3]
   14acc:	e1d332b8 	ldrh	r3, [r3, #40]	; 0x28
   14ad0:	e6ff3073 	uxth	r3, r3
   14ad4:	e1e03003 	mvn	r3, r3
   14ad8:	e6ff3073 	uxth	r3, r3
   14adc:	e0023003 	and	r3, r2, r3
   14ae0:	e6ff3073 	uxth	r3, r3
   14ae4:	e6ff2073 	uxth	r2, r3
   14ae8:	e51b3028 	ldr	r3, [fp, #-40]	; 0x28
   14aec:	e1c320b8 	strh	r2, [r3, #8]
   14af0:	ea000009 	b	14b1c <OSFlagPend+0x4a0>
   14af4:	e51b3028 	ldr	r3, [fp, #-40]	; 0x28
   14af8:	e1d320b8 	ldrh	r2, [r3, #8]
   14afc:	e59f304c 	ldr	r3, [pc, #76]	; 14b50 <OSFlagPend+0x4d4>
   14b00:	e5933000 	ldr	r3, [r3]
   14b04:	e1d332b8 	ldrh	r3, [r3, #40]	; 0x28
   14b08:	e1823003 	orr	r3, r2, r3
   14b0c:	e6ff2073 	uxth	r2, r3
   14b10:	e51b3028 	ldr	r3, [fp, #-40]	; 0x28
   14b14:	e1c320b8 	strh	r2, [r3, #8]
   14b18:	e1a00000 	nop			; (mov r0, r0)
   14b1c:	e51b3028 	ldr	r3, [fp, #-40]	; 0x28
   14b20:	e1d330b8 	ldrh	r3, [r3, #8]
   14b24:	e14b30b6 	strh	r3, [fp, #-6]
   14b28:	e51b000c 	ldr	r0, [fp, #-12]
   14b2c:	ebfff7a6 	bl	129cc <OS_CPU_SR_Restore>
   14b30:	e59b3004 	ldr	r3, [fp, #4]
   14b34:	e3a02000 	mov	r2, #0
   14b38:	e5c32000 	strb	r2, [r3]
   14b3c:	e15b30b6 	ldrh	r3, [fp, #-6]
   14b40:	e1a00003 	mov	r0, r3
   14b44:	e24bd004 	sub	sp, fp, #4
   14b48:	e8bd8800 	pop	{fp, pc}
   14b4c:	0001bdd5 	ldrdeq	fp, [r1], -r5
   14b50:	0001bdd8 	ldrdeq	fp, [r1], -r8

00014b54 <OSFlagPost>:
   14b54:	e92d4800 	push	{fp, lr}
   14b58:	e28db004 	add	fp, sp, #4
   14b5c:	e24dd020 	sub	sp, sp, #32
   14b60:	e50b0018 	str	r0, [fp, #-24]
   14b64:	e50b3020 	str	r3, [fp, #-32]
   14b68:	e14b11ba 	strh	r1, [fp, #-26]	; 0xffffffe6
   14b6c:	e1a03002 	mov	r3, r2
   14b70:	e54b301b 	strb	r3, [fp, #-27]
   14b74:	e51b3018 	ldr	r3, [fp, #-24]
   14b78:	e3530000 	cmp	r3, #0
   14b7c:	1a000004 	bne	14b94 <OSFlagPost+0x40>
   14b80:	e51b3020 	ldr	r3, [fp, #-32]
   14b84:	e3e02069 	mvn	r2, #105	; 0x69
   14b88:	e5c32000 	strb	r2, [r3]
   14b8c:	e3a03000 	mov	r3, #0
   14b90:	ea0000b1 	b	14e5c <OSFlagPost+0x308>
   14b94:	e51b3018 	ldr	r3, [fp, #-24]
   14b98:	e5d33000 	ldrb	r3, [r3]
   14b9c:	e3530005 	cmp	r3, #5
   14ba0:	0a000004 	beq	14bb8 <OSFlagPost+0x64>
   14ba4:	e51b3020 	ldr	r3, [fp, #-32]
   14ba8:	e3a02001 	mov	r2, #1
   14bac:	e5c32000 	strb	r2, [r3]
   14bb0:	e3a03000 	mov	r3, #0
   14bb4:	ea0000a8 	b	14e5c <OSFlagPost+0x308>
   14bb8:	ebfff77b 	bl	129ac <OS_CPU_SR_Save>
   14bbc:	e1a03000 	mov	r3, r0
   14bc0:	e50b3010 	str	r3, [fp, #-16]
   14bc4:	e55b301b 	ldrb	r3, [fp, #-27]
   14bc8:	e3530000 	cmp	r3, #0
   14bcc:	0a000002 	beq	14bdc <OSFlagPost+0x88>
   14bd0:	e3530001 	cmp	r3, #1
   14bd4:	0a00000c 	beq	14c0c <OSFlagPost+0xb8>
   14bd8:	ea000013 	b	14c2c <OSFlagPost+0xd8>
   14bdc:	e51b3018 	ldr	r3, [fp, #-24]
   14be0:	e1d330b8 	ldrh	r3, [r3, #8]
   14be4:	e6ff2073 	uxth	r2, r3
   14be8:	e15b31ba 	ldrh	r3, [fp, #-26]	; 0xffffffe6
   14bec:	e1e03003 	mvn	r3, r3
   14bf0:	e6ff3073 	uxth	r3, r3
   14bf4:	e0023003 	and	r3, r2, r3
   14bf8:	e6ff3073 	uxth	r3, r3
   14bfc:	e6ff2073 	uxth	r2, r3
   14c00:	e51b3018 	ldr	r3, [fp, #-24]
   14c04:	e1c320b8 	strh	r2, [r3, #8]
   14c08:	ea00000e 	b	14c48 <OSFlagPost+0xf4>
   14c0c:	e51b3018 	ldr	r3, [fp, #-24]
   14c10:	e1d320b8 	ldrh	r2, [r3, #8]
   14c14:	e15b31ba 	ldrh	r3, [fp, #-26]	; 0xffffffe6
   14c18:	e1823003 	orr	r3, r2, r3
   14c1c:	e6ff2073 	uxth	r2, r3
   14c20:	e51b3018 	ldr	r3, [fp, #-24]
   14c24:	e1c320b8 	strh	r2, [r3, #8]
   14c28:	ea000006 	b	14c48 <OSFlagPost+0xf4>
   14c2c:	e51b0010 	ldr	r0, [fp, #-16]
   14c30:	ebfff765 	bl	129cc <OS_CPU_SR_Restore>
   14c34:	e51b3020 	ldr	r3, [fp, #-32]
   14c38:	e3e02066 	mvn	r2, #102	; 0x66
   14c3c:	e5c32000 	strb	r2, [r3]
   14c40:	e3a03000 	mov	r3, #0
   14c44:	ea000084 	b	14e5c <OSFlagPost+0x308>
   14c48:	e3a03000 	mov	r3, #0
   14c4c:	e54b3009 	strb	r3, [fp, #-9]
   14c50:	e51b3018 	ldr	r3, [fp, #-24]
   14c54:	e5933004 	ldr	r3, [r3, #4]
   14c58:	e50b3008 	str	r3, [fp, #-8]
   14c5c:	ea000069 	b	14e08 <OSFlagPost+0x2b4>
   14c60:	e51b3008 	ldr	r3, [fp, #-8]
   14c64:	e5d33012 	ldrb	r3, [r3, #18]
   14c68:	e3530003 	cmp	r3, #3
   14c6c:	979ff103 	ldrls	pc, [pc, r3, lsl #2]
   14c70:	ea000061 	b	14dfc <OSFlagPost+0x2a8>
   14c74:	00014d2c 	andeq	r4, r1, ip, lsr #26
   14c78:	00014d98 	muleq	r1, r8, sp
   14c7c:	00014c84 	andeq	r4, r1, r4, lsl #25
   14c80:	00014cdc 	ldrdeq	r4, [r1], -ip
   14c84:	e51b3018 	ldr	r3, [fp, #-24]
   14c88:	e1d320b8 	ldrh	r2, [r3, #8]
   14c8c:	e51b3008 	ldr	r3, [fp, #-8]
   14c90:	e1d331b0 	ldrh	r3, [r3, #16]
   14c94:	e0023003 	and	r3, r2, r3
   14c98:	e14b31b2 	strh	r3, [fp, #-18]	; 0xffffffee
   14c9c:	e51b3008 	ldr	r3, [fp, #-8]
   14ca0:	e1d331b0 	ldrh	r3, [r3, #16]
   14ca4:	e15b21b2 	ldrh	r2, [fp, #-18]	; 0xffffffee
   14ca8:	e1520003 	cmp	r2, r3
   14cac:	1a000009 	bne	14cd8 <OSFlagPost+0x184>
   14cb0:	e15b31b2 	ldrh	r3, [fp, #-18]	; 0xffffffee
   14cb4:	e51b0008 	ldr	r0, [fp, #-8]
   14cb8:	e1a01003 	mov	r1, r3
   14cbc:	eb000119 	bl	15128 <OS_FlagTaskRdy>
   14cc0:	e1a03000 	mov	r3, r0
   14cc4:	e3530001 	cmp	r3, #1
   14cc8:	1a000002 	bne	14cd8 <OSFlagPost+0x184>
   14ccc:	e3a03001 	mov	r3, #1
   14cd0:	e54b3009 	strb	r3, [fp, #-9]
   14cd4:	ea000048 	b	14dfc <OSFlagPost+0x2a8>
   14cd8:	ea000047 	b	14dfc <OSFlagPost+0x2a8>
   14cdc:	e51b3018 	ldr	r3, [fp, #-24]
   14ce0:	e1d320b8 	ldrh	r2, [r3, #8]
   14ce4:	e51b3008 	ldr	r3, [fp, #-8]
   14ce8:	e1d331b0 	ldrh	r3, [r3, #16]
   14cec:	e0023003 	and	r3, r2, r3
   14cf0:	e14b31b2 	strh	r3, [fp, #-18]	; 0xffffffee
   14cf4:	e15b31b2 	ldrh	r3, [fp, #-18]	; 0xffffffee
   14cf8:	e3530000 	cmp	r3, #0
   14cfc:	0a000009 	beq	14d28 <OSFlagPost+0x1d4>
   14d00:	e15b31b2 	ldrh	r3, [fp, #-18]	; 0xffffffee
   14d04:	e51b0008 	ldr	r0, [fp, #-8]
   14d08:	e1a01003 	mov	r1, r3
   14d0c:	eb000105 	bl	15128 <OS_FlagTaskRdy>
   14d10:	e1a03000 	mov	r3, r0
   14d14:	e3530001 	cmp	r3, #1
   14d18:	1a000002 	bne	14d28 <OSFlagPost+0x1d4>
   14d1c:	e3a03001 	mov	r3, #1
   14d20:	e54b3009 	strb	r3, [fp, #-9]
   14d24:	ea000034 	b	14dfc <OSFlagPost+0x2a8>
   14d28:	ea000033 	b	14dfc <OSFlagPost+0x2a8>
   14d2c:	e51b3018 	ldr	r3, [fp, #-24]
   14d30:	e1d330b8 	ldrh	r3, [r3, #8]
   14d34:	e6ff3073 	uxth	r3, r3
   14d38:	e1e03003 	mvn	r3, r3
   14d3c:	e6ff2073 	uxth	r2, r3
   14d40:	e51b3008 	ldr	r3, [fp, #-8]
   14d44:	e1d331b0 	ldrh	r3, [r3, #16]
   14d48:	e6ff3073 	uxth	r3, r3
   14d4c:	e0023003 	and	r3, r2, r3
   14d50:	e6ff3073 	uxth	r3, r3
   14d54:	e14b31b2 	strh	r3, [fp, #-18]	; 0xffffffee
   14d58:	e51b3008 	ldr	r3, [fp, #-8]
   14d5c:	e1d331b0 	ldrh	r3, [r3, #16]
   14d60:	e15b21b2 	ldrh	r2, [fp, #-18]	; 0xffffffee
   14d64:	e1520003 	cmp	r2, r3
   14d68:	1a000009 	bne	14d94 <OSFlagPost+0x240>
   14d6c:	e15b31b2 	ldrh	r3, [fp, #-18]	; 0xffffffee
   14d70:	e51b0008 	ldr	r0, [fp, #-8]
   14d74:	e1a01003 	mov	r1, r3
   14d78:	eb0000ea 	bl	15128 <OS_FlagTaskRdy>
   14d7c:	e1a03000 	mov	r3, r0
   14d80:	e3530001 	cmp	r3, #1
   14d84:	1a000002 	bne	14d94 <OSFlagPost+0x240>
   14d88:	e3a03001 	mov	r3, #1
   14d8c:	e54b3009 	strb	r3, [fp, #-9]
   14d90:	ea000019 	b	14dfc <OSFlagPost+0x2a8>
   14d94:	ea000018 	b	14dfc <OSFlagPost+0x2a8>
   14d98:	e51b3018 	ldr	r3, [fp, #-24]
   14d9c:	e1d330b8 	ldrh	r3, [r3, #8]
   14da0:	e6ff3073 	uxth	r3, r3
   14da4:	e1e03003 	mvn	r3, r3
   14da8:	e6ff2073 	uxth	r2, r3
   14dac:	e51b3008 	ldr	r3, [fp, #-8]
   14db0:	e1d331b0 	ldrh	r3, [r3, #16]
   14db4:	e6ff3073 	uxth	r3, r3
   14db8:	e0023003 	and	r3, r2, r3
   14dbc:	e6ff3073 	uxth	r3, r3
   14dc0:	e14b31b2 	strh	r3, [fp, #-18]	; 0xffffffee
   14dc4:	e15b31b2 	ldrh	r3, [fp, #-18]	; 0xffffffee
   14dc8:	e3530000 	cmp	r3, #0
   14dcc:	0a000009 	beq	14df8 <OSFlagPost+0x2a4>
   14dd0:	e15b31b2 	ldrh	r3, [fp, #-18]	; 0xffffffee
   14dd4:	e51b0008 	ldr	r0, [fp, #-8]
   14dd8:	e1a01003 	mov	r1, r3
   14ddc:	eb0000d1 	bl	15128 <OS_FlagTaskRdy>
   14de0:	e1a03000 	mov	r3, r0
   14de4:	e3530001 	cmp	r3, #1
   14de8:	1a000002 	bne	14df8 <OSFlagPost+0x2a4>
   14dec:	e3a03001 	mov	r3, #1
   14df0:	e54b3009 	strb	r3, [fp, #-9]
   14df4:	eaffffff 	b	14df8 <OSFlagPost+0x2a4>
   14df8:	e1a00000 	nop			; (mov r0, r0)
   14dfc:	e51b3008 	ldr	r3, [fp, #-8]
   14e00:	e5933000 	ldr	r3, [r3]
   14e04:	e50b3008 	str	r3, [fp, #-8]
   14e08:	e51b3008 	ldr	r3, [fp, #-8]
   14e0c:	e3530000 	cmp	r3, #0
   14e10:	1affff92 	bne	14c60 <OSFlagPost+0x10c>
   14e14:	e51b0010 	ldr	r0, [fp, #-16]
   14e18:	ebfff6eb 	bl	129cc <OS_CPU_SR_Restore>
   14e1c:	e55b3009 	ldrb	r3, [fp, #-9]
   14e20:	e3530001 	cmp	r3, #1
   14e24:	1a000000 	bne	14e2c <OSFlagPost+0x2d8>
   14e28:	ebfffb71 	bl	13bf4 <OS_Sched>
   14e2c:	ebfff6de 	bl	129ac <OS_CPU_SR_Save>
   14e30:	e1a03000 	mov	r3, r0
   14e34:	e50b3010 	str	r3, [fp, #-16]
   14e38:	e51b3018 	ldr	r3, [fp, #-24]
   14e3c:	e1d330b8 	ldrh	r3, [r3, #8]
   14e40:	e14b31b4 	strh	r3, [fp, #-20]	; 0xffffffec
   14e44:	e51b0010 	ldr	r0, [fp, #-16]
   14e48:	ebfff6df 	bl	129cc <OS_CPU_SR_Restore>
   14e4c:	e51b3020 	ldr	r3, [fp, #-32]
   14e50:	e3a02000 	mov	r2, #0
   14e54:	e5c32000 	strb	r2, [r3]
   14e58:	e15b31b4 	ldrh	r3, [fp, #-20]	; 0xffffffec
   14e5c:	e1a00003 	mov	r0, r3
   14e60:	e24bd004 	sub	sp, fp, #4
   14e64:	e8bd8800 	pop	{fp, pc}

00014e68 <OSFlagQuery>:
   14e68:	e92d4800 	push	{fp, lr}
   14e6c:	e28db004 	add	fp, sp, #4
   14e70:	e24dd010 	sub	sp, sp, #16
   14e74:	e50b0010 	str	r0, [fp, #-16]
   14e78:	e50b1014 	str	r1, [fp, #-20]
   14e7c:	e51b3010 	ldr	r3, [fp, #-16]
   14e80:	e3530000 	cmp	r3, #0
   14e84:	1a000004 	bne	14e9c <OSFlagQuery+0x34>
   14e88:	e51b3014 	ldr	r3, [fp, #-20]
   14e8c:	e3e02069 	mvn	r2, #105	; 0x69
   14e90:	e5c32000 	strb	r2, [r3]
   14e94:	e3a03000 	mov	r3, #0
   14e98:	ea000014 	b	14ef0 <OSFlagQuery+0x88>
   14e9c:	e51b3010 	ldr	r3, [fp, #-16]
   14ea0:	e5d33000 	ldrb	r3, [r3]
   14ea4:	e3530005 	cmp	r3, #5
   14ea8:	0a000004 	beq	14ec0 <OSFlagQuery+0x58>
   14eac:	e51b3014 	ldr	r3, [fp, #-20]
   14eb0:	e3a02001 	mov	r2, #1
   14eb4:	e5c32000 	strb	r2, [r3]
   14eb8:	e3a03000 	mov	r3, #0
   14ebc:	ea00000b 	b	14ef0 <OSFlagQuery+0x88>
   14ec0:	ebfff6b9 	bl	129ac <OS_CPU_SR_Save>
   14ec4:	e1a03000 	mov	r3, r0
   14ec8:	e50b3008 	str	r3, [fp, #-8]
   14ecc:	e51b3010 	ldr	r3, [fp, #-16]
   14ed0:	e1d330b8 	ldrh	r3, [r3, #8]
   14ed4:	e14b30ba 	strh	r3, [fp, #-10]
   14ed8:	e51b0008 	ldr	r0, [fp, #-8]
   14edc:	ebfff6ba 	bl	129cc <OS_CPU_SR_Restore>
   14ee0:	e51b3014 	ldr	r3, [fp, #-20]
   14ee4:	e3a02000 	mov	r2, #0
   14ee8:	e5c32000 	strb	r2, [r3]
   14eec:	e15b30ba 	ldrh	r3, [fp, #-10]
   14ef0:	e1a00003 	mov	r0, r3
   14ef4:	e24bd004 	sub	sp, fp, #4
   14ef8:	e8bd8800 	pop	{fp, pc}

00014efc <OS_FlagBlock>:
   14efc:	e52db004 	push	{fp}		; (str fp, [sp, #-4]!)
   14f00:	e28db000 	add	fp, sp, #0
   14f04:	e24dd01c 	sub	sp, sp, #28
   14f08:	e50b0010 	str	r0, [fp, #-16]
   14f0c:	e50b1014 	str	r1, [fp, #-20]
   14f10:	e14b21b6 	strh	r2, [fp, #-22]	; 0xffffffea
   14f14:	e54b3017 	strb	r3, [fp, #-23]
   14f18:	e59f315c 	ldr	r3, [pc, #348]	; 1507c <OS_FlagBlock+0x180>
   14f1c:	e5933000 	ldr	r3, [r3]
   14f20:	e59f2154 	ldr	r2, [pc, #340]	; 1507c <OS_FlagBlock+0x180>
   14f24:	e5922000 	ldr	r2, [r2]
   14f28:	e5d2202c 	ldrb	r2, [r2, #44]	; 0x2c
   14f2c:	e3822020 	orr	r2, r2, #32
   14f30:	e6ef2072 	uxtb	r2, r2
   14f34:	e5c3202c 	strb	r2, [r3, #44]	; 0x2c
   14f38:	e59f313c 	ldr	r3, [pc, #316]	; 1507c <OS_FlagBlock+0x180>
   14f3c:	e5933000 	ldr	r3, [r3]
   14f40:	e1db20b4 	ldrh	r2, [fp, #4]
   14f44:	e1c322ba 	strh	r2, [r3, #42]	; 0x2a
   14f48:	e59f312c 	ldr	r3, [pc, #300]	; 1507c <OS_FlagBlock+0x180>
   14f4c:	e5933000 	ldr	r3, [r3]
   14f50:	e51b2014 	ldr	r2, [fp, #-20]
   14f54:	e5832024 	str	r2, [r3, #36]	; 0x24
   14f58:	e51b3014 	ldr	r3, [fp, #-20]
   14f5c:	e15b21b6 	ldrh	r2, [fp, #-22]	; 0xffffffea
   14f60:	e1c321b0 	strh	r2, [r3, #16]
   14f64:	e51b3014 	ldr	r3, [fp, #-20]
   14f68:	e55b2017 	ldrb	r2, [fp, #-23]
   14f6c:	e5c32012 	strb	r2, [r3, #18]
   14f70:	e59f3104 	ldr	r3, [pc, #260]	; 1507c <OS_FlagBlock+0x180>
   14f74:	e5932000 	ldr	r2, [r3]
   14f78:	e51b3014 	ldr	r3, [fp, #-20]
   14f7c:	e5832008 	str	r2, [r3, #8]
   14f80:	e51b3010 	ldr	r3, [fp, #-16]
   14f84:	e5932004 	ldr	r2, [r3, #4]
   14f88:	e51b3014 	ldr	r3, [fp, #-20]
   14f8c:	e5832000 	str	r2, [r3]
   14f90:	e51b3014 	ldr	r3, [fp, #-20]
   14f94:	e3a02000 	mov	r2, #0
   14f98:	e5832004 	str	r2, [r3, #4]
   14f9c:	e51b3014 	ldr	r3, [fp, #-20]
   14fa0:	e51b2010 	ldr	r2, [fp, #-16]
   14fa4:	e583200c 	str	r2, [r3, #12]
   14fa8:	e51b3010 	ldr	r3, [fp, #-16]
   14fac:	e5933004 	ldr	r3, [r3, #4]
   14fb0:	e50b3008 	str	r3, [fp, #-8]
   14fb4:	e51b3008 	ldr	r3, [fp, #-8]
   14fb8:	e3530000 	cmp	r3, #0
   14fbc:	0a000002 	beq	14fcc <OS_FlagBlock+0xd0>
   14fc0:	e51b3008 	ldr	r3, [fp, #-8]
   14fc4:	e51b2014 	ldr	r2, [fp, #-20]
   14fc8:	e5832004 	str	r2, [r3, #4]
   14fcc:	e51b3010 	ldr	r3, [fp, #-16]
   14fd0:	e51b2014 	ldr	r2, [fp, #-20]
   14fd4:	e5832004 	str	r2, [r3, #4]
   14fd8:	e59f309c 	ldr	r3, [pc, #156]	; 1507c <OS_FlagBlock+0x180>
   14fdc:	e5933000 	ldr	r3, [r3]
   14fe0:	e5d3302f 	ldrb	r3, [r3, #47]	; 0x2f
   14fe4:	e59f2090 	ldr	r2, [pc, #144]	; 1507c <OS_FlagBlock+0x180>
   14fe8:	e5922000 	ldr	r2, [r2]
   14fec:	e5d2202f 	ldrb	r2, [r2, #47]	; 0x2f
   14ff0:	e59f1088 	ldr	r1, [pc, #136]	; 15080 <OS_FlagBlock+0x184>
   14ff4:	e7d12002 	ldrb	r2, [r1, r2]
   14ff8:	e6ef1072 	uxtb	r1, r2
   14ffc:	e59f2078 	ldr	r2, [pc, #120]	; 1507c <OS_FlagBlock+0x180>
   15000:	e5922000 	ldr	r2, [r2]
   15004:	e5d22030 	ldrb	r2, [r2, #48]	; 0x30
   15008:	e6ef2072 	uxtb	r2, r2
   1500c:	e1e02002 	mvn	r2, r2
   15010:	e6ef2072 	uxtb	r2, r2
   15014:	e0012002 	and	r2, r1, r2
   15018:	e6ef2072 	uxtb	r2, r2
   1501c:	e6ef1072 	uxtb	r1, r2
   15020:	e59f2058 	ldr	r2, [pc, #88]	; 15080 <OS_FlagBlock+0x184>
   15024:	e7c21003 	strb	r1, [r2, r3]
   15028:	e59f2050 	ldr	r2, [pc, #80]	; 15080 <OS_FlagBlock+0x184>
   1502c:	e7d23003 	ldrb	r3, [r2, r3]
   15030:	e3530000 	cmp	r3, #0
   15034:	1a00000d 	bne	15070 <OS_FlagBlock+0x174>
   15038:	e59f303c 	ldr	r3, [pc, #60]	; 1507c <OS_FlagBlock+0x180>
   1503c:	e5933000 	ldr	r3, [r3]
   15040:	e5d33031 	ldrb	r3, [r3, #49]	; 0x31
   15044:	e6ef3073 	uxtb	r3, r3
   15048:	e1e03003 	mvn	r3, r3
   1504c:	e6ef2073 	uxtb	r2, r3
   15050:	e59f302c 	ldr	r3, [pc, #44]	; 15084 <OS_FlagBlock+0x188>
   15054:	e5d33000 	ldrb	r3, [r3]
   15058:	e6ef3073 	uxtb	r3, r3
   1505c:	e0023003 	and	r3, r2, r3
   15060:	e6ef3073 	uxtb	r3, r3
   15064:	e6ef2073 	uxtb	r2, r3
   15068:	e59f3014 	ldr	r3, [pc, #20]	; 15084 <OS_FlagBlock+0x188>
   1506c:	e5c32000 	strb	r2, [r3]
   15070:	e24bd000 	sub	sp, fp, #0
   15074:	e49db004 	pop	{fp}		; (ldr fp, [sp], #4)
   15078:	e12fff1e 	bx	lr
   1507c:	0001bdd8 	ldrdeq	fp, [r1], -r8
   15080:	0001bdc8 	andeq	fp, r1, r8, asr #27
   15084:	0001bdc4 	andeq	fp, r1, r4, asr #27

00015088 <OS_FlagInit>:
   15088:	e52db004 	push	{fp}		; (str fp, [sp, #-4]!)
   1508c:	e28db000 	add	fp, sp, #0
   15090:	e24dd014 	sub	sp, sp, #20
   15094:	e59f3080 	ldr	r3, [pc, #128]	; 1511c <OS_FlagInit+0x94>
   15098:	e50b300c 	str	r3, [fp, #-12]
   1509c:	e59f307c 	ldr	r3, [pc, #124]	; 15120 <OS_FlagInit+0x98>
   150a0:	e50b3010 	str	r3, [fp, #-16]
   150a4:	e3a03000 	mov	r3, #0
   150a8:	e54b3005 	strb	r3, [fp, #-5]
   150ac:	ea00000e 	b	150ec <OS_FlagInit+0x64>
   150b0:	e51b300c 	ldr	r3, [fp, #-12]
   150b4:	e3a02000 	mov	r2, #0
   150b8:	e5c32000 	strb	r2, [r3]
   150bc:	e51b300c 	ldr	r3, [fp, #-12]
   150c0:	e51b2010 	ldr	r2, [fp, #-16]
   150c4:	e5832004 	str	r2, [r3, #4]
   150c8:	e51b300c 	ldr	r3, [fp, #-12]
   150cc:	e283300c 	add	r3, r3, #12
   150d0:	e50b300c 	str	r3, [fp, #-12]
   150d4:	e51b3010 	ldr	r3, [fp, #-16]
   150d8:	e283300c 	add	r3, r3, #12
   150dc:	e50b3010 	str	r3, [fp, #-16]
   150e0:	e55b3005 	ldrb	r3, [fp, #-5]
   150e4:	e2833001 	add	r3, r3, #1
   150e8:	e54b3005 	strb	r3, [fp, #-5]
   150ec:	e55b3005 	ldrb	r3, [fp, #-5]
   150f0:	e3530003 	cmp	r3, #3
   150f4:	9affffed 	bls	150b0 <OS_FlagInit+0x28>
   150f8:	e51b300c 	ldr	r3, [fp, #-12]
   150fc:	e3a02000 	mov	r2, #0
   15100:	e5832004 	str	r2, [r3, #4]
   15104:	e59f3018 	ldr	r3, [pc, #24]	; 15124 <OS_FlagInit+0x9c>
   15108:	e59f200c 	ldr	r2, [pc, #12]	; 1511c <OS_FlagInit+0x94>
   1510c:	e5832000 	str	r2, [r3]
   15110:	e24bd000 	sub	sp, fp, #0
   15114:	e49db004 	pop	{fp}		; (ldr fp, [sp], #4)
   15118:	e12fff1e 	bx	lr
   1511c:	0001b488 	andeq	fp, r1, r8, lsl #9
   15120:	0001b494 	muleq	r1, r4, r4
   15124:	0001ca44 	andeq	ip, r1, r4, asr #20

00015128 <OS_FlagTaskRdy>:
   15128:	e92d4800 	push	{fp, lr}
   1512c:	e28db004 	add	fp, sp, #4
   15130:	e24dd010 	sub	sp, sp, #16
   15134:	e50b0010 	str	r0, [fp, #-16]
   15138:	e1a03001 	mov	r3, r1
   1513c:	e14b31b2 	strh	r3, [fp, #-18]	; 0xffffffee
   15140:	e51b3010 	ldr	r3, [fp, #-16]
   15144:	e5933008 	ldr	r3, [r3, #8]
   15148:	e50b300c 	str	r3, [fp, #-12]
   1514c:	e51b300c 	ldr	r3, [fp, #-12]
   15150:	e3a02000 	mov	r2, #0
   15154:	e1c322ba 	strh	r2, [r3, #42]	; 0x2a
   15158:	e51b300c 	ldr	r3, [fp, #-12]
   1515c:	e15b21b2 	ldrh	r2, [fp, #-18]	; 0xffffffee
   15160:	e1c322b8 	strh	r2, [r3, #40]	; 0x28
   15164:	e51b300c 	ldr	r3, [fp, #-12]
   15168:	e5d3302c 	ldrb	r3, [r3, #44]	; 0x2c
   1516c:	e3c33020 	bic	r3, r3, #32
   15170:	e6ef2073 	uxtb	r2, r3
   15174:	e51b300c 	ldr	r3, [fp, #-12]
   15178:	e5c3202c 	strb	r2, [r3, #44]	; 0x2c
   1517c:	e51b300c 	ldr	r3, [fp, #-12]
   15180:	e5d3302c 	ldrb	r3, [r3, #44]	; 0x2c
   15184:	e3530000 	cmp	r3, #0
   15188:	1a000016 	bne	151e8 <OS_FlagTaskRdy+0xc0>
   1518c:	e51b300c 	ldr	r3, [fp, #-12]
   15190:	e5d32031 	ldrb	r2, [r3, #49]	; 0x31
   15194:	e59f306c 	ldr	r3, [pc, #108]	; 15208 <OS_FlagTaskRdy+0xe0>
   15198:	e5d33000 	ldrb	r3, [r3]
   1519c:	e1823003 	orr	r3, r2, r3
   151a0:	e6ef2073 	uxtb	r2, r3
   151a4:	e59f305c 	ldr	r3, [pc, #92]	; 15208 <OS_FlagTaskRdy+0xe0>
   151a8:	e5c32000 	strb	r2, [r3]
   151ac:	e51b300c 	ldr	r3, [fp, #-12]
   151b0:	e5d3302f 	ldrb	r3, [r3, #47]	; 0x2f
   151b4:	e51b200c 	ldr	r2, [fp, #-12]
   151b8:	e5d2202f 	ldrb	r2, [r2, #47]	; 0x2f
   151bc:	e59f1048 	ldr	r1, [pc, #72]	; 1520c <OS_FlagTaskRdy+0xe4>
   151c0:	e7d11002 	ldrb	r1, [r1, r2]
   151c4:	e51b200c 	ldr	r2, [fp, #-12]
   151c8:	e5d22030 	ldrb	r2, [r2, #48]	; 0x30
   151cc:	e1812002 	orr	r2, r1, r2
   151d0:	e6ef1072 	uxtb	r1, r2
   151d4:	e59f2030 	ldr	r2, [pc, #48]	; 1520c <OS_FlagTaskRdy+0xe4>
   151d8:	e7c21003 	strb	r1, [r2, r3]
   151dc:	e3a03001 	mov	r3, #1
   151e0:	e54b3005 	strb	r3, [fp, #-5]
   151e4:	ea000001 	b	151f0 <OS_FlagTaskRdy+0xc8>
   151e8:	e3a03000 	mov	r3, #0
   151ec:	e54b3005 	strb	r3, [fp, #-5]
   151f0:	e51b0010 	ldr	r0, [fp, #-16]
   151f4:	eb000005 	bl	15210 <OS_FlagUnlink>
   151f8:	e55b3005 	ldrb	r3, [fp, #-5]
   151fc:	e1a00003 	mov	r0, r3
   15200:	e24bd004 	sub	sp, fp, #4
   15204:	e8bd8800 	pop	{fp, pc}
   15208:	0001bdc4 	andeq	fp, r1, r4, asr #27
   1520c:	0001bdc8 	andeq	fp, r1, r8, asr #27

00015210 <OS_FlagUnlink>:
   15210:	e52db004 	push	{fp}		; (str fp, [sp, #-4]!)
   15214:	e28db000 	add	fp, sp, #0
   15218:	e24dd01c 	sub	sp, sp, #28
   1521c:	e50b0018 	str	r0, [fp, #-24]
   15220:	e51b3018 	ldr	r3, [fp, #-24]
   15224:	e5933004 	ldr	r3, [r3, #4]
   15228:	e50b3008 	str	r3, [fp, #-8]
   1522c:	e51b3018 	ldr	r3, [fp, #-24]
   15230:	e5933000 	ldr	r3, [r3]
   15234:	e50b300c 	str	r3, [fp, #-12]
   15238:	e51b3008 	ldr	r3, [fp, #-8]
   1523c:	e3530000 	cmp	r3, #0
   15240:	1a00000c 	bne	15278 <OS_FlagUnlink+0x68>
   15244:	e51b3018 	ldr	r3, [fp, #-24]
   15248:	e593300c 	ldr	r3, [r3, #12]
   1524c:	e50b3010 	str	r3, [fp, #-16]
   15250:	e51b3010 	ldr	r3, [fp, #-16]
   15254:	e51b200c 	ldr	r2, [fp, #-12]
   15258:	e5832004 	str	r2, [r3, #4]
   1525c:	e51b300c 	ldr	r3, [fp, #-12]
   15260:	e3530000 	cmp	r3, #0
   15264:	0a00000c 	beq	1529c <OS_FlagUnlink+0x8c>
   15268:	e51b300c 	ldr	r3, [fp, #-12]
   1526c:	e3a02000 	mov	r2, #0
   15270:	e5832004 	str	r2, [r3, #4]
   15274:	ea000008 	b	1529c <OS_FlagUnlink+0x8c>
   15278:	e51b3008 	ldr	r3, [fp, #-8]
   1527c:	e51b200c 	ldr	r2, [fp, #-12]
   15280:	e5832000 	str	r2, [r3]
   15284:	e51b300c 	ldr	r3, [fp, #-12]
   15288:	e3530000 	cmp	r3, #0
   1528c:	0a000002 	beq	1529c <OS_FlagUnlink+0x8c>
   15290:	e51b300c 	ldr	r3, [fp, #-12]
   15294:	e51b2008 	ldr	r2, [fp, #-8]
   15298:	e5832004 	str	r2, [r3, #4]
   1529c:	e51b3018 	ldr	r3, [fp, #-24]
   152a0:	e5933008 	ldr	r3, [r3, #8]
   152a4:	e50b3014 	str	r3, [fp, #-20]
   152a8:	e51b3014 	ldr	r3, [fp, #-20]
   152ac:	e3a02000 	mov	r2, #0
   152b0:	e5832024 	str	r2, [r3, #36]	; 0x24
   152b4:	e24bd000 	sub	sp, fp, #0
   152b8:	e49db004 	pop	{fp}		; (ldr fp, [sp], #4)
   152bc:	e12fff1e 	bx	lr

000152c0 <OSMboxAccept>:
   152c0:	e92d4800 	push	{fp, lr}
   152c4:	e28db004 	add	fp, sp, #4
   152c8:	e24dd010 	sub	sp, sp, #16
   152cc:	e50b0010 	str	r0, [fp, #-16]
   152d0:	e51b3010 	ldr	r3, [fp, #-16]
   152d4:	e3530000 	cmp	r3, #0
   152d8:	1a000001 	bne	152e4 <OSMboxAccept+0x24>
   152dc:	e3a03000 	mov	r3, #0
   152e0:	ea000011 	b	1532c <OSMboxAccept+0x6c>
   152e4:	e51b3010 	ldr	r3, [fp, #-16]
   152e8:	e5d33000 	ldrb	r3, [r3]
   152ec:	e3530001 	cmp	r3, #1
   152f0:	0a000001 	beq	152fc <OSMboxAccept+0x3c>
   152f4:	e3a03000 	mov	r3, #0
   152f8:	ea00000b 	b	1532c <OSMboxAccept+0x6c>
   152fc:	ebfff5aa 	bl	129ac <OS_CPU_SR_Save>
   15300:	e1a03000 	mov	r3, r0
   15304:	e50b3008 	str	r3, [fp, #-8]
   15308:	e51b3010 	ldr	r3, [fp, #-16]
   1530c:	e5933004 	ldr	r3, [r3, #4]
   15310:	e50b300c 	str	r3, [fp, #-12]
   15314:	e51b3010 	ldr	r3, [fp, #-16]
   15318:	e3a02000 	mov	r2, #0
   1531c:	e5832004 	str	r2, [r3, #4]
   15320:	e51b0008 	ldr	r0, [fp, #-8]
   15324:	ebfff5a8 	bl	129cc <OS_CPU_SR_Restore>
   15328:	e51b300c 	ldr	r3, [fp, #-12]
   1532c:	e1a00003 	mov	r0, r3
   15330:	e24bd004 	sub	sp, fp, #4
   15334:	e8bd8800 	pop	{fp, pc}

00015338 <OSMboxCreate>:
   15338:	e92d4800 	push	{fp, lr}
   1533c:	e28db004 	add	fp, sp, #4
   15340:	e24dd010 	sub	sp, sp, #16
   15344:	e50b0010 	str	r0, [fp, #-16]
   15348:	e59f309c 	ldr	r3, [pc, #156]	; 153ec <OSMboxCreate+0xb4>
   1534c:	e5d33000 	ldrb	r3, [r3]
   15350:	e3530000 	cmp	r3, #0
   15354:	0a000001 	beq	15360 <OSMboxCreate+0x28>
   15358:	e3a03000 	mov	r3, #0
   1535c:	ea00001f 	b	153e0 <OSMboxCreate+0xa8>
   15360:	ebfff591 	bl	129ac <OS_CPU_SR_Save>
   15364:	e1a03000 	mov	r3, r0
   15368:	e50b3008 	str	r3, [fp, #-8]
   1536c:	e59f307c 	ldr	r3, [pc, #124]	; 153f0 <OSMboxCreate+0xb8>
   15370:	e5933000 	ldr	r3, [r3]
   15374:	e50b300c 	str	r3, [fp, #-12]
   15378:	e59f3070 	ldr	r3, [pc, #112]	; 153f0 <OSMboxCreate+0xb8>
   1537c:	e5933000 	ldr	r3, [r3]
   15380:	e3530000 	cmp	r3, #0
   15384:	0a000004 	beq	1539c <OSMboxCreate+0x64>
   15388:	e59f3060 	ldr	r3, [pc, #96]	; 153f0 <OSMboxCreate+0xb8>
   1538c:	e5933000 	ldr	r3, [r3]
   15390:	e5932004 	ldr	r2, [r3, #4]
   15394:	e59f3054 	ldr	r3, [pc, #84]	; 153f0 <OSMboxCreate+0xb8>
   15398:	e5832000 	str	r2, [r3]
   1539c:	e51b0008 	ldr	r0, [fp, #-8]
   153a0:	ebfff589 	bl	129cc <OS_CPU_SR_Restore>
   153a4:	e51b300c 	ldr	r3, [fp, #-12]
   153a8:	e3530000 	cmp	r3, #0
   153ac:	0a00000a 	beq	153dc <OSMboxCreate+0xa4>
   153b0:	e51b300c 	ldr	r3, [fp, #-12]
   153b4:	e3a02001 	mov	r2, #1
   153b8:	e5c32000 	strb	r2, [r3]
   153bc:	e51b300c 	ldr	r3, [fp, #-12]
   153c0:	e3a02000 	mov	r2, #0
   153c4:	e1c320b2 	strh	r2, [r3, #2]
   153c8:	e51b300c 	ldr	r3, [fp, #-12]
   153cc:	e51b2010 	ldr	r2, [fp, #-16]
   153d0:	e5832004 	str	r2, [r3, #4]
   153d4:	e51b000c 	ldr	r0, [fp, #-12]
   153d8:	ebfff8e8 	bl	13780 <OS_EventWaitListInit>
   153dc:	e51b300c 	ldr	r3, [fp, #-12]
   153e0:	e1a00003 	mov	r0, r3
   153e4:	e24bd004 	sub	sp, fp, #4
   153e8:	e8bd8800 	pop	{fp, pc}
   153ec:	0001bdd5 	ldrdeq	fp, [r1], -r5
   153f0:	0001bdd0 	ldrdeq	fp, [r1], -r0

000153f4 <OSMboxDel>:
   153f4:	e92d4800 	push	{fp, lr}
   153f8:	e28db004 	add	fp, sp, #4
   153fc:	e24dd018 	sub	sp, sp, #24
   15400:	e50b0010 	str	r0, [fp, #-16]
   15404:	e1a03001 	mov	r3, r1
   15408:	e50b2018 	str	r2, [fp, #-24]
   1540c:	e54b3011 	strb	r3, [fp, #-17]
   15410:	e59f31b4 	ldr	r3, [pc, #436]	; 155cc <OSMboxDel+0x1d8>
   15414:	e5d33000 	ldrb	r3, [r3]
   15418:	e3530000 	cmp	r3, #0
   1541c:	0a000004 	beq	15434 <OSMboxDel+0x40>
   15420:	e51b3018 	ldr	r3, [fp, #-24]
   15424:	e3e02073 	mvn	r2, #115	; 0x73
   15428:	e5c32000 	strb	r2, [r3]
   1542c:	e51b3010 	ldr	r3, [fp, #-16]
   15430:	ea000062 	b	155c0 <OSMboxDel+0x1cc>
   15434:	e51b3010 	ldr	r3, [fp, #-16]
   15438:	e3530000 	cmp	r3, #0
   1543c:	1a000004 	bne	15454 <OSMboxDel+0x60>
   15440:	e51b3018 	ldr	r3, [fp, #-24]
   15444:	e3a02004 	mov	r2, #4
   15448:	e5c32000 	strb	r2, [r3]
   1544c:	e51b3010 	ldr	r3, [fp, #-16]
   15450:	ea00005a 	b	155c0 <OSMboxDel+0x1cc>
   15454:	e51b3010 	ldr	r3, [fp, #-16]
   15458:	e5d33000 	ldrb	r3, [r3]
   1545c:	e3530001 	cmp	r3, #1
   15460:	0a000004 	beq	15478 <OSMboxDel+0x84>
   15464:	e51b3018 	ldr	r3, [fp, #-24]
   15468:	e3a02001 	mov	r2, #1
   1546c:	e5c32000 	strb	r2, [r3]
   15470:	e51b3010 	ldr	r3, [fp, #-16]
   15474:	ea000051 	b	155c0 <OSMboxDel+0x1cc>
   15478:	ebfff54b 	bl	129ac <OS_CPU_SR_Save>
   1547c:	e1a03000 	mov	r3, r0
   15480:	e50b300c 	str	r3, [fp, #-12]
   15484:	e51b3010 	ldr	r3, [fp, #-16]
   15488:	e5d33001 	ldrb	r3, [r3, #1]
   1548c:	e3530000 	cmp	r3, #0
   15490:	0a000002 	beq	154a0 <OSMboxDel+0xac>
   15494:	e3a03001 	mov	r3, #1
   15498:	e54b3005 	strb	r3, [fp, #-5]
   1549c:	ea000001 	b	154a8 <OSMboxDel+0xb4>
   154a0:	e3a03000 	mov	r3, #0
   154a4:	e54b3005 	strb	r3, [fp, #-5]
   154a8:	e55b3011 	ldrb	r3, [fp, #-17]
   154ac:	e3530000 	cmp	r3, #0
   154b0:	0a000002 	beq	154c0 <OSMboxDel+0xcc>
   154b4:	e3530001 	cmp	r3, #1
   154b8:	0a000020 	beq	15540 <OSMboxDel+0x14c>
   154bc:	ea000039 	b	155a8 <OSMboxDel+0x1b4>
   154c0:	e55b3005 	ldrb	r3, [fp, #-5]
   154c4:	e3530000 	cmp	r3, #0
   154c8:	1a000010 	bne	15510 <OSMboxDel+0x11c>
   154cc:	e51b3010 	ldr	r3, [fp, #-16]
   154d0:	e3a02000 	mov	r2, #0
   154d4:	e5c32000 	strb	r2, [r3]
   154d8:	e59f30f0 	ldr	r3, [pc, #240]	; 155d0 <OSMboxDel+0x1dc>
   154dc:	e5932000 	ldr	r2, [r3]
   154e0:	e51b3010 	ldr	r3, [fp, #-16]
   154e4:	e5832004 	str	r2, [r3, #4]
   154e8:	e59f30e0 	ldr	r3, [pc, #224]	; 155d0 <OSMboxDel+0x1dc>
   154ec:	e51b2010 	ldr	r2, [fp, #-16]
   154f0:	e5832000 	str	r2, [r3]
   154f4:	e51b000c 	ldr	r0, [fp, #-12]
   154f8:	ebfff533 	bl	129cc <OS_CPU_SR_Restore>
   154fc:	e51b3018 	ldr	r3, [fp, #-24]
   15500:	e3a02000 	mov	r2, #0
   15504:	e5c32000 	strb	r2, [r3]
   15508:	e3a03000 	mov	r3, #0
   1550c:	ea00002b 	b	155c0 <OSMboxDel+0x1cc>
   15510:	e51b000c 	ldr	r0, [fp, #-12]
   15514:	ebfff52c 	bl	129cc <OS_CPU_SR_Restore>
   15518:	e51b3018 	ldr	r3, [fp, #-24]
   1551c:	e3a02008 	mov	r2, #8
   15520:	e5c32000 	strb	r2, [r3]
   15524:	e51b3010 	ldr	r3, [fp, #-16]
   15528:	ea000024 	b	155c0 <OSMboxDel+0x1cc>
   1552c:	e51b0010 	ldr	r0, [fp, #-16]
   15530:	e3a01000 	mov	r1, #0
   15534:	e3a02002 	mov	r2, #2
   15538:	ebfff77e 	bl	13338 <OS_EventTaskRdy>
   1553c:	ea000000 	b	15544 <OSMboxDel+0x150>
   15540:	e1a00000 	nop			; (mov r0, r0)
   15544:	e51b3010 	ldr	r3, [fp, #-16]
   15548:	e5d33001 	ldrb	r3, [r3, #1]
   1554c:	e3530000 	cmp	r3, #0
   15550:	1afffff5 	bne	1552c <OSMboxDel+0x138>
   15554:	e51b3010 	ldr	r3, [fp, #-16]
   15558:	e3a02000 	mov	r2, #0
   1555c:	e5c32000 	strb	r2, [r3]
   15560:	e59f3068 	ldr	r3, [pc, #104]	; 155d0 <OSMboxDel+0x1dc>
   15564:	e5932000 	ldr	r2, [r3]
   15568:	e51b3010 	ldr	r3, [fp, #-16]
   1556c:	e5832004 	str	r2, [r3, #4]
   15570:	e59f3058 	ldr	r3, [pc, #88]	; 155d0 <OSMboxDel+0x1dc>
   15574:	e51b2010 	ldr	r2, [fp, #-16]
   15578:	e5832000 	str	r2, [r3]
   1557c:	e51b000c 	ldr	r0, [fp, #-12]
   15580:	ebfff511 	bl	129cc <OS_CPU_SR_Restore>
   15584:	e55b3005 	ldrb	r3, [fp, #-5]
   15588:	e3530001 	cmp	r3, #1
   1558c:	1a000000 	bne	15594 <OSMboxDel+0x1a0>
   15590:	ebfff997 	bl	13bf4 <OS_Sched>
   15594:	e51b3018 	ldr	r3, [fp, #-24]
   15598:	e3a02000 	mov	r2, #0
   1559c:	e5c32000 	strb	r2, [r3]
   155a0:	e3a03000 	mov	r3, #0
   155a4:	ea000005 	b	155c0 <OSMboxDel+0x1cc>
   155a8:	e51b000c 	ldr	r0, [fp, #-12]
   155ac:	ebfff506 	bl	129cc <OS_CPU_SR_Restore>
   155b0:	e51b3018 	ldr	r3, [fp, #-24]
   155b4:	e3a02007 	mov	r2, #7
   155b8:	e5c32000 	strb	r2, [r3]
   155bc:	e51b3010 	ldr	r3, [fp, #-16]
   155c0:	e1a00003 	mov	r0, r3
   155c4:	e24bd004 	sub	sp, fp, #4
   155c8:	e8bd8800 	pop	{fp, pc}
   155cc:	0001bdd5 	ldrdeq	fp, [r1], -r5
   155d0:	0001bdd0 	ldrdeq	fp, [r1], -r0

000155d4 <OSMboxPend>:
   155d4:	e92d4800 	push	{fp, lr}
   155d8:	e28db004 	add	fp, sp, #4
   155dc:	e24dd018 	sub	sp, sp, #24
   155e0:	e50b0010 	str	r0, [fp, #-16]
   155e4:	e1a03001 	mov	r3, r1
   155e8:	e50b2018 	str	r2, [fp, #-24]
   155ec:	e14b31b2 	strh	r3, [fp, #-18]	; 0xffffffee
   155f0:	e59f3190 	ldr	r3, [pc, #400]	; 15788 <OSMboxPend+0x1b4>
   155f4:	e5d33000 	ldrb	r3, [r3]
   155f8:	e3530000 	cmp	r3, #0
   155fc:	0a000004 	beq	15614 <OSMboxPend+0x40>
   15600:	e51b3018 	ldr	r3, [fp, #-24]
   15604:	e3a02002 	mov	r2, #2
   15608:	e5c32000 	strb	r2, [r3]
   1560c:	e3a03000 	mov	r3, #0
   15610:	ea000059 	b	1577c <OSMboxPend+0x1a8>
   15614:	e51b3010 	ldr	r3, [fp, #-16]
   15618:	e3530000 	cmp	r3, #0
   1561c:	1a000004 	bne	15634 <OSMboxPend+0x60>
   15620:	e51b3018 	ldr	r3, [fp, #-24]
   15624:	e3a02004 	mov	r2, #4
   15628:	e5c32000 	strb	r2, [r3]
   1562c:	e3a03000 	mov	r3, #0
   15630:	ea000051 	b	1577c <OSMboxPend+0x1a8>
   15634:	e51b3010 	ldr	r3, [fp, #-16]
   15638:	e5d33000 	ldrb	r3, [r3]
   1563c:	e3530001 	cmp	r3, #1
   15640:	0a000004 	beq	15658 <OSMboxPend+0x84>
   15644:	e51b3018 	ldr	r3, [fp, #-24]
   15648:	e3a02001 	mov	r2, #1
   1564c:	e5c32000 	strb	r2, [r3]
   15650:	e3a03000 	mov	r3, #0
   15654:	ea000048 	b	1577c <OSMboxPend+0x1a8>
   15658:	ebfff4d3 	bl	129ac <OS_CPU_SR_Save>
   1565c:	e1a03000 	mov	r3, r0
   15660:	e50b3008 	str	r3, [fp, #-8]
   15664:	e51b3010 	ldr	r3, [fp, #-16]
   15668:	e5933004 	ldr	r3, [r3, #4]
   1566c:	e50b300c 	str	r3, [fp, #-12]
   15670:	e51b300c 	ldr	r3, [fp, #-12]
   15674:	e3530000 	cmp	r3, #0
   15678:	0a000009 	beq	156a4 <OSMboxPend+0xd0>
   1567c:	e51b3010 	ldr	r3, [fp, #-16]
   15680:	e3a02000 	mov	r2, #0
   15684:	e5832004 	str	r2, [r3, #4]
   15688:	e51b0008 	ldr	r0, [fp, #-8]
   1568c:	ebfff4ce 	bl	129cc <OS_CPU_SR_Restore>
   15690:	e51b3018 	ldr	r3, [fp, #-24]
   15694:	e3a02000 	mov	r2, #0
   15698:	e5c32000 	strb	r2, [r3]
   1569c:	e51b300c 	ldr	r3, [fp, #-12]
   156a0:	ea000035 	b	1577c <OSMboxPend+0x1a8>
   156a4:	e59f30e0 	ldr	r3, [pc, #224]	; 1578c <OSMboxPend+0x1b8>
   156a8:	e5933000 	ldr	r3, [r3]
   156ac:	e59f20d8 	ldr	r2, [pc, #216]	; 1578c <OSMboxPend+0x1b8>
   156b0:	e5922000 	ldr	r2, [r2]
   156b4:	e5d2202c 	ldrb	r2, [r2, #44]	; 0x2c
   156b8:	e3822002 	orr	r2, r2, #2
   156bc:	e6ef2072 	uxtb	r2, r2
   156c0:	e5c3202c 	strb	r2, [r3, #44]	; 0x2c
   156c4:	e59f30c0 	ldr	r3, [pc, #192]	; 1578c <OSMboxPend+0x1b8>
   156c8:	e5933000 	ldr	r3, [r3]
   156cc:	e15b21b2 	ldrh	r2, [fp, #-18]	; 0xffffffee
   156d0:	e1c322ba 	strh	r2, [r3, #42]	; 0x2a
   156d4:	e51b0010 	ldr	r0, [fp, #-16]
   156d8:	ebfff794 	bl	13530 <OS_EventTaskWait>
   156dc:	e51b0008 	ldr	r0, [fp, #-8]
   156e0:	ebfff4b9 	bl	129cc <OS_CPU_SR_Restore>
   156e4:	ebfff942 	bl	13bf4 <OS_Sched>
   156e8:	ebfff4af 	bl	129ac <OS_CPU_SR_Save>
   156ec:	e1a03000 	mov	r3, r0
   156f0:	e50b3008 	str	r3, [fp, #-8]
   156f4:	e59f3090 	ldr	r3, [pc, #144]	; 1578c <OSMboxPend+0x1b8>
   156f8:	e5933000 	ldr	r3, [r3]
   156fc:	e5933020 	ldr	r3, [r3, #32]
   15700:	e50b300c 	str	r3, [fp, #-12]
   15704:	e51b300c 	ldr	r3, [fp, #-12]
   15708:	e3530000 	cmp	r3, #0
   1570c:	0a000012 	beq	1575c <OSMboxPend+0x188>
   15710:	e59f3074 	ldr	r3, [pc, #116]	; 1578c <OSMboxPend+0x1b8>
   15714:	e5933000 	ldr	r3, [r3]
   15718:	e3a02000 	mov	r2, #0
   1571c:	e5832020 	str	r2, [r3, #32]
   15720:	e59f3064 	ldr	r3, [pc, #100]	; 1578c <OSMboxPend+0x1b8>
   15724:	e5933000 	ldr	r3, [r3]
   15728:	e3a02000 	mov	r2, #0
   1572c:	e5c3202c 	strb	r2, [r3, #44]	; 0x2c
   15730:	e59f3054 	ldr	r3, [pc, #84]	; 1578c <OSMboxPend+0x1b8>
   15734:	e5933000 	ldr	r3, [r3]
   15738:	e3a02000 	mov	r2, #0
   1573c:	e583201c 	str	r2, [r3, #28]
   15740:	e51b0008 	ldr	r0, [fp, #-8]
   15744:	ebfff4a0 	bl	129cc <OS_CPU_SR_Restore>
   15748:	e51b3018 	ldr	r3, [fp, #-24]
   1574c:	e3a02000 	mov	r2, #0
   15750:	e5c32000 	strb	r2, [r3]
   15754:	e51b300c 	ldr	r3, [fp, #-12]
   15758:	ea000007 	b	1577c <OSMboxPend+0x1a8>
   1575c:	e51b0010 	ldr	r0, [fp, #-16]
   15760:	ebfff7c6 	bl	13680 <OS_EventTO>
   15764:	e51b0008 	ldr	r0, [fp, #-8]
   15768:	ebfff497 	bl	129cc <OS_CPU_SR_Restore>
   1576c:	e51b3018 	ldr	r3, [fp, #-24]
   15770:	e3a0200a 	mov	r2, #10
   15774:	e5c32000 	strb	r2, [r3]
   15778:	e3a03000 	mov	r3, #0
   1577c:	e1a00003 	mov	r0, r3
   15780:	e24bd004 	sub	sp, fp, #4
   15784:	e8bd8800 	pop	{fp, pc}
   15788:	0001bdd5 	ldrdeq	fp, [r1], -r5
   1578c:	0001bdd8 	ldrdeq	fp, [r1], -r8

00015790 <OSMboxPost>:
   15790:	e92d4800 	push	{fp, lr}
   15794:	e28db004 	add	fp, sp, #4
   15798:	e24dd010 	sub	sp, sp, #16
   1579c:	e50b0010 	str	r0, [fp, #-16]
   157a0:	e50b1014 	str	r1, [fp, #-20]
   157a4:	e51b3010 	ldr	r3, [fp, #-16]
   157a8:	e3530000 	cmp	r3, #0
   157ac:	1a000001 	bne	157b8 <OSMboxPost+0x28>
   157b0:	e3a03004 	mov	r3, #4
   157b4:	ea000028 	b	1585c <OSMboxPost+0xcc>
   157b8:	e51b3014 	ldr	r3, [fp, #-20]
   157bc:	e3530000 	cmp	r3, #0
   157c0:	1a000001 	bne	157cc <OSMboxPost+0x3c>
   157c4:	e3a03003 	mov	r3, #3
   157c8:	ea000023 	b	1585c <OSMboxPost+0xcc>
   157cc:	e51b3010 	ldr	r3, [fp, #-16]
   157d0:	e5d33000 	ldrb	r3, [r3]
   157d4:	e3530001 	cmp	r3, #1
   157d8:	0a000001 	beq	157e4 <OSMboxPost+0x54>
   157dc:	e3a03001 	mov	r3, #1
   157e0:	ea00001d 	b	1585c <OSMboxPost+0xcc>
   157e4:	ebfff470 	bl	129ac <OS_CPU_SR_Save>
   157e8:	e1a03000 	mov	r3, r0
   157ec:	e50b3008 	str	r3, [fp, #-8]
   157f0:	e51b3010 	ldr	r3, [fp, #-16]
   157f4:	e5d33001 	ldrb	r3, [r3, #1]
   157f8:	e3530000 	cmp	r3, #0
   157fc:	0a000008 	beq	15824 <OSMboxPost+0x94>
   15800:	e51b0010 	ldr	r0, [fp, #-16]
   15804:	e51b1014 	ldr	r1, [fp, #-20]
   15808:	e3a02002 	mov	r2, #2
   1580c:	ebfff6c9 	bl	13338 <OS_EventTaskRdy>
   15810:	e51b0008 	ldr	r0, [fp, #-8]
   15814:	ebfff46c 	bl	129cc <OS_CPU_SR_Restore>
   15818:	ebfff8f5 	bl	13bf4 <OS_Sched>
   1581c:	e3a03000 	mov	r3, #0
   15820:	ea00000d 	b	1585c <OSMboxPost+0xcc>
   15824:	e51b3010 	ldr	r3, [fp, #-16]
   15828:	e5933004 	ldr	r3, [r3, #4]
   1582c:	e3530000 	cmp	r3, #0
   15830:	0a000003 	beq	15844 <OSMboxPost+0xb4>
   15834:	e51b0008 	ldr	r0, [fp, #-8]
   15838:	ebfff463 	bl	129cc <OS_CPU_SR_Restore>
   1583c:	e3a03014 	mov	r3, #20
   15840:	ea000005 	b	1585c <OSMboxPost+0xcc>
   15844:	e51b3010 	ldr	r3, [fp, #-16]
   15848:	e51b2014 	ldr	r2, [fp, #-20]
   1584c:	e5832004 	str	r2, [r3, #4]
   15850:	e51b0008 	ldr	r0, [fp, #-8]
   15854:	ebfff45c 	bl	129cc <OS_CPU_SR_Restore>
   15858:	e3a03000 	mov	r3, #0
   1585c:	e1a00003 	mov	r0, r3
   15860:	e24bd004 	sub	sp, fp, #4
   15864:	e8bd8800 	pop	{fp, pc}

00015868 <OSMboxPostOpt>:
   15868:	e92d4800 	push	{fp, lr}
   1586c:	e28db004 	add	fp, sp, #4
   15870:	e24dd018 	sub	sp, sp, #24
   15874:	e50b0010 	str	r0, [fp, #-16]
   15878:	e50b1014 	str	r1, [fp, #-20]
   1587c:	e1a03002 	mov	r3, r2
   15880:	e54b3015 	strb	r3, [fp, #-21]
   15884:	e51b3010 	ldr	r3, [fp, #-16]
   15888:	e3530000 	cmp	r3, #0
   1588c:	1a000001 	bne	15898 <OSMboxPostOpt+0x30>
   15890:	e3a03004 	mov	r3, #4
   15894:	ea000036 	b	15974 <OSMboxPostOpt+0x10c>
   15898:	e51b3014 	ldr	r3, [fp, #-20]
   1589c:	e3530000 	cmp	r3, #0
   158a0:	1a000001 	bne	158ac <OSMboxPostOpt+0x44>
   158a4:	e3a03003 	mov	r3, #3
   158a8:	ea000031 	b	15974 <OSMboxPostOpt+0x10c>
   158ac:	e51b3010 	ldr	r3, [fp, #-16]
   158b0:	e5d33000 	ldrb	r3, [r3]
   158b4:	e3530001 	cmp	r3, #1
   158b8:	0a000001 	beq	158c4 <OSMboxPostOpt+0x5c>
   158bc:	e3a03001 	mov	r3, #1
   158c0:	ea00002b 	b	15974 <OSMboxPostOpt+0x10c>
   158c4:	ebfff438 	bl	129ac <OS_CPU_SR_Save>
   158c8:	e1a03000 	mov	r3, r0
   158cc:	e50b3008 	str	r3, [fp, #-8]
   158d0:	e51b3010 	ldr	r3, [fp, #-16]
   158d4:	e5d33001 	ldrb	r3, [r3, #1]
   158d8:	e3530000 	cmp	r3, #0
   158dc:	0a000016 	beq	1593c <OSMboxPostOpt+0xd4>
   158e0:	e55b3015 	ldrb	r3, [fp, #-21]
   158e4:	e2033001 	and	r3, r3, #1
   158e8:	e3530000 	cmp	r3, #0
   158ec:	0a000009 	beq	15918 <OSMboxPostOpt+0xb0>
   158f0:	ea000003 	b	15904 <OSMboxPostOpt+0x9c>
   158f4:	e51b0010 	ldr	r0, [fp, #-16]
   158f8:	e51b1014 	ldr	r1, [fp, #-20]
   158fc:	e3a02002 	mov	r2, #2
   15900:	ebfff68c 	bl	13338 <OS_EventTaskRdy>
   15904:	e51b3010 	ldr	r3, [fp, #-16]
   15908:	e5d33001 	ldrb	r3, [r3, #1]
   1590c:	e3530000 	cmp	r3, #0
   15910:	1afffff7 	bne	158f4 <OSMboxPostOpt+0x8c>
   15914:	ea000003 	b	15928 <OSMboxPostOpt+0xc0>
   15918:	e51b0010 	ldr	r0, [fp, #-16]
   1591c:	e51b1014 	ldr	r1, [fp, #-20]
   15920:	e3a02002 	mov	r2, #2
   15924:	ebfff683 	bl	13338 <OS_EventTaskRdy>
   15928:	e51b0008 	ldr	r0, [fp, #-8]
   1592c:	ebfff426 	bl	129cc <OS_CPU_SR_Restore>
   15930:	ebfff8af 	bl	13bf4 <OS_Sched>
   15934:	e3a03000 	mov	r3, #0
   15938:	ea00000d 	b	15974 <OSMboxPostOpt+0x10c>
   1593c:	e51b3010 	ldr	r3, [fp, #-16]
   15940:	e5933004 	ldr	r3, [r3, #4]
   15944:	e3530000 	cmp	r3, #0
   15948:	0a000003 	beq	1595c <OSMboxPostOpt+0xf4>
   1594c:	e51b0008 	ldr	r0, [fp, #-8]
   15950:	ebfff41d 	bl	129cc <OS_CPU_SR_Restore>
   15954:	e3a03014 	mov	r3, #20
   15958:	ea000005 	b	15974 <OSMboxPostOpt+0x10c>
   1595c:	e51b3010 	ldr	r3, [fp, #-16]
   15960:	e51b2014 	ldr	r2, [fp, #-20]
   15964:	e5832004 	str	r2, [r3, #4]
   15968:	e51b0008 	ldr	r0, [fp, #-8]
   1596c:	ebfff416 	bl	129cc <OS_CPU_SR_Restore>
   15970:	e3a03000 	mov	r3, #0
   15974:	e1a00003 	mov	r0, r3
   15978:	e24bd004 	sub	sp, fp, #4
   1597c:	e8bd8800 	pop	{fp, pc}

00015980 <OSMboxQuery>:
   15980:	e92d4800 	push	{fp, lr}
   15984:	e28db004 	add	fp, sp, #4
   15988:	e24dd018 	sub	sp, sp, #24
   1598c:	e50b0018 	str	r0, [fp, #-24]
   15990:	e50b101c 	str	r1, [fp, #-28]
   15994:	e51b3018 	ldr	r3, [fp, #-24]
   15998:	e3530000 	cmp	r3, #0
   1599c:	1a000001 	bne	159a8 <OSMboxQuery+0x28>
   159a0:	e3a03004 	mov	r3, #4
   159a4:	ea000055 	b	15b00 <OSMboxQuery+0x180>
   159a8:	e51b3018 	ldr	r3, [fp, #-24]
   159ac:	e5d33000 	ldrb	r3, [r3]
   159b0:	e3530001 	cmp	r3, #1
   159b4:	0a000001 	beq	159c0 <OSMboxQuery+0x40>
   159b8:	e3a03001 	mov	r3, #1
   159bc:	ea00004f 	b	15b00 <OSMboxQuery+0x180>
   159c0:	ebfff3f9 	bl	129ac <OS_CPU_SR_Save>
   159c4:	e1a03000 	mov	r3, r0
   159c8:	e50b3008 	str	r3, [fp, #-8]
   159cc:	e51b3018 	ldr	r3, [fp, #-24]
   159d0:	e5d32001 	ldrb	r2, [r3, #1]
   159d4:	e51b301c 	ldr	r3, [fp, #-28]
   159d8:	e5c3200c 	strb	r2, [r3, #12]
   159dc:	e51b3018 	ldr	r3, [fp, #-24]
   159e0:	e2833008 	add	r3, r3, #8
   159e4:	e50b300c 	str	r3, [fp, #-12]
   159e8:	e51b301c 	ldr	r3, [fp, #-28]
   159ec:	e2833004 	add	r3, r3, #4
   159f0:	e50b3010 	str	r3, [fp, #-16]
   159f4:	e51b3010 	ldr	r3, [fp, #-16]
   159f8:	e2832001 	add	r2, r3, #1
   159fc:	e50b2010 	str	r2, [fp, #-16]
   15a00:	e51b200c 	ldr	r2, [fp, #-12]
   15a04:	e2821001 	add	r1, r2, #1
   15a08:	e50b100c 	str	r1, [fp, #-12]
   15a0c:	e5d22000 	ldrb	r2, [r2]
   15a10:	e5c32000 	strb	r2, [r3]
   15a14:	e51b3010 	ldr	r3, [fp, #-16]
   15a18:	e2832001 	add	r2, r3, #1
   15a1c:	e50b2010 	str	r2, [fp, #-16]
   15a20:	e51b200c 	ldr	r2, [fp, #-12]
   15a24:	e2821001 	add	r1, r2, #1
   15a28:	e50b100c 	str	r1, [fp, #-12]
   15a2c:	e5d22000 	ldrb	r2, [r2]
   15a30:	e5c32000 	strb	r2, [r3]
   15a34:	e51b3010 	ldr	r3, [fp, #-16]
   15a38:	e2832001 	add	r2, r3, #1
   15a3c:	e50b2010 	str	r2, [fp, #-16]
   15a40:	e51b200c 	ldr	r2, [fp, #-12]
   15a44:	e2821001 	add	r1, r2, #1
   15a48:	e50b100c 	str	r1, [fp, #-12]
   15a4c:	e5d22000 	ldrb	r2, [r2]
   15a50:	e5c32000 	strb	r2, [r3]
   15a54:	e51b3010 	ldr	r3, [fp, #-16]
   15a58:	e2832001 	add	r2, r3, #1
   15a5c:	e50b2010 	str	r2, [fp, #-16]
   15a60:	e51b200c 	ldr	r2, [fp, #-12]
   15a64:	e2821001 	add	r1, r2, #1
   15a68:	e50b100c 	str	r1, [fp, #-12]
   15a6c:	e5d22000 	ldrb	r2, [r2]
   15a70:	e5c32000 	strb	r2, [r3]
   15a74:	e51b3010 	ldr	r3, [fp, #-16]
   15a78:	e2832001 	add	r2, r3, #1
   15a7c:	e50b2010 	str	r2, [fp, #-16]
   15a80:	e51b200c 	ldr	r2, [fp, #-12]
   15a84:	e2821001 	add	r1, r2, #1
   15a88:	e50b100c 	str	r1, [fp, #-12]
   15a8c:	e5d22000 	ldrb	r2, [r2]
   15a90:	e5c32000 	strb	r2, [r3]
   15a94:	e51b3010 	ldr	r3, [fp, #-16]
   15a98:	e2832001 	add	r2, r3, #1
   15a9c:	e50b2010 	str	r2, [fp, #-16]
   15aa0:	e51b200c 	ldr	r2, [fp, #-12]
   15aa4:	e2821001 	add	r1, r2, #1
   15aa8:	e50b100c 	str	r1, [fp, #-12]
   15aac:	e5d22000 	ldrb	r2, [r2]
   15ab0:	e5c32000 	strb	r2, [r3]
   15ab4:	e51b3010 	ldr	r3, [fp, #-16]
   15ab8:	e2832001 	add	r2, r3, #1
   15abc:	e50b2010 	str	r2, [fp, #-16]
   15ac0:	e51b200c 	ldr	r2, [fp, #-12]
   15ac4:	e2821001 	add	r1, r2, #1
   15ac8:	e50b100c 	str	r1, [fp, #-12]
   15acc:	e5d22000 	ldrb	r2, [r2]
   15ad0:	e5c32000 	strb	r2, [r3]
   15ad4:	e51b300c 	ldr	r3, [fp, #-12]
   15ad8:	e5d32000 	ldrb	r2, [r3]
   15adc:	e51b3010 	ldr	r3, [fp, #-16]
   15ae0:	e5c32000 	strb	r2, [r3]
   15ae4:	e51b3018 	ldr	r3, [fp, #-24]
   15ae8:	e5932004 	ldr	r2, [r3, #4]
   15aec:	e51b301c 	ldr	r3, [fp, #-28]
   15af0:	e5832000 	str	r2, [r3]
   15af4:	e51b0008 	ldr	r0, [fp, #-8]
   15af8:	ebfff3b3 	bl	129cc <OS_CPU_SR_Restore>
   15afc:	e3a03000 	mov	r3, #0
   15b00:	e1a00003 	mov	r0, r3
   15b04:	e24bd004 	sub	sp, fp, #4
   15b08:	e8bd8800 	pop	{fp, pc}

00015b0c <OSMemCreate>:
   15b0c:	e92d4800 	push	{fp, lr}
   15b10:	e28db004 	add	fp, sp, #4
   15b14:	e24dd028 	sub	sp, sp, #40	; 0x28
   15b18:	e50b0020 	str	r0, [fp, #-32]
   15b1c:	e50b1024 	str	r1, [fp, #-36]	; 0x24
   15b20:	e50b2028 	str	r2, [fp, #-40]	; 0x28
   15b24:	e50b302c 	str	r3, [fp, #-44]	; 0x2c
   15b28:	e51b3020 	ldr	r3, [fp, #-32]
   15b2c:	e3530000 	cmp	r3, #0
   15b30:	1a000004 	bne	15b48 <OSMemCreate+0x3c>
   15b34:	e51b302c 	ldr	r3, [fp, #-44]	; 0x2c
   15b38:	e3a02076 	mov	r2, #118	; 0x76
   15b3c:	e5c32000 	strb	r2, [r3]
   15b40:	e3a03000 	mov	r3, #0
   15b44:	ea000058 	b	15cac <OSMemCreate+0x1a0>
   15b48:	e51b3024 	ldr	r3, [fp, #-36]	; 0x24
   15b4c:	e3530001 	cmp	r3, #1
   15b50:	8a000004 	bhi	15b68 <OSMemCreate+0x5c>
   15b54:	e51b302c 	ldr	r3, [fp, #-44]	; 0x2c
   15b58:	e3a0206f 	mov	r2, #111	; 0x6f
   15b5c:	e5c32000 	strb	r2, [r3]
   15b60:	e3a03000 	mov	r3, #0
   15b64:	ea000050 	b	15cac <OSMemCreate+0x1a0>
   15b68:	e51b3028 	ldr	r3, [fp, #-40]	; 0x28
   15b6c:	e3530003 	cmp	r3, #3
   15b70:	8a000004 	bhi	15b88 <OSMemCreate+0x7c>
   15b74:	e51b302c 	ldr	r3, [fp, #-44]	; 0x2c
   15b78:	e3a02070 	mov	r2, #112	; 0x70
   15b7c:	e5c32000 	strb	r2, [r3]
   15b80:	e3a03000 	mov	r3, #0
   15b84:	ea000048 	b	15cac <OSMemCreate+0x1a0>
   15b88:	ebfff387 	bl	129ac <OS_CPU_SR_Save>
   15b8c:	e1a03000 	mov	r3, r0
   15b90:	e50b3014 	str	r3, [fp, #-20]
   15b94:	e59f311c 	ldr	r3, [pc, #284]	; 15cb8 <OSMemCreate+0x1ac>
   15b98:	e5933000 	ldr	r3, [r3]
   15b9c:	e50b3018 	str	r3, [fp, #-24]
   15ba0:	e59f3110 	ldr	r3, [pc, #272]	; 15cb8 <OSMemCreate+0x1ac>
   15ba4:	e5933000 	ldr	r3, [r3]
   15ba8:	e3530000 	cmp	r3, #0
   15bac:	0a000004 	beq	15bc4 <OSMemCreate+0xb8>
   15bb0:	e59f3100 	ldr	r3, [pc, #256]	; 15cb8 <OSMemCreate+0x1ac>
   15bb4:	e5933000 	ldr	r3, [r3]
   15bb8:	e5932004 	ldr	r2, [r3, #4]
   15bbc:	e59f30f4 	ldr	r3, [pc, #244]	; 15cb8 <OSMemCreate+0x1ac>
   15bc0:	e5832000 	str	r2, [r3]
   15bc4:	e51b0014 	ldr	r0, [fp, #-20]
   15bc8:	ebfff37f 	bl	129cc <OS_CPU_SR_Restore>
   15bcc:	e51b3018 	ldr	r3, [fp, #-24]
   15bd0:	e3530000 	cmp	r3, #0
   15bd4:	1a000004 	bne	15bec <OSMemCreate+0xe0>
   15bd8:	e51b302c 	ldr	r3, [fp, #-44]	; 0x2c
   15bdc:	e3a0206e 	mov	r2, #110	; 0x6e
   15be0:	e5c32000 	strb	r2, [r3]
   15be4:	e3a03000 	mov	r3, #0
   15be8:	ea00002f 	b	15cac <OSMemCreate+0x1a0>
   15bec:	e51b3020 	ldr	r3, [fp, #-32]
   15bf0:	e50b300c 	str	r3, [fp, #-12]
   15bf4:	e51b2020 	ldr	r2, [fp, #-32]
   15bf8:	e51b3028 	ldr	r3, [fp, #-40]	; 0x28
   15bfc:	e0823003 	add	r3, r2, r3
   15c00:	e50b3008 	str	r3, [fp, #-8]
   15c04:	e3a03000 	mov	r3, #0
   15c08:	e50b3010 	str	r3, [fp, #-16]
   15c0c:	ea00000b 	b	15c40 <OSMemCreate+0x134>
   15c10:	e51b300c 	ldr	r3, [fp, #-12]
   15c14:	e51b2008 	ldr	r2, [fp, #-8]
   15c18:	e5832000 	str	r2, [r3]
   15c1c:	e51b3008 	ldr	r3, [fp, #-8]
   15c20:	e50b300c 	str	r3, [fp, #-12]
   15c24:	e51b2008 	ldr	r2, [fp, #-8]
   15c28:	e51b3028 	ldr	r3, [fp, #-40]	; 0x28
   15c2c:	e0823003 	add	r3, r2, r3
   15c30:	e50b3008 	str	r3, [fp, #-8]
   15c34:	e51b3010 	ldr	r3, [fp, #-16]
   15c38:	e2833001 	add	r3, r3, #1
   15c3c:	e50b3010 	str	r3, [fp, #-16]
   15c40:	e51b3024 	ldr	r3, [fp, #-36]	; 0x24
   15c44:	e2432001 	sub	r2, r3, #1
   15c48:	e51b3010 	ldr	r3, [fp, #-16]
   15c4c:	e1520003 	cmp	r2, r3
   15c50:	8affffee 	bhi	15c10 <OSMemCreate+0x104>
   15c54:	e51b300c 	ldr	r3, [fp, #-12]
   15c58:	e3a02000 	mov	r2, #0
   15c5c:	e5832000 	str	r2, [r3]
   15c60:	e51b3018 	ldr	r3, [fp, #-24]
   15c64:	e51b2020 	ldr	r2, [fp, #-32]
   15c68:	e5832000 	str	r2, [r3]
   15c6c:	e51b3018 	ldr	r3, [fp, #-24]
   15c70:	e51b2020 	ldr	r2, [fp, #-32]
   15c74:	e5832004 	str	r2, [r3, #4]
   15c78:	e51b3018 	ldr	r3, [fp, #-24]
   15c7c:	e51b2024 	ldr	r2, [fp, #-36]	; 0x24
   15c80:	e5832010 	str	r2, [r3, #16]
   15c84:	e51b3018 	ldr	r3, [fp, #-24]
   15c88:	e51b2024 	ldr	r2, [fp, #-36]	; 0x24
   15c8c:	e583200c 	str	r2, [r3, #12]
   15c90:	e51b3018 	ldr	r3, [fp, #-24]
   15c94:	e51b2028 	ldr	r2, [fp, #-40]	; 0x28
   15c98:	e5832008 	str	r2, [r3, #8]
   15c9c:	e51b302c 	ldr	r3, [fp, #-44]	; 0x2c
   15ca0:	e3a02000 	mov	r2, #0
   15ca4:	e5c32000 	strb	r2, [r3]
   15ca8:	e51b3018 	ldr	r3, [fp, #-24]
   15cac:	e1a00003 	mov	r0, r3
   15cb0:	e24bd004 	sub	sp, fp, #4
   15cb4:	e8bd8800 	pop	{fp, pc}
   15cb8:	0001bd40 	andeq	fp, r1, r0, asr #26

00015cbc <OSMemGet>:
   15cbc:	e92d4800 	push	{fp, lr}
   15cc0:	e28db004 	add	fp, sp, #4
   15cc4:	e24dd010 	sub	sp, sp, #16
   15cc8:	e50b0010 	str	r0, [fp, #-16]
   15ccc:	e50b1014 	str	r1, [fp, #-20]
   15cd0:	e51b3010 	ldr	r3, [fp, #-16]
   15cd4:	e3530000 	cmp	r3, #0
   15cd8:	1a000004 	bne	15cf0 <OSMemGet+0x34>
   15cdc:	e51b3014 	ldr	r3, [fp, #-20]
   15ce0:	e3a02074 	mov	r2, #116	; 0x74
   15ce4:	e5c32000 	strb	r2, [r3]
   15ce8:	e3a03000 	mov	r3, #0
   15cec:	ea00001f 	b	15d70 <OSMemGet+0xb4>
   15cf0:	ebfff32d 	bl	129ac <OS_CPU_SR_Save>
   15cf4:	e1a03000 	mov	r3, r0
   15cf8:	e50b3008 	str	r3, [fp, #-8]
   15cfc:	e51b3010 	ldr	r3, [fp, #-16]
   15d00:	e5933010 	ldr	r3, [r3, #16]
   15d04:	e3530000 	cmp	r3, #0
   15d08:	0a000012 	beq	15d58 <OSMemGet+0x9c>
   15d0c:	e51b3010 	ldr	r3, [fp, #-16]
   15d10:	e5933004 	ldr	r3, [r3, #4]
   15d14:	e50b300c 	str	r3, [fp, #-12]
   15d18:	e51b300c 	ldr	r3, [fp, #-12]
   15d1c:	e5932000 	ldr	r2, [r3]
   15d20:	e51b3010 	ldr	r3, [fp, #-16]
   15d24:	e5832004 	str	r2, [r3, #4]
   15d28:	e51b3010 	ldr	r3, [fp, #-16]
   15d2c:	e5933010 	ldr	r3, [r3, #16]
   15d30:	e2432001 	sub	r2, r3, #1
   15d34:	e51b3010 	ldr	r3, [fp, #-16]
   15d38:	e5832010 	str	r2, [r3, #16]
   15d3c:	e51b0008 	ldr	r0, [fp, #-8]
   15d40:	ebfff321 	bl	129cc <OS_CPU_SR_Restore>
   15d44:	e51b3014 	ldr	r3, [fp, #-20]
   15d48:	e3a02000 	mov	r2, #0
   15d4c:	e5c32000 	strb	r2, [r3]
   15d50:	e51b300c 	ldr	r3, [fp, #-12]
   15d54:	ea000005 	b	15d70 <OSMemGet+0xb4>
   15d58:	e51b0008 	ldr	r0, [fp, #-8]
   15d5c:	ebfff31a 	bl	129cc <OS_CPU_SR_Restore>
   15d60:	e51b3014 	ldr	r3, [fp, #-20]
   15d64:	e3a02071 	mov	r2, #113	; 0x71
   15d68:	e5c32000 	strb	r2, [r3]
   15d6c:	e3a03000 	mov	r3, #0
   15d70:	e1a00003 	mov	r0, r3
   15d74:	e24bd004 	sub	sp, fp, #4
   15d78:	e8bd8800 	pop	{fp, pc}

00015d7c <OSMemPut>:
   15d7c:	e92d4800 	push	{fp, lr}
   15d80:	e28db004 	add	fp, sp, #4
   15d84:	e24dd010 	sub	sp, sp, #16
   15d88:	e50b0010 	str	r0, [fp, #-16]
   15d8c:	e50b1014 	str	r1, [fp, #-20]
   15d90:	e51b3010 	ldr	r3, [fp, #-16]
   15d94:	e3530000 	cmp	r3, #0
   15d98:	1a000001 	bne	15da4 <OSMemPut+0x28>
   15d9c:	e3a03074 	mov	r3, #116	; 0x74
   15da0:	ea000020 	b	15e28 <OSMemPut+0xac>
   15da4:	e51b3014 	ldr	r3, [fp, #-20]
   15da8:	e3530000 	cmp	r3, #0
   15dac:	1a000001 	bne	15db8 <OSMemPut+0x3c>
   15db0:	e3a03073 	mov	r3, #115	; 0x73
   15db4:	ea00001b 	b	15e28 <OSMemPut+0xac>
   15db8:	ebfff2fb 	bl	129ac <OS_CPU_SR_Save>
   15dbc:	e1a03000 	mov	r3, r0
   15dc0:	e50b3008 	str	r3, [fp, #-8]
   15dc4:	e51b3010 	ldr	r3, [fp, #-16]
   15dc8:	e5932010 	ldr	r2, [r3, #16]
   15dcc:	e51b3010 	ldr	r3, [fp, #-16]
   15dd0:	e593300c 	ldr	r3, [r3, #12]
   15dd4:	e1520003 	cmp	r2, r3
   15dd8:	3a000003 	bcc	15dec <OSMemPut+0x70>
   15ddc:	e51b0008 	ldr	r0, [fp, #-8]
   15de0:	ebfff2f9 	bl	129cc <OS_CPU_SR_Restore>
   15de4:	e3a03072 	mov	r3, #114	; 0x72
   15de8:	ea00000e 	b	15e28 <OSMemPut+0xac>
   15dec:	e51b3010 	ldr	r3, [fp, #-16]
   15df0:	e5932004 	ldr	r2, [r3, #4]
   15df4:	e51b3014 	ldr	r3, [fp, #-20]
   15df8:	e5832000 	str	r2, [r3]
   15dfc:	e51b3010 	ldr	r3, [fp, #-16]
   15e00:	e51b2014 	ldr	r2, [fp, #-20]
   15e04:	e5832004 	str	r2, [r3, #4]
   15e08:	e51b3010 	ldr	r3, [fp, #-16]
   15e0c:	e5933010 	ldr	r3, [r3, #16]
   15e10:	e2832001 	add	r2, r3, #1
   15e14:	e51b3010 	ldr	r3, [fp, #-16]
   15e18:	e5832010 	str	r2, [r3, #16]
   15e1c:	e51b0008 	ldr	r0, [fp, #-8]
   15e20:	ebfff2e9 	bl	129cc <OS_CPU_SR_Restore>
   15e24:	e3a03000 	mov	r3, #0
   15e28:	e1a00003 	mov	r0, r3
   15e2c:	e24bd004 	sub	sp, fp, #4
   15e30:	e8bd8800 	pop	{fp, pc}

00015e34 <OSMemQuery>:
   15e34:	e92d4800 	push	{fp, lr}
   15e38:	e28db004 	add	fp, sp, #4
   15e3c:	e24dd010 	sub	sp, sp, #16
   15e40:	e50b0010 	str	r0, [fp, #-16]
   15e44:	e50b1014 	str	r1, [fp, #-20]
   15e48:	e51b3010 	ldr	r3, [fp, #-16]
   15e4c:	e3530000 	cmp	r3, #0
   15e50:	1a000001 	bne	15e5c <OSMemQuery+0x28>
   15e54:	e3a03074 	mov	r3, #116	; 0x74
   15e58:	ea000025 	b	15ef4 <OSMemQuery+0xc0>
   15e5c:	e51b3014 	ldr	r3, [fp, #-20]
   15e60:	e3530000 	cmp	r3, #0
   15e64:	1a000001 	bne	15e70 <OSMemQuery+0x3c>
   15e68:	e3a03075 	mov	r3, #117	; 0x75
   15e6c:	ea000020 	b	15ef4 <OSMemQuery+0xc0>
   15e70:	ebfff2cd 	bl	129ac <OS_CPU_SR_Save>
   15e74:	e1a03000 	mov	r3, r0
   15e78:	e50b3008 	str	r3, [fp, #-8]
   15e7c:	e51b3010 	ldr	r3, [fp, #-16]
   15e80:	e5932000 	ldr	r2, [r3]
   15e84:	e51b3014 	ldr	r3, [fp, #-20]
   15e88:	e5832000 	str	r2, [r3]
   15e8c:	e51b3010 	ldr	r3, [fp, #-16]
   15e90:	e5932004 	ldr	r2, [r3, #4]
   15e94:	e51b3014 	ldr	r3, [fp, #-20]
   15e98:	e5832004 	str	r2, [r3, #4]
   15e9c:	e51b3010 	ldr	r3, [fp, #-16]
   15ea0:	e5932008 	ldr	r2, [r3, #8]
   15ea4:	e51b3014 	ldr	r3, [fp, #-20]
   15ea8:	e5832008 	str	r2, [r3, #8]
   15eac:	e51b3010 	ldr	r3, [fp, #-16]
   15eb0:	e593200c 	ldr	r2, [r3, #12]
   15eb4:	e51b3014 	ldr	r3, [fp, #-20]
   15eb8:	e583200c 	str	r2, [r3, #12]
   15ebc:	e51b3010 	ldr	r3, [fp, #-16]
   15ec0:	e5932010 	ldr	r2, [r3, #16]
   15ec4:	e51b3014 	ldr	r3, [fp, #-20]
   15ec8:	e5832010 	str	r2, [r3, #16]
   15ecc:	e51b0008 	ldr	r0, [fp, #-8]
   15ed0:	ebfff2bd 	bl	129cc <OS_CPU_SR_Restore>
   15ed4:	e51b3014 	ldr	r3, [fp, #-20]
   15ed8:	e593200c 	ldr	r2, [r3, #12]
   15edc:	e51b3014 	ldr	r3, [fp, #-20]
   15ee0:	e5933010 	ldr	r3, [r3, #16]
   15ee4:	e0632002 	rsb	r2, r3, r2
   15ee8:	e51b3014 	ldr	r3, [fp, #-20]
   15eec:	e5832014 	str	r2, [r3, #20]
   15ef0:	e3a03000 	mov	r3, #0
   15ef4:	e1a00003 	mov	r0, r3
   15ef8:	e24bd004 	sub	sp, fp, #4
   15efc:	e8bd8800 	pop	{fp, pc}

00015f00 <OS_MemInit>:
   15f00:	e52db004 	push	{fp}		; (str fp, [sp, #-4]!)
   15f04:	e28db000 	add	fp, sp, #0
   15f08:	e24dd00c 	sub	sp, sp, #12
   15f0c:	e59f30dc 	ldr	r3, [pc, #220]	; 15ff0 <OS_MemInit+0xf0>
   15f10:	e50b3008 	str	r3, [fp, #-8]
   15f14:	e3a03000 	mov	r3, #0
   15f18:	e14b30ba 	strh	r3, [fp, #-10]
   15f1c:	ea00001b 	b	15f90 <OS_MemInit+0x90>
   15f20:	e15b30ba 	ldrh	r3, [fp, #-10]
   15f24:	e2832001 	add	r2, r3, #1
   15f28:	e1a03002 	mov	r3, r2
   15f2c:	e1a03103 	lsl	r3, r3, #2
   15f30:	e0833002 	add	r3, r3, r2
   15f34:	e1a03103 	lsl	r3, r3, #2
   15f38:	e59f20b0 	ldr	r2, [pc, #176]	; 15ff0 <OS_MemInit+0xf0>
   15f3c:	e0832002 	add	r2, r3, r2
   15f40:	e51b3008 	ldr	r3, [fp, #-8]
   15f44:	e5832004 	str	r2, [r3, #4]
   15f48:	e51b3008 	ldr	r3, [fp, #-8]
   15f4c:	e3a02000 	mov	r2, #0
   15f50:	e5832000 	str	r2, [r3]
   15f54:	e51b3008 	ldr	r3, [fp, #-8]
   15f58:	e3a02000 	mov	r2, #0
   15f5c:	e5832010 	str	r2, [r3, #16]
   15f60:	e51b3008 	ldr	r3, [fp, #-8]
   15f64:	e3a02000 	mov	r2, #0
   15f68:	e583200c 	str	r2, [r3, #12]
   15f6c:	e51b3008 	ldr	r3, [fp, #-8]
   15f70:	e3a02000 	mov	r2, #0
   15f74:	e5832008 	str	r2, [r3, #8]
   15f78:	e51b3008 	ldr	r3, [fp, #-8]
   15f7c:	e2833014 	add	r3, r3, #20
   15f80:	e50b3008 	str	r3, [fp, #-8]
   15f84:	e15b30ba 	ldrh	r3, [fp, #-10]
   15f88:	e2833001 	add	r3, r3, #1
   15f8c:	e14b30ba 	strh	r3, [fp, #-10]
   15f90:	e15b30ba 	ldrh	r3, [fp, #-10]
   15f94:	e3530003 	cmp	r3, #3
   15f98:	9affffe0 	bls	15f20 <OS_MemInit+0x20>
   15f9c:	e51b3008 	ldr	r3, [fp, #-8]
   15fa0:	e3a02000 	mov	r2, #0
   15fa4:	e5832004 	str	r2, [r3, #4]
   15fa8:	e51b3008 	ldr	r3, [fp, #-8]
   15fac:	e3a02000 	mov	r2, #0
   15fb0:	e5832000 	str	r2, [r3]
   15fb4:	e51b3008 	ldr	r3, [fp, #-8]
   15fb8:	e3a02000 	mov	r2, #0
   15fbc:	e5832010 	str	r2, [r3, #16]
   15fc0:	e51b3008 	ldr	r3, [fp, #-8]
   15fc4:	e3a02000 	mov	r2, #0
   15fc8:	e583200c 	str	r2, [r3, #12]
   15fcc:	e51b3008 	ldr	r3, [fp, #-8]
   15fd0:	e3a02000 	mov	r2, #0
   15fd4:	e5832008 	str	r2, [r3, #8]
   15fd8:	e59f3014 	ldr	r3, [pc, #20]	; 15ff4 <OS_MemInit+0xf4>
   15fdc:	e59f200c 	ldr	r2, [pc, #12]	; 15ff0 <OS_MemInit+0xf0>
   15fe0:	e5832000 	str	r2, [r3]
   15fe4:	e24bd000 	sub	sp, fp, #0
   15fe8:	e49db004 	pop	{fp}		; (ldr fp, [sp], #4)
   15fec:	e12fff1e 	bx	lr
   15ff0:	0001b4cc 	andeq	fp, r1, ip, asr #9
   15ff4:	0001bd40 	andeq	fp, r1, r0, asr #26

00015ff8 <OSMutexAccept>:
   15ff8:	e92d4800 	push	{fp, lr}
   15ffc:	e28db004 	add	fp, sp, #4
   16000:	e24dd010 	sub	sp, sp, #16
   16004:	e50b0010 	str	r0, [fp, #-16]
   16008:	e50b1014 	str	r1, [fp, #-20]
   1600c:	e59f310c 	ldr	r3, [pc, #268]	; 16120 <OSMutexAccept+0x128>
   16010:	e5d33000 	ldrb	r3, [r3]
   16014:	e3530000 	cmp	r3, #0
   16018:	0a000004 	beq	16030 <OSMutexAccept+0x38>
   1601c:	e51b3014 	ldr	r3, [fp, #-20]
   16020:	e3a02002 	mov	r2, #2
   16024:	e5c32000 	strb	r2, [r3]
   16028:	e3a03000 	mov	r3, #0
   1602c:	ea000038 	b	16114 <OSMutexAccept+0x11c>
   16030:	e51b3010 	ldr	r3, [fp, #-16]
   16034:	e3530000 	cmp	r3, #0
   16038:	1a000004 	bne	16050 <OSMutexAccept+0x58>
   1603c:	e51b3014 	ldr	r3, [fp, #-20]
   16040:	e3a02004 	mov	r2, #4
   16044:	e5c32000 	strb	r2, [r3]
   16048:	e3a03000 	mov	r3, #0
   1604c:	ea000030 	b	16114 <OSMutexAccept+0x11c>
   16050:	e51b3010 	ldr	r3, [fp, #-16]
   16054:	e5d33000 	ldrb	r3, [r3]
   16058:	e3530004 	cmp	r3, #4
   1605c:	0a000004 	beq	16074 <OSMutexAccept+0x7c>
   16060:	e51b3014 	ldr	r3, [fp, #-20]
   16064:	e3a02001 	mov	r2, #1
   16068:	e5c32000 	strb	r2, [r3]
   1606c:	e3a03000 	mov	r3, #0
   16070:	ea000027 	b	16114 <OSMutexAccept+0x11c>
   16074:	ebfff24c 	bl	129ac <OS_CPU_SR_Save>
   16078:	e1a03000 	mov	r3, r0
   1607c:	e50b3008 	str	r3, [fp, #-8]
   16080:	e51b3010 	ldr	r3, [fp, #-16]
   16084:	e1d330b2 	ldrh	r3, [r3, #2]
   16088:	e6ef3073 	uxtb	r3, r3
   1608c:	e35300ff 	cmp	r3, #255	; 0xff
   16090:	1a000019 	bne	160fc <OSMutexAccept+0x104>
   16094:	e51b3010 	ldr	r3, [fp, #-16]
   16098:	e1d330b2 	ldrh	r3, [r3, #2]
   1609c:	e3c330ff 	bic	r3, r3, #255	; 0xff
   160a0:	e6ff2073 	uxth	r2, r3
   160a4:	e51b3010 	ldr	r3, [fp, #-16]
   160a8:	e1c320b2 	strh	r2, [r3, #2]
   160ac:	e51b3010 	ldr	r3, [fp, #-16]
   160b0:	e1d320b2 	ldrh	r2, [r3, #2]
   160b4:	e59f3068 	ldr	r3, [pc, #104]	; 16124 <OSMutexAccept+0x12c>
   160b8:	e5933000 	ldr	r3, [r3]
   160bc:	e5d3302d 	ldrb	r3, [r3, #45]	; 0x2d
   160c0:	e1823003 	orr	r3, r2, r3
   160c4:	e6ff2073 	uxth	r2, r3
   160c8:	e51b3010 	ldr	r3, [fp, #-16]
   160cc:	e1c320b2 	strh	r2, [r3, #2]
   160d0:	e59f304c 	ldr	r3, [pc, #76]	; 16124 <OSMutexAccept+0x12c>
   160d4:	e5932000 	ldr	r2, [r3]
   160d8:	e51b3010 	ldr	r3, [fp, #-16]
   160dc:	e5832004 	str	r2, [r3, #4]
   160e0:	e51b0008 	ldr	r0, [fp, #-8]
   160e4:	ebfff238 	bl	129cc <OS_CPU_SR_Restore>
   160e8:	e51b3014 	ldr	r3, [fp, #-20]
   160ec:	e3a02000 	mov	r2, #0
   160f0:	e5c32000 	strb	r2, [r3]
   160f4:	e3a03001 	mov	r3, #1
   160f8:	ea000005 	b	16114 <OSMutexAccept+0x11c>
   160fc:	e51b0008 	ldr	r0, [fp, #-8]
   16100:	ebfff231 	bl	129cc <OS_CPU_SR_Restore>
   16104:	e51b3014 	ldr	r3, [fp, #-20]
   16108:	e3a02000 	mov	r2, #0
   1610c:	e5c32000 	strb	r2, [r3]
   16110:	e3a03000 	mov	r3, #0
   16114:	e1a00003 	mov	r0, r3
   16118:	e24bd004 	sub	sp, fp, #4
   1611c:	e8bd8800 	pop	{fp, pc}
   16120:	0001bdd5 	ldrdeq	fp, [r1], -r5
   16124:	0001bdd8 	ldrdeq	fp, [r1], -r8

00016128 <OSMutexCreate>:
   16128:	e92d4800 	push	{fp, lr}
   1612c:	e28db004 	add	fp, sp, #4
   16130:	e24dd010 	sub	sp, sp, #16
   16134:	e1a03000 	mov	r3, r0
   16138:	e50b1014 	str	r1, [fp, #-20]
   1613c:	e54b300d 	strb	r3, [fp, #-13]
   16140:	e59f3144 	ldr	r3, [pc, #324]	; 1628c <OSMutexCreate+0x164>
   16144:	e5d33000 	ldrb	r3, [r3]
   16148:	e3530000 	cmp	r3, #0
   1614c:	0a000004 	beq	16164 <OSMutexCreate+0x3c>
   16150:	e51b3014 	ldr	r3, [fp, #-20]
   16154:	e3e02072 	mvn	r2, #114	; 0x72
   16158:	e5c32000 	strb	r2, [r3]
   1615c:	e3a03000 	mov	r3, #0
   16160:	ea000046 	b	16280 <OSMutexCreate+0x158>
   16164:	e55b300d 	ldrb	r3, [fp, #-13]
   16168:	e353003e 	cmp	r3, #62	; 0x3e
   1616c:	9a000004 	bls	16184 <OSMutexCreate+0x5c>
   16170:	e51b3014 	ldr	r3, [fp, #-20]
   16174:	e3a0202a 	mov	r2, #42	; 0x2a
   16178:	e5c32000 	strb	r2, [r3]
   1617c:	e3a03000 	mov	r3, #0
   16180:	ea00003e 	b	16280 <OSMutexCreate+0x158>
   16184:	ebfff208 	bl	129ac <OS_CPU_SR_Save>
   16188:	e1a03000 	mov	r3, r0
   1618c:	e50b3008 	str	r3, [fp, #-8]
   16190:	e55b200d 	ldrb	r2, [fp, #-13]
   16194:	e59f30f4 	ldr	r3, [pc, #244]	; 16290 <OSMutexCreate+0x168>
   16198:	e7933102 	ldr	r3, [r3, r2, lsl #2]
   1619c:	e3530000 	cmp	r3, #0
   161a0:	0a000006 	beq	161c0 <OSMutexCreate+0x98>
   161a4:	e51b0008 	ldr	r0, [fp, #-8]
   161a8:	ebfff207 	bl	129cc <OS_CPU_SR_Restore>
   161ac:	e51b3014 	ldr	r3, [fp, #-20]
   161b0:	e3a02028 	mov	r2, #40	; 0x28
   161b4:	e5c32000 	strb	r2, [r3]
   161b8:	e3a03000 	mov	r3, #0
   161bc:	ea00002f 	b	16280 <OSMutexCreate+0x158>
   161c0:	e55b200d 	ldrb	r2, [fp, #-13]
   161c4:	e59f30c4 	ldr	r3, [pc, #196]	; 16290 <OSMutexCreate+0x168>
   161c8:	e3a01001 	mov	r1, #1
   161cc:	e7831102 	str	r1, [r3, r2, lsl #2]
   161d0:	e59f30bc 	ldr	r3, [pc, #188]	; 16294 <OSMutexCreate+0x16c>
   161d4:	e5933000 	ldr	r3, [r3]
   161d8:	e50b300c 	str	r3, [fp, #-12]
   161dc:	e51b300c 	ldr	r3, [fp, #-12]
   161e0:	e3530000 	cmp	r3, #0
   161e4:	1a00000a 	bne	16214 <OSMutexCreate+0xec>
   161e8:	e55b200d 	ldrb	r2, [fp, #-13]
   161ec:	e59f309c 	ldr	r3, [pc, #156]	; 16290 <OSMutexCreate+0x168>
   161f0:	e3a01000 	mov	r1, #0
   161f4:	e7831102 	str	r1, [r3, r2, lsl #2]
   161f8:	e51b0008 	ldr	r0, [fp, #-8]
   161fc:	ebfff1f2 	bl	129cc <OS_CPU_SR_Restore>
   16200:	e51b3014 	ldr	r3, [fp, #-20]
   16204:	e3a02004 	mov	r2, #4
   16208:	e5c32000 	strb	r2, [r3]
   1620c:	e51b300c 	ldr	r3, [fp, #-12]
   16210:	ea00001a 	b	16280 <OSMutexCreate+0x158>
   16214:	e59f3078 	ldr	r3, [pc, #120]	; 16294 <OSMutexCreate+0x16c>
   16218:	e5933000 	ldr	r3, [r3]
   1621c:	e5932004 	ldr	r2, [r3, #4]
   16220:	e59f306c 	ldr	r3, [pc, #108]	; 16294 <OSMutexCreate+0x16c>
   16224:	e5832000 	str	r2, [r3]
   16228:	e51b0008 	ldr	r0, [fp, #-8]
   1622c:	ebfff1e6 	bl	129cc <OS_CPU_SR_Restore>
   16230:	e51b300c 	ldr	r3, [fp, #-12]
   16234:	e3a02004 	mov	r2, #4
   16238:	e5c32000 	strb	r2, [r3]
   1623c:	e55b300d 	ldrb	r3, [fp, #-13]
   16240:	e1a03403 	lsl	r3, r3, #8
   16244:	e6ff3073 	uxth	r3, r3
   16248:	e38330ff 	orr	r3, r3, #255	; 0xff
   1624c:	e6ff3073 	uxth	r3, r3
   16250:	e6ff2073 	uxth	r2, r3
   16254:	e51b300c 	ldr	r3, [fp, #-12]
   16258:	e1c320b2 	strh	r2, [r3, #2]
   1625c:	e51b300c 	ldr	r3, [fp, #-12]
   16260:	e3a02000 	mov	r2, #0
   16264:	e5832004 	str	r2, [r3, #4]
   16268:	e51b000c 	ldr	r0, [fp, #-12]
   1626c:	ebfff543 	bl	13780 <OS_EventWaitListInit>
   16270:	e51b3014 	ldr	r3, [fp, #-20]
   16274:	e3a02000 	mov	r2, #0
   16278:	e5c32000 	strb	r2, [r3]
   1627c:	e51b300c 	ldr	r3, [fp, #-12]
   16280:	e1a00003 	mov	r0, r3
   16284:	e24bd004 	sub	sp, fp, #4
   16288:	e8bd8800 	pop	{fp, pc}
   1628c:	0001bdd5 	ldrdeq	fp, [r1], -r5
   16290:	0001ca4c 	andeq	ip, r1, ip, asr #20
   16294:	0001bdd0 	ldrdeq	fp, [r1], -r0

00016298 <OSMutexDel>:
   16298:	e92d4800 	push	{fp, lr}
   1629c:	e28db004 	add	fp, sp, #4
   162a0:	e24dd020 	sub	sp, sp, #32
   162a4:	e50b0018 	str	r0, [fp, #-24]
   162a8:	e1a03001 	mov	r3, r1
   162ac:	e50b2020 	str	r2, [fp, #-32]
   162b0:	e54b3019 	strb	r3, [fp, #-25]
   162b4:	e59f31fc 	ldr	r3, [pc, #508]	; 164b8 <OSMutexDel+0x220>
   162b8:	e5d33000 	ldrb	r3, [r3]
   162bc:	e3530000 	cmp	r3, #0
   162c0:	0a000004 	beq	162d8 <OSMutexDel+0x40>
   162c4:	e51b3020 	ldr	r3, [fp, #-32]
   162c8:	e3e02073 	mvn	r2, #115	; 0x73
   162cc:	e5c32000 	strb	r2, [r3]
   162d0:	e51b3018 	ldr	r3, [fp, #-24]
   162d4:	ea000074 	b	164ac <OSMutexDel+0x214>
   162d8:	e51b3018 	ldr	r3, [fp, #-24]
   162dc:	e3530000 	cmp	r3, #0
   162e0:	1a000004 	bne	162f8 <OSMutexDel+0x60>
   162e4:	e51b3020 	ldr	r3, [fp, #-32]
   162e8:	e3a02004 	mov	r2, #4
   162ec:	e5c32000 	strb	r2, [r3]
   162f0:	e3a03000 	mov	r3, #0
   162f4:	ea00006c 	b	164ac <OSMutexDel+0x214>
   162f8:	e51b3018 	ldr	r3, [fp, #-24]
   162fc:	e5d33000 	ldrb	r3, [r3]
   16300:	e3530004 	cmp	r3, #4
   16304:	0a000004 	beq	1631c <OSMutexDel+0x84>
   16308:	e51b3020 	ldr	r3, [fp, #-32]
   1630c:	e3a02001 	mov	r2, #1
   16310:	e5c32000 	strb	r2, [r3]
   16314:	e51b3018 	ldr	r3, [fp, #-24]
   16318:	ea000063 	b	164ac <OSMutexDel+0x214>
   1631c:	ebfff1a2 	bl	129ac <OS_CPU_SR_Save>
   16320:	e1a03000 	mov	r3, r0
   16324:	e50b300c 	str	r3, [fp, #-12]
   16328:	e51b3018 	ldr	r3, [fp, #-24]
   1632c:	e5d33001 	ldrb	r3, [r3, #1]
   16330:	e3530000 	cmp	r3, #0
   16334:	0a000002 	beq	16344 <OSMutexDel+0xac>
   16338:	e3a03001 	mov	r3, #1
   1633c:	e54b3005 	strb	r3, [fp, #-5]
   16340:	ea000001 	b	1634c <OSMutexDel+0xb4>
   16344:	e3a03000 	mov	r3, #0
   16348:	e54b3005 	strb	r3, [fp, #-5]
   1634c:	e55b3019 	ldrb	r3, [fp, #-25]
   16350:	e3530000 	cmp	r3, #0
   16354:	0a000002 	beq	16364 <OSMutexDel+0xcc>
   16358:	e3530001 	cmp	r3, #1
   1635c:	0a000029 	beq	16408 <OSMutexDel+0x170>
   16360:	ea00004b 	b	16494 <OSMutexDel+0x1fc>
   16364:	e55b3005 	ldrb	r3, [fp, #-5]
   16368:	e3530000 	cmp	r3, #0
   1636c:	1a000019 	bne	163d8 <OSMutexDel+0x140>
   16370:	e51b3018 	ldr	r3, [fp, #-24]
   16374:	e1d330b2 	ldrh	r3, [r3, #2]
   16378:	e1a03423 	lsr	r3, r3, #8
   1637c:	e6ff3073 	uxth	r3, r3
   16380:	e54b300d 	strb	r3, [fp, #-13]
   16384:	e55b200d 	ldrb	r2, [fp, #-13]
   16388:	e59f312c 	ldr	r3, [pc, #300]	; 164bc <OSMutexDel+0x224>
   1638c:	e3a01000 	mov	r1, #0
   16390:	e7831102 	str	r1, [r3, r2, lsl #2]
   16394:	e51b3018 	ldr	r3, [fp, #-24]
   16398:	e3a02000 	mov	r2, #0
   1639c:	e5c32000 	strb	r2, [r3]
   163a0:	e59f3118 	ldr	r3, [pc, #280]	; 164c0 <OSMutexDel+0x228>
   163a4:	e5932000 	ldr	r2, [r3]
   163a8:	e51b3018 	ldr	r3, [fp, #-24]
   163ac:	e5832004 	str	r2, [r3, #4]
   163b0:	e59f3108 	ldr	r3, [pc, #264]	; 164c0 <OSMutexDel+0x228>
   163b4:	e51b2018 	ldr	r2, [fp, #-24]
   163b8:	e5832000 	str	r2, [r3]
   163bc:	e51b000c 	ldr	r0, [fp, #-12]
   163c0:	ebfff181 	bl	129cc <OS_CPU_SR_Restore>
   163c4:	e51b3020 	ldr	r3, [fp, #-32]
   163c8:	e3a02000 	mov	r2, #0
   163cc:	e5c32000 	strb	r2, [r3]
   163d0:	e3a03000 	mov	r3, #0
   163d4:	ea000034 	b	164ac <OSMutexDel+0x214>
   163d8:	e51b000c 	ldr	r0, [fp, #-12]
   163dc:	ebfff17a 	bl	129cc <OS_CPU_SR_Restore>
   163e0:	e51b3020 	ldr	r3, [fp, #-32]
   163e4:	e3a02008 	mov	r2, #8
   163e8:	e5c32000 	strb	r2, [r3]
   163ec:	e51b3018 	ldr	r3, [fp, #-24]
   163f0:	ea00002d 	b	164ac <OSMutexDel+0x214>
   163f4:	e51b0018 	ldr	r0, [fp, #-24]
   163f8:	e3a01000 	mov	r1, #0
   163fc:	e3a02010 	mov	r2, #16
   16400:	ebfff3cc 	bl	13338 <OS_EventTaskRdy>
   16404:	ea000000 	b	1640c <OSMutexDel+0x174>
   16408:	e1a00000 	nop			; (mov r0, r0)
   1640c:	e51b3018 	ldr	r3, [fp, #-24]
   16410:	e5d33001 	ldrb	r3, [r3, #1]
   16414:	e3530000 	cmp	r3, #0
   16418:	1afffff5 	bne	163f4 <OSMutexDel+0x15c>
   1641c:	e51b3018 	ldr	r3, [fp, #-24]
   16420:	e1d330b2 	ldrh	r3, [r3, #2]
   16424:	e1a03423 	lsr	r3, r3, #8
   16428:	e6ff3073 	uxth	r3, r3
   1642c:	e54b300d 	strb	r3, [fp, #-13]
   16430:	e55b200d 	ldrb	r2, [fp, #-13]
   16434:	e59f3080 	ldr	r3, [pc, #128]	; 164bc <OSMutexDel+0x224>
   16438:	e3a01000 	mov	r1, #0
   1643c:	e7831102 	str	r1, [r3, r2, lsl #2]
   16440:	e51b3018 	ldr	r3, [fp, #-24]
   16444:	e3a02000 	mov	r2, #0
   16448:	e5c32000 	strb	r2, [r3]
   1644c:	e59f306c 	ldr	r3, [pc, #108]	; 164c0 <OSMutexDel+0x228>
   16450:	e5932000 	ldr	r2, [r3]
   16454:	e51b3018 	ldr	r3, [fp, #-24]
   16458:	e5832004 	str	r2, [r3, #4]
   1645c:	e59f305c 	ldr	r3, [pc, #92]	; 164c0 <OSMutexDel+0x228>
   16460:	e51b2018 	ldr	r2, [fp, #-24]
   16464:	e5832000 	str	r2, [r3]
   16468:	e51b000c 	ldr	r0, [fp, #-12]
   1646c:	ebfff156 	bl	129cc <OS_CPU_SR_Restore>
   16470:	e55b3005 	ldrb	r3, [fp, #-5]
   16474:	e3530001 	cmp	r3, #1
   16478:	1a000000 	bne	16480 <OSMutexDel+0x1e8>
   1647c:	ebfff5dc 	bl	13bf4 <OS_Sched>
   16480:	e51b3020 	ldr	r3, [fp, #-32]
   16484:	e3a02000 	mov	r2, #0
   16488:	e5c32000 	strb	r2, [r3]
   1648c:	e3a03000 	mov	r3, #0
   16490:	ea000005 	b	164ac <OSMutexDel+0x214>
   16494:	e51b000c 	ldr	r0, [fp, #-12]
   16498:	ebfff14b 	bl	129cc <OS_CPU_SR_Restore>
   1649c:	e51b3020 	ldr	r3, [fp, #-32]
   164a0:	e3a02007 	mov	r2, #7
   164a4:	e5c32000 	strb	r2, [r3]
   164a8:	e51b3018 	ldr	r3, [fp, #-24]
   164ac:	e1a00003 	mov	r0, r3
   164b0:	e24bd004 	sub	sp, fp, #4
   164b4:	e8bd8800 	pop	{fp, pc}
   164b8:	0001bdd5 	ldrdeq	fp, [r1], -r5
   164bc:	0001ca4c 	andeq	ip, r1, ip, asr #20
   164c0:	0001bdd0 	ldrdeq	fp, [r1], -r0

000164c4 <OSMutexPend>:
   164c4:	e92d4800 	push	{fp, lr}
   164c8:	e28db004 	add	fp, sp, #4
   164cc:	e24dd020 	sub	sp, sp, #32
   164d0:	e50b0018 	str	r0, [fp, #-24]
   164d4:	e1a03001 	mov	r3, r1
   164d8:	e50b2020 	str	r2, [fp, #-32]
   164dc:	e14b31ba 	strh	r3, [fp, #-26]	; 0xffffffe6
   164e0:	e59f3380 	ldr	r3, [pc, #896]	; 16868 <OSMutexPend+0x3a4>
   164e4:	e5d33000 	ldrb	r3, [r3]
   164e8:	e3530000 	cmp	r3, #0
   164ec:	0a000003 	beq	16500 <OSMutexPend+0x3c>
   164f0:	e51b3020 	ldr	r3, [fp, #-32]
   164f4:	e3a02002 	mov	r2, #2
   164f8:	e5c32000 	strb	r2, [r3]
   164fc:	ea0000d7 	b	16860 <OSMutexPend+0x39c>
   16500:	e51b3018 	ldr	r3, [fp, #-24]
   16504:	e3530000 	cmp	r3, #0
   16508:	1a000003 	bne	1651c <OSMutexPend+0x58>
   1650c:	e51b3020 	ldr	r3, [fp, #-32]
   16510:	e3a02004 	mov	r2, #4
   16514:	e5c32000 	strb	r2, [r3]
   16518:	ea0000d0 	b	16860 <OSMutexPend+0x39c>
   1651c:	e51b3018 	ldr	r3, [fp, #-24]
   16520:	e5d33000 	ldrb	r3, [r3]
   16524:	e3530004 	cmp	r3, #4
   16528:	0a000003 	beq	1653c <OSMutexPend+0x78>
   1652c:	e51b3020 	ldr	r3, [fp, #-32]
   16530:	e3a02001 	mov	r2, #1
   16534:	e5c32000 	strb	r2, [r3]
   16538:	ea0000c8 	b	16860 <OSMutexPend+0x39c>
   1653c:	ebfff11a 	bl	129ac <OS_CPU_SR_Save>
   16540:	e1a03000 	mov	r3, r0
   16544:	e50b300c 	str	r3, [fp, #-12]
   16548:	e51b3018 	ldr	r3, [fp, #-24]
   1654c:	e1d330b2 	ldrh	r3, [r3, #2]
   16550:	e6ef3073 	uxtb	r3, r3
   16554:	e35300ff 	cmp	r3, #255	; 0xff
   16558:	1a000018 	bne	165c0 <OSMutexPend+0xfc>
   1655c:	e51b3018 	ldr	r3, [fp, #-24]
   16560:	e1d330b2 	ldrh	r3, [r3, #2]
   16564:	e3c330ff 	bic	r3, r3, #255	; 0xff
   16568:	e6ff2073 	uxth	r2, r3
   1656c:	e51b3018 	ldr	r3, [fp, #-24]
   16570:	e1c320b2 	strh	r2, [r3, #2]
   16574:	e51b3018 	ldr	r3, [fp, #-24]
   16578:	e1d320b2 	ldrh	r2, [r3, #2]
   1657c:	e59f32e8 	ldr	r3, [pc, #744]	; 1686c <OSMutexPend+0x3a8>
   16580:	e5933000 	ldr	r3, [r3]
   16584:	e5d3302d 	ldrb	r3, [r3, #45]	; 0x2d
   16588:	e1823003 	orr	r3, r2, r3
   1658c:	e6ff2073 	uxth	r2, r3
   16590:	e51b3018 	ldr	r3, [fp, #-24]
   16594:	e1c320b2 	strh	r2, [r3, #2]
   16598:	e59f32cc 	ldr	r3, [pc, #716]	; 1686c <OSMutexPend+0x3a8>
   1659c:	e5932000 	ldr	r2, [r3]
   165a0:	e51b3018 	ldr	r3, [fp, #-24]
   165a4:	e5832004 	str	r2, [r3, #4]
   165a8:	e51b000c 	ldr	r0, [fp, #-12]
   165ac:	ebfff106 	bl	129cc <OS_CPU_SR_Restore>
   165b0:	e51b3020 	ldr	r3, [fp, #-32]
   165b4:	e3a02000 	mov	r2, #0
   165b8:	e5c32000 	strb	r2, [r3]
   165bc:	ea0000a7 	b	16860 <OSMutexPend+0x39c>
   165c0:	e51b3018 	ldr	r3, [fp, #-24]
   165c4:	e1d330b2 	ldrh	r3, [r3, #2]
   165c8:	e1a03423 	lsr	r3, r3, #8
   165cc:	e6ff3073 	uxth	r3, r3
   165d0:	e54b300d 	strb	r3, [fp, #-13]
   165d4:	e51b3018 	ldr	r3, [fp, #-24]
   165d8:	e1d330b2 	ldrh	r3, [r3, #2]
   165dc:	e54b300e 	strb	r3, [fp, #-14]
   165e0:	e51b3018 	ldr	r3, [fp, #-24]
   165e4:	e5933004 	ldr	r3, [r3, #4]
   165e8:	e50b3014 	str	r3, [fp, #-20]
   165ec:	e51b3014 	ldr	r3, [fp, #-20]
   165f0:	e5d3302d 	ldrb	r3, [r3, #45]	; 0x2d
   165f4:	e55b200d 	ldrb	r2, [fp, #-13]
   165f8:	e1520003 	cmp	r2, r3
   165fc:	0a00006c 	beq	167b4 <OSMutexPend+0x2f0>
   16600:	e59f3264 	ldr	r3, [pc, #612]	; 1686c <OSMutexPend+0x3a8>
   16604:	e5933000 	ldr	r3, [r3]
   16608:	e5d3302d 	ldrb	r3, [r3, #45]	; 0x2d
   1660c:	e55b200e 	ldrb	r2, [fp, #-14]
   16610:	e1520003 	cmp	r2, r3
   16614:	9a000066 	bls	167b4 <OSMutexPend+0x2f0>
   16618:	e51b3014 	ldr	r3, [fp, #-20]
   1661c:	e5d3302f 	ldrb	r3, [r3, #47]	; 0x2f
   16620:	e59f2248 	ldr	r2, [pc, #584]	; 16870 <OSMutexPend+0x3ac>
   16624:	e7d22003 	ldrb	r2, [r2, r3]
   16628:	e51b3014 	ldr	r3, [fp, #-20]
   1662c:	e5d33030 	ldrb	r3, [r3, #48]	; 0x30
   16630:	e0023003 	and	r3, r2, r3
   16634:	e6ef3073 	uxtb	r3, r3
   16638:	e3530000 	cmp	r3, #0
   1663c:	0a000024 	beq	166d4 <OSMutexPend+0x210>
   16640:	e51b3014 	ldr	r3, [fp, #-20]
   16644:	e5d3302f 	ldrb	r3, [r3, #47]	; 0x2f
   16648:	e51b2014 	ldr	r2, [fp, #-20]
   1664c:	e5d2202f 	ldrb	r2, [r2, #47]	; 0x2f
   16650:	e59f1218 	ldr	r1, [pc, #536]	; 16870 <OSMutexPend+0x3ac>
   16654:	e7d12002 	ldrb	r2, [r1, r2]
   16658:	e6ef1072 	uxtb	r1, r2
   1665c:	e51b2014 	ldr	r2, [fp, #-20]
   16660:	e5d22030 	ldrb	r2, [r2, #48]	; 0x30
   16664:	e6ef2072 	uxtb	r2, r2
   16668:	e1e02002 	mvn	r2, r2
   1666c:	e6ef2072 	uxtb	r2, r2
   16670:	e0012002 	and	r2, r1, r2
   16674:	e6ef2072 	uxtb	r2, r2
   16678:	e6ef1072 	uxtb	r1, r2
   1667c:	e59f21ec 	ldr	r2, [pc, #492]	; 16870 <OSMutexPend+0x3ac>
   16680:	e7c21003 	strb	r1, [r2, r3]
   16684:	e59f21e4 	ldr	r2, [pc, #484]	; 16870 <OSMutexPend+0x3ac>
   16688:	e7d23003 	ldrb	r3, [r2, r3]
   1668c:	e3530000 	cmp	r3, #0
   16690:	1a00000c 	bne	166c8 <OSMutexPend+0x204>
   16694:	e51b3014 	ldr	r3, [fp, #-20]
   16698:	e5d33031 	ldrb	r3, [r3, #49]	; 0x31
   1669c:	e6ef3073 	uxtb	r3, r3
   166a0:	e1e03003 	mvn	r3, r3
   166a4:	e6ef2073 	uxtb	r2, r3
   166a8:	e59f31c4 	ldr	r3, [pc, #452]	; 16874 <OSMutexPend+0x3b0>
   166ac:	e5d33000 	ldrb	r3, [r3]
   166b0:	e6ef3073 	uxtb	r3, r3
   166b4:	e0023003 	and	r3, r2, r3
   166b8:	e6ef3073 	uxtb	r3, r3
   166bc:	e6ef2073 	uxtb	r2, r3
   166c0:	e59f31ac 	ldr	r3, [pc, #428]	; 16874 <OSMutexPend+0x3b0>
   166c4:	e5c32000 	strb	r2, [r3]
   166c8:	e3a03001 	mov	r3, #1
   166cc:	e54b3005 	strb	r3, [fp, #-5]
   166d0:	ea000001 	b	166dc <OSMutexPend+0x218>
   166d4:	e3a03000 	mov	r3, #0
   166d8:	e54b3005 	strb	r3, [fp, #-5]
   166dc:	e51b3014 	ldr	r3, [fp, #-20]
   166e0:	e55b200d 	ldrb	r2, [fp, #-13]
   166e4:	e5c3202d 	strb	r2, [r3, #45]	; 0x2d
   166e8:	e51b3014 	ldr	r3, [fp, #-20]
   166ec:	e5d3302d 	ldrb	r3, [r3, #45]	; 0x2d
   166f0:	e1a031a3 	lsr	r3, r3, #3
   166f4:	e6ef2073 	uxtb	r2, r3
   166f8:	e51b3014 	ldr	r3, [fp, #-20]
   166fc:	e5c3202f 	strb	r2, [r3, #47]	; 0x2f
   16700:	e51b3014 	ldr	r3, [fp, #-20]
   16704:	e5d3302f 	ldrb	r3, [r3, #47]	; 0x2f
   16708:	e59f2168 	ldr	r2, [pc, #360]	; 16878 <OSMutexPend+0x3b4>
   1670c:	e7d22003 	ldrb	r2, [r2, r3]
   16710:	e51b3014 	ldr	r3, [fp, #-20]
   16714:	e5c32031 	strb	r2, [r3, #49]	; 0x31
   16718:	e51b3014 	ldr	r3, [fp, #-20]
   1671c:	e5d3302d 	ldrb	r3, [r3, #45]	; 0x2d
   16720:	e2033007 	and	r3, r3, #7
   16724:	e6ef2073 	uxtb	r2, r3
   16728:	e51b3014 	ldr	r3, [fp, #-20]
   1672c:	e5c3202e 	strb	r2, [r3, #46]	; 0x2e
   16730:	e51b3014 	ldr	r3, [fp, #-20]
   16734:	e5d3302e 	ldrb	r3, [r3, #46]	; 0x2e
   16738:	e59f2138 	ldr	r2, [pc, #312]	; 16878 <OSMutexPend+0x3b4>
   1673c:	e7d22003 	ldrb	r2, [r2, r3]
   16740:	e51b3014 	ldr	r3, [fp, #-20]
   16744:	e5c32030 	strb	r2, [r3, #48]	; 0x30
   16748:	e55b3005 	ldrb	r3, [fp, #-5]
   1674c:	e3530001 	cmp	r3, #1
   16750:	1a000013 	bne	167a4 <OSMutexPend+0x2e0>
   16754:	e51b3014 	ldr	r3, [fp, #-20]
   16758:	e5d32031 	ldrb	r2, [r3, #49]	; 0x31
   1675c:	e59f3110 	ldr	r3, [pc, #272]	; 16874 <OSMutexPend+0x3b0>
   16760:	e5d33000 	ldrb	r3, [r3]
   16764:	e1823003 	orr	r3, r2, r3
   16768:	e6ef2073 	uxtb	r2, r3
   1676c:	e59f3100 	ldr	r3, [pc, #256]	; 16874 <OSMutexPend+0x3b0>
   16770:	e5c32000 	strb	r2, [r3]
   16774:	e51b3014 	ldr	r3, [fp, #-20]
   16778:	e5d3302f 	ldrb	r3, [r3, #47]	; 0x2f
   1677c:	e51b2014 	ldr	r2, [fp, #-20]
   16780:	e5d2202f 	ldrb	r2, [r2, #47]	; 0x2f
   16784:	e59f10e4 	ldr	r1, [pc, #228]	; 16870 <OSMutexPend+0x3ac>
   16788:	e7d11002 	ldrb	r1, [r1, r2]
   1678c:	e51b2014 	ldr	r2, [fp, #-20]
   16790:	e5d22030 	ldrb	r2, [r2, #48]	; 0x30
   16794:	e1812002 	orr	r2, r1, r2
   16798:	e6ef1072 	uxtb	r1, r2
   1679c:	e59f20cc 	ldr	r2, [pc, #204]	; 16870 <OSMutexPend+0x3ac>
   167a0:	e7c21003 	strb	r1, [r2, r3]
   167a4:	e55b200d 	ldrb	r2, [fp, #-13]
   167a8:	e59f30cc 	ldr	r3, [pc, #204]	; 1687c <OSMutexPend+0x3b8>
   167ac:	e51b1014 	ldr	r1, [fp, #-20]
   167b0:	e7831102 	str	r1, [r3, r2, lsl #2]
   167b4:	e59f30b0 	ldr	r3, [pc, #176]	; 1686c <OSMutexPend+0x3a8>
   167b8:	e5933000 	ldr	r3, [r3]
   167bc:	e59f20a8 	ldr	r2, [pc, #168]	; 1686c <OSMutexPend+0x3a8>
   167c0:	e5922000 	ldr	r2, [r2]
   167c4:	e5d2202c 	ldrb	r2, [r2, #44]	; 0x2c
   167c8:	e3822010 	orr	r2, r2, #16
   167cc:	e6ef2072 	uxtb	r2, r2
   167d0:	e5c3202c 	strb	r2, [r3, #44]	; 0x2c
   167d4:	e59f3090 	ldr	r3, [pc, #144]	; 1686c <OSMutexPend+0x3a8>
   167d8:	e5933000 	ldr	r3, [r3]
   167dc:	e15b21ba 	ldrh	r2, [fp, #-26]	; 0xffffffe6
   167e0:	e1c322ba 	strh	r2, [r3, #42]	; 0x2a
   167e4:	e51b0018 	ldr	r0, [fp, #-24]
   167e8:	ebfff350 	bl	13530 <OS_EventTaskWait>
   167ec:	e51b000c 	ldr	r0, [fp, #-12]
   167f0:	ebfff075 	bl	129cc <OS_CPU_SR_Restore>
   167f4:	ebfff4fe 	bl	13bf4 <OS_Sched>
   167f8:	ebfff06b 	bl	129ac <OS_CPU_SR_Save>
   167fc:	e1a03000 	mov	r3, r0
   16800:	e50b300c 	str	r3, [fp, #-12]
   16804:	e59f3060 	ldr	r3, [pc, #96]	; 1686c <OSMutexPend+0x3a8>
   16808:	e5933000 	ldr	r3, [r3]
   1680c:	e5d3302c 	ldrb	r3, [r3, #44]	; 0x2c
   16810:	e2033010 	and	r3, r3, #16
   16814:	e3530000 	cmp	r3, #0
   16818:	0a000007 	beq	1683c <OSMutexPend+0x378>
   1681c:	e51b0018 	ldr	r0, [fp, #-24]
   16820:	ebfff396 	bl	13680 <OS_EventTO>
   16824:	e51b000c 	ldr	r0, [fp, #-12]
   16828:	ebfff067 	bl	129cc <OS_CPU_SR_Restore>
   1682c:	e51b3020 	ldr	r3, [fp, #-32]
   16830:	e3a0200a 	mov	r2, #10
   16834:	e5c32000 	strb	r2, [r3]
   16838:	ea000008 	b	16860 <OSMutexPend+0x39c>
   1683c:	e59f3028 	ldr	r3, [pc, #40]	; 1686c <OSMutexPend+0x3a8>
   16840:	e5933000 	ldr	r3, [r3]
   16844:	e3a02000 	mov	r2, #0
   16848:	e583201c 	str	r2, [r3, #28]
   1684c:	e51b000c 	ldr	r0, [fp, #-12]
   16850:	ebfff05d 	bl	129cc <OS_CPU_SR_Restore>
   16854:	e51b3020 	ldr	r3, [fp, #-32]
   16858:	e3a02000 	mov	r2, #0
   1685c:	e5c32000 	strb	r2, [r3]
   16860:	e24bd004 	sub	sp, fp, #4
   16864:	e8bd8800 	pop	{fp, pc}
   16868:	0001bdd5 	ldrdeq	fp, [r1], -r5
   1686c:	0001bdd8 	ldrdeq	fp, [r1], -r8
   16870:	0001bdc8 	andeq	fp, r1, r8, asr #27
   16874:	0001bdc4 	andeq	fp, r1, r4, asr #27
   16878:	00019ea4 	andeq	r9, r1, r4, lsr #29
   1687c:	0001ca4c 	andeq	ip, r1, ip, asr #20

00016880 <OSMutexPost>:
   16880:	e92d4800 	push	{fp, lr}
   16884:	e28db004 	add	fp, sp, #4
   16888:	e24dd010 	sub	sp, sp, #16
   1688c:	e50b0010 	str	r0, [fp, #-16]
   16890:	e59f3320 	ldr	r3, [pc, #800]	; 16bb8 <OSMutexPost+0x338>
   16894:	e5d33000 	ldrb	r3, [r3]
   16898:	e3530000 	cmp	r3, #0
   1689c:	0a000001 	beq	168a8 <OSMutexPost+0x28>
   168a0:	e3a03005 	mov	r3, #5
   168a4:	ea0000c0 	b	16bac <OSMutexPost+0x32c>
   168a8:	e51b3010 	ldr	r3, [fp, #-16]
   168ac:	e3530000 	cmp	r3, #0
   168b0:	1a000001 	bne	168bc <OSMutexPost+0x3c>
   168b4:	e3a03004 	mov	r3, #4
   168b8:	ea0000bb 	b	16bac <OSMutexPost+0x32c>
   168bc:	e51b3010 	ldr	r3, [fp, #-16]
   168c0:	e5d33000 	ldrb	r3, [r3]
   168c4:	e3530004 	cmp	r3, #4
   168c8:	0a000001 	beq	168d4 <OSMutexPost+0x54>
   168cc:	e3a03001 	mov	r3, #1
   168d0:	ea0000b5 	b	16bac <OSMutexPost+0x32c>
   168d4:	ebfff034 	bl	129ac <OS_CPU_SR_Save>
   168d8:	e1a03000 	mov	r3, r0
   168dc:	e50b3008 	str	r3, [fp, #-8]
   168e0:	e51b3010 	ldr	r3, [fp, #-16]
   168e4:	e1d330b2 	ldrh	r3, [r3, #2]
   168e8:	e1a03423 	lsr	r3, r3, #8
   168ec:	e6ff3073 	uxth	r3, r3
   168f0:	e54b3009 	strb	r3, [fp, #-9]
   168f4:	e51b3010 	ldr	r3, [fp, #-16]
   168f8:	e1d330b2 	ldrh	r3, [r3, #2]
   168fc:	e54b300a 	strb	r3, [fp, #-10]
   16900:	e59f32b4 	ldr	r3, [pc, #692]	; 16bbc <OSMutexPost+0x33c>
   16904:	e5933000 	ldr	r3, [r3]
   16908:	e5d3302d 	ldrb	r3, [r3, #45]	; 0x2d
   1690c:	e55b2009 	ldrb	r2, [fp, #-9]
   16910:	e1520003 	cmp	r2, r3
   16914:	0a000009 	beq	16940 <OSMutexPost+0xc0>
   16918:	e59f329c 	ldr	r3, [pc, #668]	; 16bbc <OSMutexPost+0x33c>
   1691c:	e5933000 	ldr	r3, [r3]
   16920:	e5d3302d 	ldrb	r3, [r3, #45]	; 0x2d
   16924:	e55b200a 	ldrb	r2, [fp, #-10]
   16928:	e1520003 	cmp	r2, r3
   1692c:	0a000003 	beq	16940 <OSMutexPost+0xc0>
   16930:	e51b0008 	ldr	r0, [fp, #-8]
   16934:	ebfff024 	bl	129cc <OS_CPU_SR_Restore>
   16938:	e3a03078 	mov	r3, #120	; 0x78
   1693c:	ea00009a 	b	16bac <OSMutexPost+0x32c>
   16940:	e59f3274 	ldr	r3, [pc, #628]	; 16bbc <OSMutexPost+0x33c>
   16944:	e5933000 	ldr	r3, [r3]
   16948:	e5d3302d 	ldrb	r3, [r3, #45]	; 0x2d
   1694c:	e55b2009 	ldrb	r2, [fp, #-9]
   16950:	e1520003 	cmp	r2, r3
   16954:	1a000062 	bne	16ae4 <OSMutexPost+0x264>
   16958:	e59f325c 	ldr	r3, [pc, #604]	; 16bbc <OSMutexPost+0x33c>
   1695c:	e5933000 	ldr	r3, [r3]
   16960:	e5d3302f 	ldrb	r3, [r3, #47]	; 0x2f
   16964:	e59f2250 	ldr	r2, [pc, #592]	; 16bbc <OSMutexPost+0x33c>
   16968:	e5922000 	ldr	r2, [r2]
   1696c:	e5d2202f 	ldrb	r2, [r2, #47]	; 0x2f
   16970:	e59f1248 	ldr	r1, [pc, #584]	; 16bc0 <OSMutexPost+0x340>
   16974:	e7d12002 	ldrb	r2, [r1, r2]
   16978:	e6ef1072 	uxtb	r1, r2
   1697c:	e59f2238 	ldr	r2, [pc, #568]	; 16bbc <OSMutexPost+0x33c>
   16980:	e5922000 	ldr	r2, [r2]
   16984:	e5d22030 	ldrb	r2, [r2, #48]	; 0x30
   16988:	e6ef2072 	uxtb	r2, r2
   1698c:	e1e02002 	mvn	r2, r2
   16990:	e6ef2072 	uxtb	r2, r2
   16994:	e0012002 	and	r2, r1, r2
   16998:	e6ef2072 	uxtb	r2, r2
   1699c:	e6ef1072 	uxtb	r1, r2
   169a0:	e59f2218 	ldr	r2, [pc, #536]	; 16bc0 <OSMutexPost+0x340>
   169a4:	e7c21003 	strb	r1, [r2, r3]
   169a8:	e59f2210 	ldr	r2, [pc, #528]	; 16bc0 <OSMutexPost+0x340>
   169ac:	e7d23003 	ldrb	r3, [r2, r3]
   169b0:	e3530000 	cmp	r3, #0
   169b4:	1a00000d 	bne	169f0 <OSMutexPost+0x170>
   169b8:	e59f31fc 	ldr	r3, [pc, #508]	; 16bbc <OSMutexPost+0x33c>
   169bc:	e5933000 	ldr	r3, [r3]
   169c0:	e5d33031 	ldrb	r3, [r3, #49]	; 0x31
   169c4:	e6ef3073 	uxtb	r3, r3
   169c8:	e1e03003 	mvn	r3, r3
   169cc:	e6ef2073 	uxtb	r2, r3
   169d0:	e59f31ec 	ldr	r3, [pc, #492]	; 16bc4 <OSMutexPost+0x344>
   169d4:	e5d33000 	ldrb	r3, [r3]
   169d8:	e6ef3073 	uxtb	r3, r3
   169dc:	e0023003 	and	r3, r2, r3
   169e0:	e6ef3073 	uxtb	r3, r3
   169e4:	e6ef2073 	uxtb	r2, r3
   169e8:	e59f31d4 	ldr	r3, [pc, #468]	; 16bc4 <OSMutexPost+0x344>
   169ec:	e5c32000 	strb	r2, [r3]
   169f0:	e59f31c4 	ldr	r3, [pc, #452]	; 16bbc <OSMutexPost+0x33c>
   169f4:	e5933000 	ldr	r3, [r3]
   169f8:	e55b200a 	ldrb	r2, [fp, #-10]
   169fc:	e5c3202d 	strb	r2, [r3, #45]	; 0x2d
   16a00:	e59f31b4 	ldr	r3, [pc, #436]	; 16bbc <OSMutexPost+0x33c>
   16a04:	e5933000 	ldr	r3, [r3]
   16a08:	e55b200a 	ldrb	r2, [fp, #-10]
   16a0c:	e1a021a2 	lsr	r2, r2, #3
   16a10:	e6ef2072 	uxtb	r2, r2
   16a14:	e5c3202f 	strb	r2, [r3, #47]	; 0x2f
   16a18:	e59f319c 	ldr	r3, [pc, #412]	; 16bbc <OSMutexPost+0x33c>
   16a1c:	e5933000 	ldr	r3, [r3]
   16a20:	e59f2194 	ldr	r2, [pc, #404]	; 16bbc <OSMutexPost+0x33c>
   16a24:	e5922000 	ldr	r2, [r2]
   16a28:	e5d2202f 	ldrb	r2, [r2, #47]	; 0x2f
   16a2c:	e59f1194 	ldr	r1, [pc, #404]	; 16bc8 <OSMutexPost+0x348>
   16a30:	e7d12002 	ldrb	r2, [r1, r2]
   16a34:	e5c32031 	strb	r2, [r3, #49]	; 0x31
   16a38:	e59f317c 	ldr	r3, [pc, #380]	; 16bbc <OSMutexPost+0x33c>
   16a3c:	e5933000 	ldr	r3, [r3]
   16a40:	e55b200a 	ldrb	r2, [fp, #-10]
   16a44:	e2022007 	and	r2, r2, #7
   16a48:	e6ef2072 	uxtb	r2, r2
   16a4c:	e5c3202e 	strb	r2, [r3, #46]	; 0x2e
   16a50:	e59f3164 	ldr	r3, [pc, #356]	; 16bbc <OSMutexPost+0x33c>
   16a54:	e5933000 	ldr	r3, [r3]
   16a58:	e59f215c 	ldr	r2, [pc, #348]	; 16bbc <OSMutexPost+0x33c>
   16a5c:	e5922000 	ldr	r2, [r2]
   16a60:	e5d2202e 	ldrb	r2, [r2, #46]	; 0x2e
   16a64:	e59f115c 	ldr	r1, [pc, #348]	; 16bc8 <OSMutexPost+0x348>
   16a68:	e7d12002 	ldrb	r2, [r1, r2]
   16a6c:	e5c32030 	strb	r2, [r3, #48]	; 0x30
   16a70:	e59f3144 	ldr	r3, [pc, #324]	; 16bbc <OSMutexPost+0x33c>
   16a74:	e5933000 	ldr	r3, [r3]
   16a78:	e5d32031 	ldrb	r2, [r3, #49]	; 0x31
   16a7c:	e59f3140 	ldr	r3, [pc, #320]	; 16bc4 <OSMutexPost+0x344>
   16a80:	e5d33000 	ldrb	r3, [r3]
   16a84:	e1823003 	orr	r3, r2, r3
   16a88:	e6ef2073 	uxtb	r2, r3
   16a8c:	e59f3130 	ldr	r3, [pc, #304]	; 16bc4 <OSMutexPost+0x344>
   16a90:	e5c32000 	strb	r2, [r3]
   16a94:	e59f3120 	ldr	r3, [pc, #288]	; 16bbc <OSMutexPost+0x33c>
   16a98:	e5933000 	ldr	r3, [r3]
   16a9c:	e5d3302f 	ldrb	r3, [r3, #47]	; 0x2f
   16aa0:	e59f2114 	ldr	r2, [pc, #276]	; 16bbc <OSMutexPost+0x33c>
   16aa4:	e5922000 	ldr	r2, [r2]
   16aa8:	e5d2202f 	ldrb	r2, [r2, #47]	; 0x2f
   16aac:	e59f110c 	ldr	r1, [pc, #268]	; 16bc0 <OSMutexPost+0x340>
   16ab0:	e7d11002 	ldrb	r1, [r1, r2]
   16ab4:	e59f2100 	ldr	r2, [pc, #256]	; 16bbc <OSMutexPost+0x33c>
   16ab8:	e5922000 	ldr	r2, [r2]
   16abc:	e5d22030 	ldrb	r2, [r2, #48]	; 0x30
   16ac0:	e1812002 	orr	r2, r1, r2
   16ac4:	e6ef1072 	uxtb	r1, r2
   16ac8:	e59f20f0 	ldr	r2, [pc, #240]	; 16bc0 <OSMutexPost+0x340>
   16acc:	e7c21003 	strb	r1, [r2, r3]
   16ad0:	e55b200a 	ldrb	r2, [fp, #-10]
   16ad4:	e59f30e0 	ldr	r3, [pc, #224]	; 16bbc <OSMutexPost+0x33c>
   16ad8:	e5931000 	ldr	r1, [r3]
   16adc:	e59f30e8 	ldr	r3, [pc, #232]	; 16bcc <OSMutexPost+0x34c>
   16ae0:	e7831102 	str	r1, [r3, r2, lsl #2]
   16ae4:	e55b2009 	ldrb	r2, [fp, #-9]
   16ae8:	e59f30dc 	ldr	r3, [pc, #220]	; 16bcc <OSMutexPost+0x34c>
   16aec:	e3a01001 	mov	r1, #1
   16af0:	e7831102 	str	r1, [r3, r2, lsl #2]
   16af4:	e51b3010 	ldr	r3, [fp, #-16]
   16af8:	e5d33001 	ldrb	r3, [r3, #1]
   16afc:	e3530000 	cmp	r3, #0
   16b00:	0a00001d 	beq	16b7c <OSMutexPost+0x2fc>
   16b04:	e51b0010 	ldr	r0, [fp, #-16]
   16b08:	e3a01000 	mov	r1, #0
   16b0c:	e3a02010 	mov	r2, #16
   16b10:	ebfff208 	bl	13338 <OS_EventTaskRdy>
   16b14:	e1a03000 	mov	r3, r0
   16b18:	e54b300a 	strb	r3, [fp, #-10]
   16b1c:	e51b3010 	ldr	r3, [fp, #-16]
   16b20:	e1d330b2 	ldrh	r3, [r3, #2]
   16b24:	e3c330ff 	bic	r3, r3, #255	; 0xff
   16b28:	e6ff2073 	uxth	r2, r3
   16b2c:	e51b3010 	ldr	r3, [fp, #-16]
   16b30:	e1c320b2 	strh	r2, [r3, #2]
   16b34:	e51b3010 	ldr	r3, [fp, #-16]
   16b38:	e1d320b2 	ldrh	r2, [r3, #2]
   16b3c:	e55b300a 	ldrb	r3, [fp, #-10]
   16b40:	e6ff3073 	uxth	r3, r3
   16b44:	e1823003 	orr	r3, r2, r3
   16b48:	e6ff2073 	uxth	r2, r3
   16b4c:	e51b3010 	ldr	r3, [fp, #-16]
   16b50:	e1c320b2 	strh	r2, [r3, #2]
   16b54:	e55b200a 	ldrb	r2, [fp, #-10]
   16b58:	e59f306c 	ldr	r3, [pc, #108]	; 16bcc <OSMutexPost+0x34c>
   16b5c:	e7932102 	ldr	r2, [r3, r2, lsl #2]
   16b60:	e51b3010 	ldr	r3, [fp, #-16]
   16b64:	e5832004 	str	r2, [r3, #4]
   16b68:	e51b0008 	ldr	r0, [fp, #-8]
   16b6c:	ebffef96 	bl	129cc <OS_CPU_SR_Restore>
   16b70:	ebfff41f 	bl	13bf4 <OS_Sched>
   16b74:	e3a03000 	mov	r3, #0
   16b78:	ea00000b 	b	16bac <OSMutexPost+0x32c>
   16b7c:	e51b3010 	ldr	r3, [fp, #-16]
   16b80:	e1d330b2 	ldrh	r3, [r3, #2]
   16b84:	e38330ff 	orr	r3, r3, #255	; 0xff
   16b88:	e6ff2073 	uxth	r2, r3
   16b8c:	e51b3010 	ldr	r3, [fp, #-16]
   16b90:	e1c320b2 	strh	r2, [r3, #2]
   16b94:	e51b3010 	ldr	r3, [fp, #-16]
   16b98:	e3a02000 	mov	r2, #0
   16b9c:	e5832004 	str	r2, [r3, #4]
   16ba0:	e51b0008 	ldr	r0, [fp, #-8]
   16ba4:	ebffef88 	bl	129cc <OS_CPU_SR_Restore>
   16ba8:	e3a03000 	mov	r3, #0
   16bac:	e1a00003 	mov	r0, r3
   16bb0:	e24bd004 	sub	sp, fp, #4
   16bb4:	e8bd8800 	pop	{fp, pc}
   16bb8:	0001bdd5 	ldrdeq	fp, [r1], -r5
   16bbc:	0001bdd8 	ldrdeq	fp, [r1], -r8
   16bc0:	0001bdc8 	andeq	fp, r1, r8, asr #27
   16bc4:	0001bdc4 	andeq	fp, r1, r4, asr #27
   16bc8:	00019ea4 	andeq	r9, r1, r4, lsr #29
   16bcc:	0001ca4c 	andeq	ip, r1, ip, asr #20

00016bd0 <OSMutexQuery>:
   16bd0:	e92d4800 	push	{fp, lr}
   16bd4:	e28db004 	add	fp, sp, #4
   16bd8:	e24dd018 	sub	sp, sp, #24
   16bdc:	e50b0018 	str	r0, [fp, #-24]
   16be0:	e50b101c 	str	r1, [fp, #-28]
   16be4:	e59f31d0 	ldr	r3, [pc, #464]	; 16dbc <OSMutexQuery+0x1ec>
   16be8:	e5d33000 	ldrb	r3, [r3]
   16bec:	e3530000 	cmp	r3, #0
   16bf0:	0a000001 	beq	16bfc <OSMutexQuery+0x2c>
   16bf4:	e3a03006 	mov	r3, #6
   16bf8:	ea00006c 	b	16db0 <OSMutexQuery+0x1e0>
   16bfc:	e51b3018 	ldr	r3, [fp, #-24]
   16c00:	e3530000 	cmp	r3, #0
   16c04:	1a000001 	bne	16c10 <OSMutexQuery+0x40>
   16c08:	e3a03004 	mov	r3, #4
   16c0c:	ea000067 	b	16db0 <OSMutexQuery+0x1e0>
   16c10:	e51b3018 	ldr	r3, [fp, #-24]
   16c14:	e5d33000 	ldrb	r3, [r3]
   16c18:	e3530004 	cmp	r3, #4
   16c1c:	0a000001 	beq	16c28 <OSMutexQuery+0x58>
   16c20:	e3a03001 	mov	r3, #1
   16c24:	ea000061 	b	16db0 <OSMutexQuery+0x1e0>
   16c28:	ebffef5f 	bl	129ac <OS_CPU_SR_Save>
   16c2c:	e1a03000 	mov	r3, r0
   16c30:	e50b3008 	str	r3, [fp, #-8]
   16c34:	e51b3018 	ldr	r3, [fp, #-24]
   16c38:	e1d330b2 	ldrh	r3, [r3, #2]
   16c3c:	e1a03423 	lsr	r3, r3, #8
   16c40:	e6ff3073 	uxth	r3, r3
   16c44:	e6ef2073 	uxtb	r2, r3
   16c48:	e51b301c 	ldr	r3, [fp, #-28]
   16c4c:	e5c3200b 	strb	r2, [r3, #11]
   16c50:	e51b3018 	ldr	r3, [fp, #-24]
   16c54:	e1d330b2 	ldrh	r3, [r3, #2]
   16c58:	e6ef2073 	uxtb	r2, r3
   16c5c:	e51b301c 	ldr	r3, [fp, #-28]
   16c60:	e5c3200a 	strb	r2, [r3, #10]
   16c64:	e51b301c 	ldr	r3, [fp, #-28]
   16c68:	e5d3300a 	ldrb	r3, [r3, #10]
   16c6c:	e35300ff 	cmp	r3, #255	; 0xff
   16c70:	1a000003 	bne	16c84 <OSMutexQuery+0xb4>
   16c74:	e51b301c 	ldr	r3, [fp, #-28]
   16c78:	e3a02001 	mov	r2, #1
   16c7c:	e5c32009 	strb	r2, [r3, #9]
   16c80:	ea000002 	b	16c90 <OSMutexQuery+0xc0>
   16c84:	e51b301c 	ldr	r3, [fp, #-28]
   16c88:	e3a02000 	mov	r2, #0
   16c8c:	e5c32009 	strb	r2, [r3, #9]
   16c90:	e51b3018 	ldr	r3, [fp, #-24]
   16c94:	e5d32001 	ldrb	r2, [r3, #1]
   16c98:	e51b301c 	ldr	r3, [fp, #-28]
   16c9c:	e5c32008 	strb	r2, [r3, #8]
   16ca0:	e51b3018 	ldr	r3, [fp, #-24]
   16ca4:	e2833008 	add	r3, r3, #8
   16ca8:	e50b300c 	str	r3, [fp, #-12]
   16cac:	e51b301c 	ldr	r3, [fp, #-28]
   16cb0:	e50b3010 	str	r3, [fp, #-16]
   16cb4:	e51b3010 	ldr	r3, [fp, #-16]
   16cb8:	e2832001 	add	r2, r3, #1
   16cbc:	e50b2010 	str	r2, [fp, #-16]
   16cc0:	e51b200c 	ldr	r2, [fp, #-12]
   16cc4:	e2821001 	add	r1, r2, #1
   16cc8:	e50b100c 	str	r1, [fp, #-12]
   16ccc:	e5d22000 	ldrb	r2, [r2]
   16cd0:	e5c32000 	strb	r2, [r3]
   16cd4:	e51b3010 	ldr	r3, [fp, #-16]
   16cd8:	e2832001 	add	r2, r3, #1
   16cdc:	e50b2010 	str	r2, [fp, #-16]
   16ce0:	e51b200c 	ldr	r2, [fp, #-12]
   16ce4:	e2821001 	add	r1, r2, #1
   16ce8:	e50b100c 	str	r1, [fp, #-12]
   16cec:	e5d22000 	ldrb	r2, [r2]
   16cf0:	e5c32000 	strb	r2, [r3]
   16cf4:	e51b3010 	ldr	r3, [fp, #-16]
   16cf8:	e2832001 	add	r2, r3, #1
   16cfc:	e50b2010 	str	r2, [fp, #-16]
   16d00:	e51b200c 	ldr	r2, [fp, #-12]
   16d04:	e2821001 	add	r1, r2, #1
   16d08:	e50b100c 	str	r1, [fp, #-12]
   16d0c:	e5d22000 	ldrb	r2, [r2]
   16d10:	e5c32000 	strb	r2, [r3]
   16d14:	e51b3010 	ldr	r3, [fp, #-16]
   16d18:	e2832001 	add	r2, r3, #1
   16d1c:	e50b2010 	str	r2, [fp, #-16]
   16d20:	e51b200c 	ldr	r2, [fp, #-12]
   16d24:	e2821001 	add	r1, r2, #1
   16d28:	e50b100c 	str	r1, [fp, #-12]
   16d2c:	e5d22000 	ldrb	r2, [r2]
   16d30:	e5c32000 	strb	r2, [r3]
   16d34:	e51b3010 	ldr	r3, [fp, #-16]
   16d38:	e2832001 	add	r2, r3, #1
   16d3c:	e50b2010 	str	r2, [fp, #-16]
   16d40:	e51b200c 	ldr	r2, [fp, #-12]
   16d44:	e2821001 	add	r1, r2, #1
   16d48:	e50b100c 	str	r1, [fp, #-12]
   16d4c:	e5d22000 	ldrb	r2, [r2]
   16d50:	e5c32000 	strb	r2, [r3]
   16d54:	e51b3010 	ldr	r3, [fp, #-16]
   16d58:	e2832001 	add	r2, r3, #1
   16d5c:	e50b2010 	str	r2, [fp, #-16]
   16d60:	e51b200c 	ldr	r2, [fp, #-12]
   16d64:	e2821001 	add	r1, r2, #1
   16d68:	e50b100c 	str	r1, [fp, #-12]
   16d6c:	e5d22000 	ldrb	r2, [r2]
   16d70:	e5c32000 	strb	r2, [r3]
   16d74:	e51b3010 	ldr	r3, [fp, #-16]
   16d78:	e2832001 	add	r2, r3, #1
   16d7c:	e50b2010 	str	r2, [fp, #-16]
   16d80:	e51b200c 	ldr	r2, [fp, #-12]
   16d84:	e2821001 	add	r1, r2, #1
   16d88:	e50b100c 	str	r1, [fp, #-12]
   16d8c:	e5d22000 	ldrb	r2, [r2]
   16d90:	e5c32000 	strb	r2, [r3]
   16d94:	e51b300c 	ldr	r3, [fp, #-12]
   16d98:	e5d32000 	ldrb	r2, [r3]
   16d9c:	e51b3010 	ldr	r3, [fp, #-16]
   16da0:	e5c32000 	strb	r2, [r3]
   16da4:	e51b0008 	ldr	r0, [fp, #-8]
   16da8:	ebffef07 	bl	129cc <OS_CPU_SR_Restore>
   16dac:	e3a03000 	mov	r3, #0
   16db0:	e1a00003 	mov	r0, r3
   16db4:	e24bd004 	sub	sp, fp, #4
   16db8:	e8bd8800 	pop	{fp, pc}
   16dbc:	0001bdd5 	ldrdeq	fp, [r1], -r5

00016dc0 <OSQAccept>:
   16dc0:	e92d4800 	push	{fp, lr}
   16dc4:	e28db004 	add	fp, sp, #4
   16dc8:	e24dd018 	sub	sp, sp, #24
   16dcc:	e50b0018 	str	r0, [fp, #-24]
   16dd0:	e51b3018 	ldr	r3, [fp, #-24]
   16dd4:	e3530000 	cmp	r3, #0
   16dd8:	1a000001 	bne	16de4 <OSQAccept+0x24>
   16ddc:	e3a03000 	mov	r3, #0
   16de0:	ea00002c 	b	16e98 <OSQAccept+0xd8>
   16de4:	e51b3018 	ldr	r3, [fp, #-24]
   16de8:	e5d33000 	ldrb	r3, [r3]
   16dec:	e3530002 	cmp	r3, #2
   16df0:	0a000001 	beq	16dfc <OSQAccept+0x3c>
   16df4:	e3a03000 	mov	r3, #0
   16df8:	ea000026 	b	16e98 <OSQAccept+0xd8>
   16dfc:	ebffeeea 	bl	129ac <OS_CPU_SR_Save>
   16e00:	e1a03000 	mov	r3, r0
   16e04:	e50b300c 	str	r3, [fp, #-12]
   16e08:	e51b3018 	ldr	r3, [fp, #-24]
   16e0c:	e5933004 	ldr	r3, [r3, #4]
   16e10:	e50b3010 	str	r3, [fp, #-16]
   16e14:	e51b3010 	ldr	r3, [fp, #-16]
   16e18:	e1d331b6 	ldrh	r3, [r3, #22]
   16e1c:	e3530000 	cmp	r3, #0
   16e20:	0a000017 	beq	16e84 <OSQAccept+0xc4>
   16e24:	e51b3010 	ldr	r3, [fp, #-16]
   16e28:	e5933010 	ldr	r3, [r3, #16]
   16e2c:	e2831004 	add	r1, r3, #4
   16e30:	e51b2010 	ldr	r2, [fp, #-16]
   16e34:	e5821010 	str	r1, [r2, #16]
   16e38:	e5933000 	ldr	r3, [r3]
   16e3c:	e50b3008 	str	r3, [fp, #-8]
   16e40:	e51b3010 	ldr	r3, [fp, #-16]
   16e44:	e1d331b6 	ldrh	r3, [r3, #22]
   16e48:	e2433001 	sub	r3, r3, #1
   16e4c:	e6ff2073 	uxth	r2, r3
   16e50:	e51b3010 	ldr	r3, [fp, #-16]
   16e54:	e1c321b6 	strh	r2, [r3, #22]
   16e58:	e51b3010 	ldr	r3, [fp, #-16]
   16e5c:	e5932010 	ldr	r2, [r3, #16]
   16e60:	e51b3010 	ldr	r3, [fp, #-16]
   16e64:	e5933008 	ldr	r3, [r3, #8]
   16e68:	e1520003 	cmp	r2, r3
   16e6c:	1a000006 	bne	16e8c <OSQAccept+0xcc>
   16e70:	e51b3010 	ldr	r3, [fp, #-16]
   16e74:	e5932004 	ldr	r2, [r3, #4]
   16e78:	e51b3010 	ldr	r3, [fp, #-16]
   16e7c:	e5832010 	str	r2, [r3, #16]
   16e80:	ea000001 	b	16e8c <OSQAccept+0xcc>
   16e84:	e3a03000 	mov	r3, #0
   16e88:	e50b3008 	str	r3, [fp, #-8]
   16e8c:	e51b000c 	ldr	r0, [fp, #-12]
   16e90:	ebffeecd 	bl	129cc <OS_CPU_SR_Restore>
   16e94:	e51b3008 	ldr	r3, [fp, #-8]
   16e98:	e1a00003 	mov	r0, r3
   16e9c:	e24bd004 	sub	sp, fp, #4
   16ea0:	e8bd8800 	pop	{fp, pc}

00016ea4 <OSQCreate>:
   16ea4:	e92d4800 	push	{fp, lr}
   16ea8:	e28db004 	add	fp, sp, #4
   16eac:	e24dd018 	sub	sp, sp, #24
   16eb0:	e50b0018 	str	r0, [fp, #-24]
   16eb4:	e1a03001 	mov	r3, r1
   16eb8:	e14b31ba 	strh	r3, [fp, #-26]	; 0xffffffe6
   16ebc:	e59f3160 	ldr	r3, [pc, #352]	; 17024 <OSQCreate+0x180>
   16ec0:	e5d33000 	ldrb	r3, [r3]
   16ec4:	e3530000 	cmp	r3, #0
   16ec8:	0a000001 	beq	16ed4 <OSQCreate+0x30>
   16ecc:	e3a03000 	mov	r3, #0
   16ed0:	ea000050 	b	17018 <OSQCreate+0x174>
   16ed4:	ebffeeb4 	bl	129ac <OS_CPU_SR_Save>
   16ed8:	e1a03000 	mov	r3, r0
   16edc:	e50b300c 	str	r3, [fp, #-12]
   16ee0:	e59f3140 	ldr	r3, [pc, #320]	; 17028 <OSQCreate+0x184>
   16ee4:	e5933000 	ldr	r3, [r3]
   16ee8:	e50b3008 	str	r3, [fp, #-8]
   16eec:	e59f3134 	ldr	r3, [pc, #308]	; 17028 <OSQCreate+0x184>
   16ef0:	e5933000 	ldr	r3, [r3]
   16ef4:	e3530000 	cmp	r3, #0
   16ef8:	0a000004 	beq	16f10 <OSQCreate+0x6c>
   16efc:	e59f3124 	ldr	r3, [pc, #292]	; 17028 <OSQCreate+0x184>
   16f00:	e5933000 	ldr	r3, [r3]
   16f04:	e5932004 	ldr	r2, [r3, #4]
   16f08:	e59f3118 	ldr	r3, [pc, #280]	; 17028 <OSQCreate+0x184>
   16f0c:	e5832000 	str	r2, [r3]
   16f10:	e51b000c 	ldr	r0, [fp, #-12]
   16f14:	ebffeeac 	bl	129cc <OS_CPU_SR_Restore>
   16f18:	e51b3008 	ldr	r3, [fp, #-8]
   16f1c:	e3530000 	cmp	r3, #0
   16f20:	0a00003b 	beq	17014 <OSQCreate+0x170>
   16f24:	ebffeea0 	bl	129ac <OS_CPU_SR_Save>
   16f28:	e1a03000 	mov	r3, r0
   16f2c:	e50b300c 	str	r3, [fp, #-12]
   16f30:	e59f30f4 	ldr	r3, [pc, #244]	; 1702c <OSQCreate+0x188>
   16f34:	e5933000 	ldr	r3, [r3]
   16f38:	e50b3010 	str	r3, [fp, #-16]
   16f3c:	e51b3010 	ldr	r3, [fp, #-16]
   16f40:	e3530000 	cmp	r3, #0
   16f44:	0a000027 	beq	16fe8 <OSQCreate+0x144>
   16f48:	e59f30dc 	ldr	r3, [pc, #220]	; 1702c <OSQCreate+0x188>
   16f4c:	e5933000 	ldr	r3, [r3]
   16f50:	e5932000 	ldr	r2, [r3]
   16f54:	e59f30d0 	ldr	r3, [pc, #208]	; 1702c <OSQCreate+0x188>
   16f58:	e5832000 	str	r2, [r3]
   16f5c:	e51b000c 	ldr	r0, [fp, #-12]
   16f60:	ebffee99 	bl	129cc <OS_CPU_SR_Restore>
   16f64:	e51b3010 	ldr	r3, [fp, #-16]
   16f68:	e51b2018 	ldr	r2, [fp, #-24]
   16f6c:	e5832004 	str	r2, [r3, #4]
   16f70:	e15b31ba 	ldrh	r3, [fp, #-26]	; 0xffffffe6
   16f74:	e1a03103 	lsl	r3, r3, #2
   16f78:	e51b2018 	ldr	r2, [fp, #-24]
   16f7c:	e0822003 	add	r2, r2, r3
   16f80:	e51b3010 	ldr	r3, [fp, #-16]
   16f84:	e5832008 	str	r2, [r3, #8]
   16f88:	e51b3010 	ldr	r3, [fp, #-16]
   16f8c:	e51b2018 	ldr	r2, [fp, #-24]
   16f90:	e583200c 	str	r2, [r3, #12]
   16f94:	e51b3010 	ldr	r3, [fp, #-16]
   16f98:	e51b2018 	ldr	r2, [fp, #-24]
   16f9c:	e5832010 	str	r2, [r3, #16]
   16fa0:	e51b3010 	ldr	r3, [fp, #-16]
   16fa4:	e15b21ba 	ldrh	r2, [fp, #-26]	; 0xffffffe6
   16fa8:	e1c321b4 	strh	r2, [r3, #20]
   16fac:	e51b3010 	ldr	r3, [fp, #-16]
   16fb0:	e3a02000 	mov	r2, #0
   16fb4:	e1c321b6 	strh	r2, [r3, #22]
   16fb8:	e51b3008 	ldr	r3, [fp, #-8]
   16fbc:	e3a02002 	mov	r2, #2
   16fc0:	e5c32000 	strb	r2, [r3]
   16fc4:	e51b3008 	ldr	r3, [fp, #-8]
   16fc8:	e3a02000 	mov	r2, #0
   16fcc:	e1c320b2 	strh	r2, [r3, #2]
   16fd0:	e51b3008 	ldr	r3, [fp, #-8]
   16fd4:	e51b2010 	ldr	r2, [fp, #-16]
   16fd8:	e5832004 	str	r2, [r3, #4]
   16fdc:	e51b0008 	ldr	r0, [fp, #-8]
   16fe0:	ebfff1e6 	bl	13780 <OS_EventWaitListInit>
   16fe4:	ea00000a 	b	17014 <OSQCreate+0x170>
   16fe8:	e59f3038 	ldr	r3, [pc, #56]	; 17028 <OSQCreate+0x184>
   16fec:	e5932000 	ldr	r2, [r3]
   16ff0:	e51b3008 	ldr	r3, [fp, #-8]
   16ff4:	e5832004 	str	r2, [r3, #4]
   16ff8:	e59f3028 	ldr	r3, [pc, #40]	; 17028 <OSQCreate+0x184>
   16ffc:	e51b2008 	ldr	r2, [fp, #-8]
   17000:	e5832000 	str	r2, [r3]
   17004:	e51b000c 	ldr	r0, [fp, #-12]
   17008:	ebffee6f 	bl	129cc <OS_CPU_SR_Restore>
   1700c:	e3a03000 	mov	r3, #0
   17010:	e50b3008 	str	r3, [fp, #-8]
   17014:	e51b3008 	ldr	r3, [fp, #-8]
   17018:	e1a00003 	mov	r0, r3
   1701c:	e24bd004 	sub	sp, fp, #4
   17020:	e8bd8800 	pop	{fp, pc}
   17024:	0001bdd5 	ldrdeq	fp, [r1], -r5
   17028:	0001bdd0 	ldrdeq	fp, [r1], -r0
   1702c:	0001bdc0 	andeq	fp, r1, r0, asr #27

00017030 <OSQDel>:
   17030:	e92d4800 	push	{fp, lr}
   17034:	e28db004 	add	fp, sp, #4
   17038:	e24dd020 	sub	sp, sp, #32
   1703c:	e50b0018 	str	r0, [fp, #-24]
   17040:	e1a03001 	mov	r3, r1
   17044:	e50b2020 	str	r2, [fp, #-32]
   17048:	e54b3019 	strb	r3, [fp, #-25]
   1704c:	e59f3204 	ldr	r3, [pc, #516]	; 17258 <OSQDel+0x228>
   17050:	e5d33000 	ldrb	r3, [r3]
   17054:	e3530000 	cmp	r3, #0
   17058:	0a000004 	beq	17070 <OSQDel+0x40>
   1705c:	e51b3020 	ldr	r3, [fp, #-32]
   17060:	e3e02073 	mvn	r2, #115	; 0x73
   17064:	e5c32000 	strb	r2, [r3]
   17068:	e3a03000 	mov	r3, #0
   1706c:	ea000076 	b	1724c <OSQDel+0x21c>
   17070:	e51b3018 	ldr	r3, [fp, #-24]
   17074:	e3530000 	cmp	r3, #0
   17078:	1a000004 	bne	17090 <OSQDel+0x60>
   1707c:	e51b3020 	ldr	r3, [fp, #-32]
   17080:	e3a02004 	mov	r2, #4
   17084:	e5c32000 	strb	r2, [r3]
   17088:	e51b3018 	ldr	r3, [fp, #-24]
   1708c:	ea00006e 	b	1724c <OSQDel+0x21c>
   17090:	e51b3018 	ldr	r3, [fp, #-24]
   17094:	e5d33000 	ldrb	r3, [r3]
   17098:	e3530002 	cmp	r3, #2
   1709c:	0a000004 	beq	170b4 <OSQDel+0x84>
   170a0:	e51b3020 	ldr	r3, [fp, #-32]
   170a4:	e3a02001 	mov	r2, #1
   170a8:	e5c32000 	strb	r2, [r3]
   170ac:	e51b3018 	ldr	r3, [fp, #-24]
   170b0:	ea000065 	b	1724c <OSQDel+0x21c>
   170b4:	ebffee3c 	bl	129ac <OS_CPU_SR_Save>
   170b8:	e1a03000 	mov	r3, r0
   170bc:	e50b300c 	str	r3, [fp, #-12]
   170c0:	e51b3018 	ldr	r3, [fp, #-24]
   170c4:	e5d33001 	ldrb	r3, [r3, #1]
   170c8:	e3530000 	cmp	r3, #0
   170cc:	0a000002 	beq	170dc <OSQDel+0xac>
   170d0:	e3a03001 	mov	r3, #1
   170d4:	e54b3005 	strb	r3, [fp, #-5]
   170d8:	ea000001 	b	170e4 <OSQDel+0xb4>
   170dc:	e3a03000 	mov	r3, #0
   170e0:	e54b3005 	strb	r3, [fp, #-5]
   170e4:	e55b3019 	ldrb	r3, [fp, #-25]
   170e8:	e3530000 	cmp	r3, #0
   170ec:	0a000002 	beq	170fc <OSQDel+0xcc>
   170f0:	e3530001 	cmp	r3, #1
   170f4:	0a00002a 	beq	171a4 <OSQDel+0x174>
   170f8:	ea00004d 	b	17234 <OSQDel+0x204>
   170fc:	e55b3005 	ldrb	r3, [fp, #-5]
   17100:	e3530000 	cmp	r3, #0
   17104:	1a00001a 	bne	17174 <OSQDel+0x144>
   17108:	e51b3018 	ldr	r3, [fp, #-24]
   1710c:	e5933004 	ldr	r3, [r3, #4]
   17110:	e50b3010 	str	r3, [fp, #-16]
   17114:	e59f3140 	ldr	r3, [pc, #320]	; 1725c <OSQDel+0x22c>
   17118:	e5932000 	ldr	r2, [r3]
   1711c:	e51b3010 	ldr	r3, [fp, #-16]
   17120:	e5832000 	str	r2, [r3]
   17124:	e59f3130 	ldr	r3, [pc, #304]	; 1725c <OSQDel+0x22c>
   17128:	e51b2010 	ldr	r2, [fp, #-16]
   1712c:	e5832000 	str	r2, [r3]
   17130:	e51b3018 	ldr	r3, [fp, #-24]
   17134:	e3a02000 	mov	r2, #0
   17138:	e5c32000 	strb	r2, [r3]
   1713c:	e59f311c 	ldr	r3, [pc, #284]	; 17260 <OSQDel+0x230>
   17140:	e5932000 	ldr	r2, [r3]
   17144:	e51b3018 	ldr	r3, [fp, #-24]
   17148:	e5832004 	str	r2, [r3, #4]
   1714c:	e59f310c 	ldr	r3, [pc, #268]	; 17260 <OSQDel+0x230>
   17150:	e51b2018 	ldr	r2, [fp, #-24]
   17154:	e5832000 	str	r2, [r3]
   17158:	e51b000c 	ldr	r0, [fp, #-12]
   1715c:	ebffee1a 	bl	129cc <OS_CPU_SR_Restore>
   17160:	e51b3020 	ldr	r3, [fp, #-32]
   17164:	e3a02000 	mov	r2, #0
   17168:	e5c32000 	strb	r2, [r3]
   1716c:	e3a03000 	mov	r3, #0
   17170:	ea000035 	b	1724c <OSQDel+0x21c>
   17174:	e51b000c 	ldr	r0, [fp, #-12]
   17178:	ebffee13 	bl	129cc <OS_CPU_SR_Restore>
   1717c:	e51b3020 	ldr	r3, [fp, #-32]
   17180:	e3a02008 	mov	r2, #8
   17184:	e5c32000 	strb	r2, [r3]
   17188:	e51b3018 	ldr	r3, [fp, #-24]
   1718c:	ea00002e 	b	1724c <OSQDel+0x21c>
   17190:	e51b0018 	ldr	r0, [fp, #-24]
   17194:	e3a01000 	mov	r1, #0
   17198:	e3a02004 	mov	r2, #4
   1719c:	ebfff065 	bl	13338 <OS_EventTaskRdy>
   171a0:	ea000000 	b	171a8 <OSQDel+0x178>
   171a4:	e1a00000 	nop			; (mov r0, r0)
   171a8:	e51b3018 	ldr	r3, [fp, #-24]
   171ac:	e5d33001 	ldrb	r3, [r3, #1]
   171b0:	e3530000 	cmp	r3, #0
   171b4:	1afffff5 	bne	17190 <OSQDel+0x160>
   171b8:	e51b3018 	ldr	r3, [fp, #-24]
   171bc:	e5933004 	ldr	r3, [r3, #4]
   171c0:	e50b3010 	str	r3, [fp, #-16]
   171c4:	e59f3090 	ldr	r3, [pc, #144]	; 1725c <OSQDel+0x22c>
   171c8:	e5932000 	ldr	r2, [r3]
   171cc:	e51b3010 	ldr	r3, [fp, #-16]
   171d0:	e5832000 	str	r2, [r3]
   171d4:	e59f3080 	ldr	r3, [pc, #128]	; 1725c <OSQDel+0x22c>
   171d8:	e51b2010 	ldr	r2, [fp, #-16]
   171dc:	e5832000 	str	r2, [r3]
   171e0:	e51b3018 	ldr	r3, [fp, #-24]
   171e4:	e3a02000 	mov	r2, #0
   171e8:	e5c32000 	strb	r2, [r3]
   171ec:	e59f306c 	ldr	r3, [pc, #108]	; 17260 <OSQDel+0x230>
   171f0:	e5932000 	ldr	r2, [r3]
   171f4:	e51b3018 	ldr	r3, [fp, #-24]
   171f8:	e5832004 	str	r2, [r3, #4]
   171fc:	e59f305c 	ldr	r3, [pc, #92]	; 17260 <OSQDel+0x230>
   17200:	e51b2018 	ldr	r2, [fp, #-24]
   17204:	e5832000 	str	r2, [r3]
   17208:	e51b000c 	ldr	r0, [fp, #-12]
   1720c:	ebffedee 	bl	129cc <OS_CPU_SR_Restore>
   17210:	e55b3005 	ldrb	r3, [fp, #-5]
   17214:	e3530001 	cmp	r3, #1
   17218:	1a000000 	bne	17220 <OSQDel+0x1f0>
   1721c:	ebfff274 	bl	13bf4 <OS_Sched>
   17220:	e51b3020 	ldr	r3, [fp, #-32]
   17224:	e3a02000 	mov	r2, #0
   17228:	e5c32000 	strb	r2, [r3]
   1722c:	e3a03000 	mov	r3, #0
   17230:	ea000005 	b	1724c <OSQDel+0x21c>
   17234:	e51b000c 	ldr	r0, [fp, #-12]
   17238:	ebffede3 	bl	129cc <OS_CPU_SR_Restore>
   1723c:	e51b3020 	ldr	r3, [fp, #-32]
   17240:	e3a02007 	mov	r2, #7
   17244:	e5c32000 	strb	r2, [r3]
   17248:	e51b3018 	ldr	r3, [fp, #-24]
   1724c:	e1a00003 	mov	r0, r3
   17250:	e24bd004 	sub	sp, fp, #4
   17254:	e8bd8800 	pop	{fp, pc}
   17258:	0001bdd5 	ldrdeq	fp, [r1], -r5
   1725c:	0001bdc0 	andeq	fp, r1, r0, asr #27
   17260:	0001bdd0 	ldrdeq	fp, [r1], -r0

00017264 <OSQFlush>:
   17264:	e92d4800 	push	{fp, lr}
   17268:	e28db004 	add	fp, sp, #4
   1726c:	e24dd010 	sub	sp, sp, #16
   17270:	e50b0010 	str	r0, [fp, #-16]
   17274:	e51b3010 	ldr	r3, [fp, #-16]
   17278:	e3530000 	cmp	r3, #0
   1727c:	1a000001 	bne	17288 <OSQFlush+0x24>
   17280:	e3a03004 	mov	r3, #4
   17284:	ea000019 	b	172f0 <OSQFlush+0x8c>
   17288:	e51b3010 	ldr	r3, [fp, #-16]
   1728c:	e5d33000 	ldrb	r3, [r3]
   17290:	e3530002 	cmp	r3, #2
   17294:	0a000001 	beq	172a0 <OSQFlush+0x3c>
   17298:	e3a03001 	mov	r3, #1
   1729c:	ea000013 	b	172f0 <OSQFlush+0x8c>
   172a0:	ebffedc1 	bl	129ac <OS_CPU_SR_Save>
   172a4:	e1a03000 	mov	r3, r0
   172a8:	e50b3008 	str	r3, [fp, #-8]
   172ac:	e51b3010 	ldr	r3, [fp, #-16]
   172b0:	e5933004 	ldr	r3, [r3, #4]
   172b4:	e50b300c 	str	r3, [fp, #-12]
   172b8:	e51b300c 	ldr	r3, [fp, #-12]
   172bc:	e5932004 	ldr	r2, [r3, #4]
   172c0:	e51b300c 	ldr	r3, [fp, #-12]
   172c4:	e583200c 	str	r2, [r3, #12]
   172c8:	e51b300c 	ldr	r3, [fp, #-12]
   172cc:	e5932004 	ldr	r2, [r3, #4]
   172d0:	e51b300c 	ldr	r3, [fp, #-12]
   172d4:	e5832010 	str	r2, [r3, #16]
   172d8:	e51b300c 	ldr	r3, [fp, #-12]
   172dc:	e3a02000 	mov	r2, #0
   172e0:	e1c321b6 	strh	r2, [r3, #22]
   172e4:	e51b0008 	ldr	r0, [fp, #-8]
   172e8:	ebffedb7 	bl	129cc <OS_CPU_SR_Restore>
   172ec:	e3a03000 	mov	r3, #0
   172f0:	e1a00003 	mov	r0, r3
   172f4:	e24bd004 	sub	sp, fp, #4
   172f8:	e8bd8800 	pop	{fp, pc}

000172fc <OSQPend>:
   172fc:	e92d4800 	push	{fp, lr}
   17300:	e28db004 	add	fp, sp, #4
   17304:	e24dd020 	sub	sp, sp, #32
   17308:	e50b0018 	str	r0, [fp, #-24]
   1730c:	e1a03001 	mov	r3, r1
   17310:	e50b2020 	str	r2, [fp, #-32]
   17314:	e14b31ba 	strh	r3, [fp, #-26]	; 0xffffffe6
   17318:	e59f31e4 	ldr	r3, [pc, #484]	; 17504 <OSQPend+0x208>
   1731c:	e5d33000 	ldrb	r3, [r3]
   17320:	e3530000 	cmp	r3, #0
   17324:	0a000004 	beq	1733c <OSQPend+0x40>
   17328:	e51b3020 	ldr	r3, [fp, #-32]
   1732c:	e3a02002 	mov	r2, #2
   17330:	e5c32000 	strb	r2, [r3]
   17334:	e3a03000 	mov	r3, #0
   17338:	ea00006e 	b	174f8 <OSQPend+0x1fc>
   1733c:	e51b3018 	ldr	r3, [fp, #-24]
   17340:	e3530000 	cmp	r3, #0
   17344:	1a000004 	bne	1735c <OSQPend+0x60>
   17348:	e51b3020 	ldr	r3, [fp, #-32]
   1734c:	e3a02004 	mov	r2, #4
   17350:	e5c32000 	strb	r2, [r3]
   17354:	e3a03000 	mov	r3, #0
   17358:	ea000066 	b	174f8 <OSQPend+0x1fc>
   1735c:	e51b3018 	ldr	r3, [fp, #-24]
   17360:	e5d33000 	ldrb	r3, [r3]
   17364:	e3530002 	cmp	r3, #2
   17368:	0a000004 	beq	17380 <OSQPend+0x84>
   1736c:	e51b3020 	ldr	r3, [fp, #-32]
   17370:	e3a02001 	mov	r2, #1
   17374:	e5c32000 	strb	r2, [r3]
   17378:	e3a03000 	mov	r3, #0
   1737c:	ea00005d 	b	174f8 <OSQPend+0x1fc>
   17380:	ebffed89 	bl	129ac <OS_CPU_SR_Save>
   17384:	e1a03000 	mov	r3, r0
   17388:	e50b3008 	str	r3, [fp, #-8]
   1738c:	e51b3018 	ldr	r3, [fp, #-24]
   17390:	e5933004 	ldr	r3, [r3, #4]
   17394:	e50b300c 	str	r3, [fp, #-12]
   17398:	e51b300c 	ldr	r3, [fp, #-12]
   1739c:	e1d331b6 	ldrh	r3, [r3, #22]
   173a0:	e3530000 	cmp	r3, #0
   173a4:	0a00001d 	beq	17420 <OSQPend+0x124>
   173a8:	e51b300c 	ldr	r3, [fp, #-12]
   173ac:	e5933010 	ldr	r3, [r3, #16]
   173b0:	e2831004 	add	r1, r3, #4
   173b4:	e51b200c 	ldr	r2, [fp, #-12]
   173b8:	e5821010 	str	r1, [r2, #16]
   173bc:	e5933000 	ldr	r3, [r3]
   173c0:	e50b3010 	str	r3, [fp, #-16]
   173c4:	e51b300c 	ldr	r3, [fp, #-12]
   173c8:	e1d331b6 	ldrh	r3, [r3, #22]
   173cc:	e2433001 	sub	r3, r3, #1
   173d0:	e6ff2073 	uxth	r2, r3
   173d4:	e51b300c 	ldr	r3, [fp, #-12]
   173d8:	e1c321b6 	strh	r2, [r3, #22]
   173dc:	e51b300c 	ldr	r3, [fp, #-12]
   173e0:	e5932010 	ldr	r2, [r3, #16]
   173e4:	e51b300c 	ldr	r3, [fp, #-12]
   173e8:	e5933008 	ldr	r3, [r3, #8]
   173ec:	e1520003 	cmp	r2, r3
   173f0:	1a000003 	bne	17404 <OSQPend+0x108>
   173f4:	e51b300c 	ldr	r3, [fp, #-12]
   173f8:	e5932004 	ldr	r2, [r3, #4]
   173fc:	e51b300c 	ldr	r3, [fp, #-12]
   17400:	e5832010 	str	r2, [r3, #16]
   17404:	e51b0008 	ldr	r0, [fp, #-8]
   17408:	ebffed6f 	bl	129cc <OS_CPU_SR_Restore>
   1740c:	e51b3020 	ldr	r3, [fp, #-32]
   17410:	e3a02000 	mov	r2, #0
   17414:	e5c32000 	strb	r2, [r3]
   17418:	e51b3010 	ldr	r3, [fp, #-16]
   1741c:	ea000035 	b	174f8 <OSQPend+0x1fc>
   17420:	e59f30e0 	ldr	r3, [pc, #224]	; 17508 <OSQPend+0x20c>
   17424:	e5933000 	ldr	r3, [r3]
   17428:	e59f20d8 	ldr	r2, [pc, #216]	; 17508 <OSQPend+0x20c>
   1742c:	e5922000 	ldr	r2, [r2]
   17430:	e5d2202c 	ldrb	r2, [r2, #44]	; 0x2c
   17434:	e3822004 	orr	r2, r2, #4
   17438:	e6ef2072 	uxtb	r2, r2
   1743c:	e5c3202c 	strb	r2, [r3, #44]	; 0x2c
   17440:	e59f30c0 	ldr	r3, [pc, #192]	; 17508 <OSQPend+0x20c>
   17444:	e5933000 	ldr	r3, [r3]
   17448:	e15b21ba 	ldrh	r2, [fp, #-26]	; 0xffffffe6
   1744c:	e1c322ba 	strh	r2, [r3, #42]	; 0x2a
   17450:	e51b0018 	ldr	r0, [fp, #-24]
   17454:	ebfff035 	bl	13530 <OS_EventTaskWait>
   17458:	e51b0008 	ldr	r0, [fp, #-8]
   1745c:	ebffed5a 	bl	129cc <OS_CPU_SR_Restore>
   17460:	ebfff1e3 	bl	13bf4 <OS_Sched>
   17464:	ebffed50 	bl	129ac <OS_CPU_SR_Save>
   17468:	e1a03000 	mov	r3, r0
   1746c:	e50b3008 	str	r3, [fp, #-8]
   17470:	e59f3090 	ldr	r3, [pc, #144]	; 17508 <OSQPend+0x20c>
   17474:	e5933000 	ldr	r3, [r3]
   17478:	e5933020 	ldr	r3, [r3, #32]
   1747c:	e50b3010 	str	r3, [fp, #-16]
   17480:	e51b3010 	ldr	r3, [fp, #-16]
   17484:	e3530000 	cmp	r3, #0
   17488:	0a000012 	beq	174d8 <OSQPend+0x1dc>
   1748c:	e59f3074 	ldr	r3, [pc, #116]	; 17508 <OSQPend+0x20c>
   17490:	e5933000 	ldr	r3, [r3]
   17494:	e3a02000 	mov	r2, #0
   17498:	e5832020 	str	r2, [r3, #32]
   1749c:	e59f3064 	ldr	r3, [pc, #100]	; 17508 <OSQPend+0x20c>
   174a0:	e5933000 	ldr	r3, [r3]
   174a4:	e3a02000 	mov	r2, #0
   174a8:	e5c3202c 	strb	r2, [r3, #44]	; 0x2c
   174ac:	e59f3054 	ldr	r3, [pc, #84]	; 17508 <OSQPend+0x20c>
   174b0:	e5933000 	ldr	r3, [r3]
   174b4:	e3a02000 	mov	r2, #0
   174b8:	e583201c 	str	r2, [r3, #28]
   174bc:	e51b0008 	ldr	r0, [fp, #-8]
   174c0:	ebffed41 	bl	129cc <OS_CPU_SR_Restore>
   174c4:	e51b3020 	ldr	r3, [fp, #-32]
   174c8:	e3a02000 	mov	r2, #0
   174cc:	e5c32000 	strb	r2, [r3]
   174d0:	e51b3010 	ldr	r3, [fp, #-16]
   174d4:	ea000007 	b	174f8 <OSQPend+0x1fc>
   174d8:	e51b0018 	ldr	r0, [fp, #-24]
   174dc:	ebfff067 	bl	13680 <OS_EventTO>
   174e0:	e51b0008 	ldr	r0, [fp, #-8]
   174e4:	ebffed38 	bl	129cc <OS_CPU_SR_Restore>
   174e8:	e51b3020 	ldr	r3, [fp, #-32]
   174ec:	e3a0200a 	mov	r2, #10
   174f0:	e5c32000 	strb	r2, [r3]
   174f4:	e3a03000 	mov	r3, #0
   174f8:	e1a00003 	mov	r0, r3
   174fc:	e24bd004 	sub	sp, fp, #4
   17500:	e8bd8800 	pop	{fp, pc}
   17504:	0001bdd5 	ldrdeq	fp, [r1], -r5
   17508:	0001bdd8 	ldrdeq	fp, [r1], -r8

0001750c <OSQPost>:
   1750c:	e92d4800 	push	{fp, lr}
   17510:	e28db004 	add	fp, sp, #4
   17514:	e24dd010 	sub	sp, sp, #16
   17518:	e50b0010 	str	r0, [fp, #-16]
   1751c:	e50b1014 	str	r1, [fp, #-20]
   17520:	e51b3010 	ldr	r3, [fp, #-16]
   17524:	e3530000 	cmp	r3, #0
   17528:	1a000001 	bne	17534 <OSQPost+0x28>
   1752c:	e3a03004 	mov	r3, #4
   17530:	ea000041 	b	1763c <OSQPost+0x130>
   17534:	e51b3014 	ldr	r3, [fp, #-20]
   17538:	e3530000 	cmp	r3, #0
   1753c:	1a000001 	bne	17548 <OSQPost+0x3c>
   17540:	e3a03003 	mov	r3, #3
   17544:	ea00003c 	b	1763c <OSQPost+0x130>
   17548:	e51b3010 	ldr	r3, [fp, #-16]
   1754c:	e5d33000 	ldrb	r3, [r3]
   17550:	e3530002 	cmp	r3, #2
   17554:	0a000001 	beq	17560 <OSQPost+0x54>
   17558:	e3a03001 	mov	r3, #1
   1755c:	ea000036 	b	1763c <OSQPost+0x130>
   17560:	ebffed11 	bl	129ac <OS_CPU_SR_Save>
   17564:	e1a03000 	mov	r3, r0
   17568:	e50b3008 	str	r3, [fp, #-8]
   1756c:	e51b3010 	ldr	r3, [fp, #-16]
   17570:	e5d33001 	ldrb	r3, [r3, #1]
   17574:	e3530000 	cmp	r3, #0
   17578:	0a000008 	beq	175a0 <OSQPost+0x94>
   1757c:	e51b0010 	ldr	r0, [fp, #-16]
   17580:	e51b1014 	ldr	r1, [fp, #-20]
   17584:	e3a02004 	mov	r2, #4
   17588:	ebffef6a 	bl	13338 <OS_EventTaskRdy>
   1758c:	e51b0008 	ldr	r0, [fp, #-8]
   17590:	ebffed0d 	bl	129cc <OS_CPU_SR_Restore>
   17594:	ebfff196 	bl	13bf4 <OS_Sched>
   17598:	e3a03000 	mov	r3, #0
   1759c:	ea000026 	b	1763c <OSQPost+0x130>
   175a0:	e51b3010 	ldr	r3, [fp, #-16]
   175a4:	e5933004 	ldr	r3, [r3, #4]
   175a8:	e50b300c 	str	r3, [fp, #-12]
   175ac:	e51b300c 	ldr	r3, [fp, #-12]
   175b0:	e1d321b6 	ldrh	r2, [r3, #22]
   175b4:	e51b300c 	ldr	r3, [fp, #-12]
   175b8:	e1d331b4 	ldrh	r3, [r3, #20]
   175bc:	e1520003 	cmp	r2, r3
   175c0:	3a000003 	bcc	175d4 <OSQPost+0xc8>
   175c4:	e51b0008 	ldr	r0, [fp, #-8]
   175c8:	ebffecff 	bl	129cc <OS_CPU_SR_Restore>
   175cc:	e3a0301e 	mov	r3, #30
   175d0:	ea000019 	b	1763c <OSQPost+0x130>
   175d4:	e51b300c 	ldr	r3, [fp, #-12]
   175d8:	e593300c 	ldr	r3, [r3, #12]
   175dc:	e2831004 	add	r1, r3, #4
   175e0:	e51b200c 	ldr	r2, [fp, #-12]
   175e4:	e582100c 	str	r1, [r2, #12]
   175e8:	e51b2014 	ldr	r2, [fp, #-20]
   175ec:	e5832000 	str	r2, [r3]
   175f0:	e51b300c 	ldr	r3, [fp, #-12]
   175f4:	e1d331b6 	ldrh	r3, [r3, #22]
   175f8:	e2833001 	add	r3, r3, #1
   175fc:	e6ff2073 	uxth	r2, r3
   17600:	e51b300c 	ldr	r3, [fp, #-12]
   17604:	e1c321b6 	strh	r2, [r3, #22]
   17608:	e51b300c 	ldr	r3, [fp, #-12]
   1760c:	e593200c 	ldr	r2, [r3, #12]
   17610:	e51b300c 	ldr	r3, [fp, #-12]
   17614:	e5933008 	ldr	r3, [r3, #8]
   17618:	e1520003 	cmp	r2, r3
   1761c:	1a000003 	bne	17630 <OSQPost+0x124>
   17620:	e51b300c 	ldr	r3, [fp, #-12]
   17624:	e5932004 	ldr	r2, [r3, #4]
   17628:	e51b300c 	ldr	r3, [fp, #-12]
   1762c:	e583200c 	str	r2, [r3, #12]
   17630:	e51b0008 	ldr	r0, [fp, #-8]
   17634:	ebffece4 	bl	129cc <OS_CPU_SR_Restore>
   17638:	e3a03000 	mov	r3, #0
   1763c:	e1a00003 	mov	r0, r3
   17640:	e24bd004 	sub	sp, fp, #4
   17644:	e8bd8800 	pop	{fp, pc}

00017648 <OSQPostFront>:
   17648:	e92d4800 	push	{fp, lr}
   1764c:	e28db004 	add	fp, sp, #4
   17650:	e24dd010 	sub	sp, sp, #16
   17654:	e50b0010 	str	r0, [fp, #-16]
   17658:	e50b1014 	str	r1, [fp, #-20]
   1765c:	e51b3010 	ldr	r3, [fp, #-16]
   17660:	e3530000 	cmp	r3, #0
   17664:	1a000001 	bne	17670 <OSQPostFront+0x28>
   17668:	e3a03004 	mov	r3, #4
   1766c:	ea000043 	b	17780 <OSQPostFront+0x138>
   17670:	e51b3014 	ldr	r3, [fp, #-20]
   17674:	e3530000 	cmp	r3, #0
   17678:	1a000001 	bne	17684 <OSQPostFront+0x3c>
   1767c:	e3a03003 	mov	r3, #3
   17680:	ea00003e 	b	17780 <OSQPostFront+0x138>
   17684:	e51b3010 	ldr	r3, [fp, #-16]
   17688:	e5d33000 	ldrb	r3, [r3]
   1768c:	e3530002 	cmp	r3, #2
   17690:	0a000001 	beq	1769c <OSQPostFront+0x54>
   17694:	e3a03001 	mov	r3, #1
   17698:	ea000038 	b	17780 <OSQPostFront+0x138>
   1769c:	ebffecc2 	bl	129ac <OS_CPU_SR_Save>
   176a0:	e1a03000 	mov	r3, r0
   176a4:	e50b3008 	str	r3, [fp, #-8]
   176a8:	e51b3010 	ldr	r3, [fp, #-16]
   176ac:	e5d33001 	ldrb	r3, [r3, #1]
   176b0:	e3530000 	cmp	r3, #0
   176b4:	0a000008 	beq	176dc <OSQPostFront+0x94>
   176b8:	e51b0010 	ldr	r0, [fp, #-16]
   176bc:	e51b1014 	ldr	r1, [fp, #-20]
   176c0:	e3a02004 	mov	r2, #4
   176c4:	ebffef1b 	bl	13338 <OS_EventTaskRdy>
   176c8:	e51b0008 	ldr	r0, [fp, #-8]
   176cc:	ebffecbe 	bl	129cc <OS_CPU_SR_Restore>
   176d0:	ebfff147 	bl	13bf4 <OS_Sched>
   176d4:	e3a03000 	mov	r3, #0
   176d8:	ea000028 	b	17780 <OSQPostFront+0x138>
   176dc:	e51b3010 	ldr	r3, [fp, #-16]
   176e0:	e5933004 	ldr	r3, [r3, #4]
   176e4:	e50b300c 	str	r3, [fp, #-12]
   176e8:	e51b300c 	ldr	r3, [fp, #-12]
   176ec:	e1d321b6 	ldrh	r2, [r3, #22]
   176f0:	e51b300c 	ldr	r3, [fp, #-12]
   176f4:	e1d331b4 	ldrh	r3, [r3, #20]
   176f8:	e1520003 	cmp	r2, r3
   176fc:	3a000003 	bcc	17710 <OSQPostFront+0xc8>
   17700:	e51b0008 	ldr	r0, [fp, #-8]
   17704:	ebffecb0 	bl	129cc <OS_CPU_SR_Restore>
   17708:	e3a0301e 	mov	r3, #30
   1770c:	ea00001b 	b	17780 <OSQPostFront+0x138>
   17710:	e51b300c 	ldr	r3, [fp, #-12]
   17714:	e5932010 	ldr	r2, [r3, #16]
   17718:	e51b300c 	ldr	r3, [fp, #-12]
   1771c:	e5933004 	ldr	r3, [r3, #4]
   17720:	e1520003 	cmp	r2, r3
   17724:	1a000003 	bne	17738 <OSQPostFront+0xf0>
   17728:	e51b300c 	ldr	r3, [fp, #-12]
   1772c:	e5932008 	ldr	r2, [r3, #8]
   17730:	e51b300c 	ldr	r3, [fp, #-12]
   17734:	e5832010 	str	r2, [r3, #16]
   17738:	e51b300c 	ldr	r3, [fp, #-12]
   1773c:	e5933010 	ldr	r3, [r3, #16]
   17740:	e2432004 	sub	r2, r3, #4
   17744:	e51b300c 	ldr	r3, [fp, #-12]
   17748:	e5832010 	str	r2, [r3, #16]
   1774c:	e51b300c 	ldr	r3, [fp, #-12]
   17750:	e5933010 	ldr	r3, [r3, #16]
   17754:	e51b2014 	ldr	r2, [fp, #-20]
   17758:	e5832000 	str	r2, [r3]
   1775c:	e51b300c 	ldr	r3, [fp, #-12]
   17760:	e1d331b6 	ldrh	r3, [r3, #22]
   17764:	e2833001 	add	r3, r3, #1
   17768:	e6ff2073 	uxth	r2, r3
   1776c:	e51b300c 	ldr	r3, [fp, #-12]
   17770:	e1c321b6 	strh	r2, [r3, #22]
   17774:	e51b0008 	ldr	r0, [fp, #-8]
   17778:	ebffec93 	bl	129cc <OS_CPU_SR_Restore>
   1777c:	e3a03000 	mov	r3, #0
   17780:	e1a00003 	mov	r0, r3
   17784:	e24bd004 	sub	sp, fp, #4
   17788:	e8bd8800 	pop	{fp, pc}

0001778c <OSQPostOpt>:
   1778c:	e92d4800 	push	{fp, lr}
   17790:	e28db004 	add	fp, sp, #4
   17794:	e24dd018 	sub	sp, sp, #24
   17798:	e50b0010 	str	r0, [fp, #-16]
   1779c:	e50b1014 	str	r1, [fp, #-20]
   177a0:	e1a03002 	mov	r3, r2
   177a4:	e54b3015 	strb	r3, [fp, #-21]
   177a8:	e51b3010 	ldr	r3, [fp, #-16]
   177ac:	e3530000 	cmp	r3, #0
   177b0:	1a000001 	bne	177bc <OSQPostOpt+0x30>
   177b4:	e3a03004 	mov	r3, #4
   177b8:	ea000067 	b	1795c <OSQPostOpt+0x1d0>
   177bc:	e51b3014 	ldr	r3, [fp, #-20]
   177c0:	e3530000 	cmp	r3, #0
   177c4:	1a000001 	bne	177d0 <OSQPostOpt+0x44>
   177c8:	e3a03003 	mov	r3, #3
   177cc:	ea000062 	b	1795c <OSQPostOpt+0x1d0>
   177d0:	e51b3010 	ldr	r3, [fp, #-16]
   177d4:	e5d33000 	ldrb	r3, [r3]
   177d8:	e3530002 	cmp	r3, #2
   177dc:	0a000001 	beq	177e8 <OSQPostOpt+0x5c>
   177e0:	e3a03001 	mov	r3, #1
   177e4:	ea00005c 	b	1795c <OSQPostOpt+0x1d0>
   177e8:	ebffec6f 	bl	129ac <OS_CPU_SR_Save>
   177ec:	e1a03000 	mov	r3, r0
   177f0:	e50b3008 	str	r3, [fp, #-8]
   177f4:	e51b3010 	ldr	r3, [fp, #-16]
   177f8:	e5d33001 	ldrb	r3, [r3, #1]
   177fc:	e3530000 	cmp	r3, #0
   17800:	0a000016 	beq	17860 <OSQPostOpt+0xd4>
   17804:	e55b3015 	ldrb	r3, [fp, #-21]
   17808:	e2033001 	and	r3, r3, #1
   1780c:	e3530000 	cmp	r3, #0
   17810:	0a000009 	beq	1783c <OSQPostOpt+0xb0>
   17814:	ea000003 	b	17828 <OSQPostOpt+0x9c>
   17818:	e51b0010 	ldr	r0, [fp, #-16]
   1781c:	e51b1014 	ldr	r1, [fp, #-20]
   17820:	e3a02004 	mov	r2, #4
   17824:	ebffeec3 	bl	13338 <OS_EventTaskRdy>
   17828:	e51b3010 	ldr	r3, [fp, #-16]
   1782c:	e5d33001 	ldrb	r3, [r3, #1]
   17830:	e3530000 	cmp	r3, #0
   17834:	1afffff7 	bne	17818 <OSQPostOpt+0x8c>
   17838:	ea000003 	b	1784c <OSQPostOpt+0xc0>
   1783c:	e51b0010 	ldr	r0, [fp, #-16]
   17840:	e51b1014 	ldr	r1, [fp, #-20]
   17844:	e3a02004 	mov	r2, #4
   17848:	ebffeeba 	bl	13338 <OS_EventTaskRdy>
   1784c:	e51b0008 	ldr	r0, [fp, #-8]
   17850:	ebffec5d 	bl	129cc <OS_CPU_SR_Restore>
   17854:	ebfff0e6 	bl	13bf4 <OS_Sched>
   17858:	e3a03000 	mov	r3, #0
   1785c:	ea00003e 	b	1795c <OSQPostOpt+0x1d0>
   17860:	e51b3010 	ldr	r3, [fp, #-16]
   17864:	e5933004 	ldr	r3, [r3, #4]
   17868:	e50b300c 	str	r3, [fp, #-12]
   1786c:	e51b300c 	ldr	r3, [fp, #-12]
   17870:	e1d321b6 	ldrh	r2, [r3, #22]
   17874:	e51b300c 	ldr	r3, [fp, #-12]
   17878:	e1d331b4 	ldrh	r3, [r3, #20]
   1787c:	e1520003 	cmp	r2, r3
   17880:	3a000003 	bcc	17894 <OSQPostOpt+0x108>
   17884:	e51b0008 	ldr	r0, [fp, #-8]
   17888:	ebffec4f 	bl	129cc <OS_CPU_SR_Restore>
   1788c:	e3a0301e 	mov	r3, #30
   17890:	ea000031 	b	1795c <OSQPostOpt+0x1d0>
   17894:	e55b3015 	ldrb	r3, [fp, #-21]
   17898:	e2033002 	and	r3, r3, #2
   1789c:	e3530000 	cmp	r3, #0
   178a0:	0a000013 	beq	178f4 <OSQPostOpt+0x168>
   178a4:	e51b300c 	ldr	r3, [fp, #-12]
   178a8:	e5932010 	ldr	r2, [r3, #16]
   178ac:	e51b300c 	ldr	r3, [fp, #-12]
   178b0:	e5933004 	ldr	r3, [r3, #4]
   178b4:	e1520003 	cmp	r2, r3
   178b8:	1a000003 	bne	178cc <OSQPostOpt+0x140>
   178bc:	e51b300c 	ldr	r3, [fp, #-12]
   178c0:	e5932008 	ldr	r2, [r3, #8]
   178c4:	e51b300c 	ldr	r3, [fp, #-12]
   178c8:	e5832010 	str	r2, [r3, #16]
   178cc:	e51b300c 	ldr	r3, [fp, #-12]
   178d0:	e5933010 	ldr	r3, [r3, #16]
   178d4:	e2432004 	sub	r2, r3, #4
   178d8:	e51b300c 	ldr	r3, [fp, #-12]
   178dc:	e5832010 	str	r2, [r3, #16]
   178e0:	e51b300c 	ldr	r3, [fp, #-12]
   178e4:	e5933010 	ldr	r3, [r3, #16]
   178e8:	e51b2014 	ldr	r2, [fp, #-20]
   178ec:	e5832000 	str	r2, [r3]
   178f0:	ea000010 	b	17938 <OSQPostOpt+0x1ac>
   178f4:	e51b300c 	ldr	r3, [fp, #-12]
   178f8:	e593300c 	ldr	r3, [r3, #12]
   178fc:	e2831004 	add	r1, r3, #4
   17900:	e51b200c 	ldr	r2, [fp, #-12]
   17904:	e582100c 	str	r1, [r2, #12]
   17908:	e51b2014 	ldr	r2, [fp, #-20]
   1790c:	e5832000 	str	r2, [r3]
   17910:	e51b300c 	ldr	r3, [fp, #-12]
   17914:	e593200c 	ldr	r2, [r3, #12]
   17918:	e51b300c 	ldr	r3, [fp, #-12]
   1791c:	e5933008 	ldr	r3, [r3, #8]
   17920:	e1520003 	cmp	r2, r3
   17924:	1a000003 	bne	17938 <OSQPostOpt+0x1ac>
   17928:	e51b300c 	ldr	r3, [fp, #-12]
   1792c:	e5932004 	ldr	r2, [r3, #4]
   17930:	e51b300c 	ldr	r3, [fp, #-12]
   17934:	e583200c 	str	r2, [r3, #12]
   17938:	e51b300c 	ldr	r3, [fp, #-12]
   1793c:	e1d331b6 	ldrh	r3, [r3, #22]
   17940:	e2833001 	add	r3, r3, #1
   17944:	e6ff2073 	uxth	r2, r3
   17948:	e51b300c 	ldr	r3, [fp, #-12]
   1794c:	e1c321b6 	strh	r2, [r3, #22]
   17950:	e51b0008 	ldr	r0, [fp, #-8]
   17954:	ebffec1c 	bl	129cc <OS_CPU_SR_Restore>
   17958:	e3a03000 	mov	r3, #0
   1795c:	e1a00003 	mov	r0, r3
   17960:	e24bd004 	sub	sp, fp, #4
   17964:	e8bd8800 	pop	{fp, pc}

00017968 <OSQQuery>:
   17968:	e92d4800 	push	{fp, lr}
   1796c:	e28db004 	add	fp, sp, #4
   17970:	e24dd018 	sub	sp, sp, #24
   17974:	e50b0018 	str	r0, [fp, #-24]
   17978:	e50b101c 	str	r1, [fp, #-28]
   1797c:	e51b3018 	ldr	r3, [fp, #-24]
   17980:	e3530000 	cmp	r3, #0
   17984:	1a000001 	bne	17990 <OSQQuery+0x28>
   17988:	e3a03004 	mov	r3, #4
   1798c:	ea000069 	b	17b38 <OSQQuery+0x1d0>
   17990:	e51b3018 	ldr	r3, [fp, #-24]
   17994:	e5d33000 	ldrb	r3, [r3]
   17998:	e3530002 	cmp	r3, #2
   1799c:	0a000001 	beq	179a8 <OSQQuery+0x40>
   179a0:	e3a03001 	mov	r3, #1
   179a4:	ea000063 	b	17b38 <OSQQuery+0x1d0>
   179a8:	ebffebff 	bl	129ac <OS_CPU_SR_Save>
   179ac:	e1a03000 	mov	r3, r0
   179b0:	e50b3008 	str	r3, [fp, #-8]
   179b4:	e51b3018 	ldr	r3, [fp, #-24]
   179b8:	e5d32001 	ldrb	r2, [r3, #1]
   179bc:	e51b301c 	ldr	r3, [fp, #-28]
   179c0:	e5c32010 	strb	r2, [r3, #16]
   179c4:	e51b3018 	ldr	r3, [fp, #-24]
   179c8:	e2833008 	add	r3, r3, #8
   179cc:	e50b300c 	str	r3, [fp, #-12]
   179d0:	e51b301c 	ldr	r3, [fp, #-28]
   179d4:	e2833008 	add	r3, r3, #8
   179d8:	e50b3010 	str	r3, [fp, #-16]
   179dc:	e51b3010 	ldr	r3, [fp, #-16]
   179e0:	e2832001 	add	r2, r3, #1
   179e4:	e50b2010 	str	r2, [fp, #-16]
   179e8:	e51b200c 	ldr	r2, [fp, #-12]
   179ec:	e2821001 	add	r1, r2, #1
   179f0:	e50b100c 	str	r1, [fp, #-12]
   179f4:	e5d22000 	ldrb	r2, [r2]
   179f8:	e5c32000 	strb	r2, [r3]
   179fc:	e51b3010 	ldr	r3, [fp, #-16]
   17a00:	e2832001 	add	r2, r3, #1
   17a04:	e50b2010 	str	r2, [fp, #-16]
   17a08:	e51b200c 	ldr	r2, [fp, #-12]
   17a0c:	e2821001 	add	r1, r2, #1
   17a10:	e50b100c 	str	r1, [fp, #-12]
   17a14:	e5d22000 	ldrb	r2, [r2]
   17a18:	e5c32000 	strb	r2, [r3]
   17a1c:	e51b3010 	ldr	r3, [fp, #-16]
   17a20:	e2832001 	add	r2, r3, #1
   17a24:	e50b2010 	str	r2, [fp, #-16]
   17a28:	e51b200c 	ldr	r2, [fp, #-12]
   17a2c:	e2821001 	add	r1, r2, #1
   17a30:	e50b100c 	str	r1, [fp, #-12]
   17a34:	e5d22000 	ldrb	r2, [r2]
   17a38:	e5c32000 	strb	r2, [r3]
   17a3c:	e51b3010 	ldr	r3, [fp, #-16]
   17a40:	e2832001 	add	r2, r3, #1
   17a44:	e50b2010 	str	r2, [fp, #-16]
   17a48:	e51b200c 	ldr	r2, [fp, #-12]
   17a4c:	e2821001 	add	r1, r2, #1
   17a50:	e50b100c 	str	r1, [fp, #-12]
   17a54:	e5d22000 	ldrb	r2, [r2]
   17a58:	e5c32000 	strb	r2, [r3]
   17a5c:	e51b3010 	ldr	r3, [fp, #-16]
   17a60:	e2832001 	add	r2, r3, #1
   17a64:	e50b2010 	str	r2, [fp, #-16]
   17a68:	e51b200c 	ldr	r2, [fp, #-12]
   17a6c:	e2821001 	add	r1, r2, #1
   17a70:	e50b100c 	str	r1, [fp, #-12]
   17a74:	e5d22000 	ldrb	r2, [r2]
   17a78:	e5c32000 	strb	r2, [r3]
   17a7c:	e51b3010 	ldr	r3, [fp, #-16]
   17a80:	e2832001 	add	r2, r3, #1
   17a84:	e50b2010 	str	r2, [fp, #-16]
   17a88:	e51b200c 	ldr	r2, [fp, #-12]
   17a8c:	e2821001 	add	r1, r2, #1
   17a90:	e50b100c 	str	r1, [fp, #-12]
   17a94:	e5d22000 	ldrb	r2, [r2]
   17a98:	e5c32000 	strb	r2, [r3]
   17a9c:	e51b3010 	ldr	r3, [fp, #-16]
   17aa0:	e2832001 	add	r2, r3, #1
   17aa4:	e50b2010 	str	r2, [fp, #-16]
   17aa8:	e51b200c 	ldr	r2, [fp, #-12]
   17aac:	e2821001 	add	r1, r2, #1
   17ab0:	e50b100c 	str	r1, [fp, #-12]
   17ab4:	e5d22000 	ldrb	r2, [r2]
   17ab8:	e5c32000 	strb	r2, [r3]
   17abc:	e51b300c 	ldr	r3, [fp, #-12]
   17ac0:	e5d32000 	ldrb	r2, [r3]
   17ac4:	e51b3010 	ldr	r3, [fp, #-16]
   17ac8:	e5c32000 	strb	r2, [r3]
   17acc:	e51b3018 	ldr	r3, [fp, #-24]
   17ad0:	e5933004 	ldr	r3, [r3, #4]
   17ad4:	e50b3014 	str	r3, [fp, #-20]
   17ad8:	e51b3014 	ldr	r3, [fp, #-20]
   17adc:	e1d331b6 	ldrh	r3, [r3, #22]
   17ae0:	e3530000 	cmp	r3, #0
   17ae4:	0a000005 	beq	17b00 <OSQQuery+0x198>
   17ae8:	e51b3014 	ldr	r3, [fp, #-20]
   17aec:	e5933010 	ldr	r3, [r3, #16]
   17af0:	e5932000 	ldr	r2, [r3]
   17af4:	e51b301c 	ldr	r3, [fp, #-28]
   17af8:	e5832000 	str	r2, [r3]
   17afc:	ea000002 	b	17b0c <OSQQuery+0x1a4>
   17b00:	e51b301c 	ldr	r3, [fp, #-28]
   17b04:	e3a02000 	mov	r2, #0
   17b08:	e5832000 	str	r2, [r3]
   17b0c:	e51b3014 	ldr	r3, [fp, #-20]
   17b10:	e1d321b6 	ldrh	r2, [r3, #22]
   17b14:	e51b301c 	ldr	r3, [fp, #-28]
   17b18:	e1c320b4 	strh	r2, [r3, #4]
   17b1c:	e51b3014 	ldr	r3, [fp, #-20]
   17b20:	e1d321b4 	ldrh	r2, [r3, #20]
   17b24:	e51b301c 	ldr	r3, [fp, #-28]
   17b28:	e1c320b6 	strh	r2, [r3, #6]
   17b2c:	e51b0008 	ldr	r0, [fp, #-8]
   17b30:	ebffeba5 	bl	129cc <OS_CPU_SR_Restore>
   17b34:	e3a03000 	mov	r3, #0
   17b38:	e1a00003 	mov	r0, r3
   17b3c:	e24bd004 	sub	sp, fp, #4
   17b40:	e8bd8800 	pop	{fp, pc}

00017b44 <OS_QInit>:
   17b44:	e52db004 	push	{fp}		; (str fp, [sp, #-4]!)
   17b48:	e28db000 	add	fp, sp, #0
   17b4c:	e24dd014 	sub	sp, sp, #20
   17b50:	e59f3074 	ldr	r3, [pc, #116]	; 17bcc <OS_QInit+0x88>
   17b54:	e50b300c 	str	r3, [fp, #-12]
   17b58:	e59f3070 	ldr	r3, [pc, #112]	; 17bd0 <OS_QInit+0x8c>
   17b5c:	e50b3010 	str	r3, [fp, #-16]
   17b60:	e3a03000 	mov	r3, #0
   17b64:	e14b30b6 	strh	r3, [fp, #-6]
   17b68:	ea00000b 	b	17b9c <OS_QInit+0x58>
   17b6c:	e51b300c 	ldr	r3, [fp, #-12]
   17b70:	e51b2010 	ldr	r2, [fp, #-16]
   17b74:	e5832000 	str	r2, [r3]
   17b78:	e51b300c 	ldr	r3, [fp, #-12]
   17b7c:	e2833018 	add	r3, r3, #24
   17b80:	e50b300c 	str	r3, [fp, #-12]
   17b84:	e51b3010 	ldr	r3, [fp, #-16]
   17b88:	e2833018 	add	r3, r3, #24
   17b8c:	e50b3010 	str	r3, [fp, #-16]
   17b90:	e15b30b6 	ldrh	r3, [fp, #-6]
   17b94:	e2833001 	add	r3, r3, #1
   17b98:	e14b30b6 	strh	r3, [fp, #-6]
   17b9c:	e15b30b6 	ldrh	r3, [fp, #-6]
   17ba0:	e3530003 	cmp	r3, #3
   17ba4:	9afffff0 	bls	17b6c <OS_QInit+0x28>
   17ba8:	e51b300c 	ldr	r3, [fp, #-12]
   17bac:	e3a02000 	mov	r2, #0
   17bb0:	e5832000 	str	r2, [r3]
   17bb4:	e59f3018 	ldr	r3, [pc, #24]	; 17bd4 <OS_QInit+0x90>
   17bb8:	e59f200c 	ldr	r2, [pc, #12]	; 17bcc <OS_QInit+0x88>
   17bbc:	e5832000 	str	r2, [r3]
   17bc0:	e24bd000 	sub	sp, fp, #0
   17bc4:	e49db004 	pop	{fp}		; (ldr fp, [sp], #4)
   17bc8:	e12fff1e 	bx	lr
   17bcc:	0001bd44 	andeq	fp, r1, r4, asr #26
   17bd0:	0001bd5c 	andeq	fp, r1, ip, asr sp
   17bd4:	0001bdc0 	andeq	fp, r1, r0, asr #27

00017bd8 <OSSemAccept>:
   17bd8:	e92d4800 	push	{fp, lr}
   17bdc:	e28db004 	add	fp, sp, #4
   17be0:	e24dd010 	sub	sp, sp, #16
   17be4:	e50b0010 	str	r0, [fp, #-16]
   17be8:	e51b3010 	ldr	r3, [fp, #-16]
   17bec:	e3530000 	cmp	r3, #0
   17bf0:	1a000001 	bne	17bfc <OSSemAccept+0x24>
   17bf4:	e3a03000 	mov	r3, #0
   17bf8:	ea000017 	b	17c5c <OSSemAccept+0x84>
   17bfc:	e51b3010 	ldr	r3, [fp, #-16]
   17c00:	e5d33000 	ldrb	r3, [r3]
   17c04:	e3530003 	cmp	r3, #3
   17c08:	0a000001 	beq	17c14 <OSSemAccept+0x3c>
   17c0c:	e3a03000 	mov	r3, #0
   17c10:	ea000011 	b	17c5c <OSSemAccept+0x84>
   17c14:	ebffeb64 	bl	129ac <OS_CPU_SR_Save>
   17c18:	e1a03000 	mov	r3, r0
   17c1c:	e50b3008 	str	r3, [fp, #-8]
   17c20:	e51b3010 	ldr	r3, [fp, #-16]
   17c24:	e1d330b2 	ldrh	r3, [r3, #2]
   17c28:	e14b30ba 	strh	r3, [fp, #-10]
   17c2c:	e15b30ba 	ldrh	r3, [fp, #-10]
   17c30:	e3530000 	cmp	r3, #0
   17c34:	0a000005 	beq	17c50 <OSSemAccept+0x78>
   17c38:	e51b3010 	ldr	r3, [fp, #-16]
   17c3c:	e1d330b2 	ldrh	r3, [r3, #2]
   17c40:	e2433001 	sub	r3, r3, #1
   17c44:	e6ff2073 	uxth	r2, r3
   17c48:	e51b3010 	ldr	r3, [fp, #-16]
   17c4c:	e1c320b2 	strh	r2, [r3, #2]
   17c50:	e51b0008 	ldr	r0, [fp, #-8]
   17c54:	ebffeb5c 	bl	129cc <OS_CPU_SR_Restore>
   17c58:	e15b30ba 	ldrh	r3, [fp, #-10]
   17c5c:	e1a00003 	mov	r0, r3
   17c60:	e24bd004 	sub	sp, fp, #4
   17c64:	e8bd8800 	pop	{fp, pc}

00017c68 <OSSemCreate>:
   17c68:	e92d4800 	push	{fp, lr}
   17c6c:	e28db004 	add	fp, sp, #4
   17c70:	e24dd010 	sub	sp, sp, #16
   17c74:	e1a03000 	mov	r3, r0
   17c78:	e14b30be 	strh	r3, [fp, #-14]
   17c7c:	e59f309c 	ldr	r3, [pc, #156]	; 17d20 <OSSemCreate+0xb8>
   17c80:	e5d33000 	ldrb	r3, [r3]
   17c84:	e3530000 	cmp	r3, #0
   17c88:	0a000001 	beq	17c94 <OSSemCreate+0x2c>
   17c8c:	e3a03000 	mov	r3, #0
   17c90:	ea00001f 	b	17d14 <OSSemCreate+0xac>
   17c94:	ebffeb44 	bl	129ac <OS_CPU_SR_Save>
   17c98:	e1a03000 	mov	r3, r0
   17c9c:	e50b3008 	str	r3, [fp, #-8]
   17ca0:	e59f307c 	ldr	r3, [pc, #124]	; 17d24 <OSSemCreate+0xbc>
   17ca4:	e5933000 	ldr	r3, [r3]
   17ca8:	e50b300c 	str	r3, [fp, #-12]
   17cac:	e59f3070 	ldr	r3, [pc, #112]	; 17d24 <OSSemCreate+0xbc>
   17cb0:	e5933000 	ldr	r3, [r3]
   17cb4:	e3530000 	cmp	r3, #0
   17cb8:	0a000004 	beq	17cd0 <OSSemCreate+0x68>
   17cbc:	e59f3060 	ldr	r3, [pc, #96]	; 17d24 <OSSemCreate+0xbc>
   17cc0:	e5933000 	ldr	r3, [r3]
   17cc4:	e5932004 	ldr	r2, [r3, #4]
   17cc8:	e59f3054 	ldr	r3, [pc, #84]	; 17d24 <OSSemCreate+0xbc>
   17ccc:	e5832000 	str	r2, [r3]
   17cd0:	e51b0008 	ldr	r0, [fp, #-8]
   17cd4:	ebffeb3c 	bl	129cc <OS_CPU_SR_Restore>
   17cd8:	e51b300c 	ldr	r3, [fp, #-12]
   17cdc:	e3530000 	cmp	r3, #0
   17ce0:	0a00000a 	beq	17d10 <OSSemCreate+0xa8>
   17ce4:	e51b300c 	ldr	r3, [fp, #-12]
   17ce8:	e3a02003 	mov	r2, #3
   17cec:	e5c32000 	strb	r2, [r3]
   17cf0:	e51b300c 	ldr	r3, [fp, #-12]
   17cf4:	e15b20be 	ldrh	r2, [fp, #-14]
   17cf8:	e1c320b2 	strh	r2, [r3, #2]
   17cfc:	e51b300c 	ldr	r3, [fp, #-12]
   17d00:	e3a02000 	mov	r2, #0
   17d04:	e5832004 	str	r2, [r3, #4]
   17d08:	e51b000c 	ldr	r0, [fp, #-12]
   17d0c:	ebffee9b 	bl	13780 <OS_EventWaitListInit>
   17d10:	e51b300c 	ldr	r3, [fp, #-12]
   17d14:	e1a00003 	mov	r0, r3
   17d18:	e24bd004 	sub	sp, fp, #4
   17d1c:	e8bd8800 	pop	{fp, pc}
   17d20:	0001bdd5 	ldrdeq	fp, [r1], -r5
   17d24:	0001bdd0 	ldrdeq	fp, [r1], -r0

00017d28 <OSSemDel>:
   17d28:	e92d4800 	push	{fp, lr}
   17d2c:	e28db004 	add	fp, sp, #4
   17d30:	e24dd018 	sub	sp, sp, #24
   17d34:	e50b0010 	str	r0, [fp, #-16]
   17d38:	e1a03001 	mov	r3, r1
   17d3c:	e50b2018 	str	r2, [fp, #-24]
   17d40:	e54b3011 	strb	r3, [fp, #-17]
   17d44:	e59f31b4 	ldr	r3, [pc, #436]	; 17f00 <OSSemDel+0x1d8>
   17d48:	e5d33000 	ldrb	r3, [r3]
   17d4c:	e3530000 	cmp	r3, #0
   17d50:	0a000004 	beq	17d68 <OSSemDel+0x40>
   17d54:	e51b3018 	ldr	r3, [fp, #-24]
   17d58:	e3e02073 	mvn	r2, #115	; 0x73
   17d5c:	e5c32000 	strb	r2, [r3]
   17d60:	e51b3010 	ldr	r3, [fp, #-16]
   17d64:	ea000062 	b	17ef4 <OSSemDel+0x1cc>
   17d68:	e51b3010 	ldr	r3, [fp, #-16]
   17d6c:	e3530000 	cmp	r3, #0
   17d70:	1a000004 	bne	17d88 <OSSemDel+0x60>
   17d74:	e51b3018 	ldr	r3, [fp, #-24]
   17d78:	e3a02004 	mov	r2, #4
   17d7c:	e5c32000 	strb	r2, [r3]
   17d80:	e51b3010 	ldr	r3, [fp, #-16]
   17d84:	ea00005a 	b	17ef4 <OSSemDel+0x1cc>
   17d88:	e51b3010 	ldr	r3, [fp, #-16]
   17d8c:	e5d33000 	ldrb	r3, [r3]
   17d90:	e3530003 	cmp	r3, #3
   17d94:	0a000004 	beq	17dac <OSSemDel+0x84>
   17d98:	e51b3018 	ldr	r3, [fp, #-24]
   17d9c:	e3a02001 	mov	r2, #1
   17da0:	e5c32000 	strb	r2, [r3]
   17da4:	e51b3010 	ldr	r3, [fp, #-16]
   17da8:	ea000051 	b	17ef4 <OSSemDel+0x1cc>
   17dac:	ebffeafe 	bl	129ac <OS_CPU_SR_Save>
   17db0:	e1a03000 	mov	r3, r0
   17db4:	e50b300c 	str	r3, [fp, #-12]
   17db8:	e51b3010 	ldr	r3, [fp, #-16]
   17dbc:	e5d33001 	ldrb	r3, [r3, #1]
   17dc0:	e3530000 	cmp	r3, #0
   17dc4:	0a000002 	beq	17dd4 <OSSemDel+0xac>
   17dc8:	e3a03001 	mov	r3, #1
   17dcc:	e54b3005 	strb	r3, [fp, #-5]
   17dd0:	ea000001 	b	17ddc <OSSemDel+0xb4>
   17dd4:	e3a03000 	mov	r3, #0
   17dd8:	e54b3005 	strb	r3, [fp, #-5]
   17ddc:	e55b3011 	ldrb	r3, [fp, #-17]
   17de0:	e3530000 	cmp	r3, #0
   17de4:	0a000002 	beq	17df4 <OSSemDel+0xcc>
   17de8:	e3530001 	cmp	r3, #1
   17dec:	0a000020 	beq	17e74 <OSSemDel+0x14c>
   17df0:	ea000039 	b	17edc <OSSemDel+0x1b4>
   17df4:	e55b3005 	ldrb	r3, [fp, #-5]
   17df8:	e3530000 	cmp	r3, #0
   17dfc:	1a000010 	bne	17e44 <OSSemDel+0x11c>
   17e00:	e51b3010 	ldr	r3, [fp, #-16]
   17e04:	e3a02000 	mov	r2, #0
   17e08:	e5c32000 	strb	r2, [r3]
   17e0c:	e59f30f0 	ldr	r3, [pc, #240]	; 17f04 <OSSemDel+0x1dc>
   17e10:	e5932000 	ldr	r2, [r3]
   17e14:	e51b3010 	ldr	r3, [fp, #-16]
   17e18:	e5832004 	str	r2, [r3, #4]
   17e1c:	e59f30e0 	ldr	r3, [pc, #224]	; 17f04 <OSSemDel+0x1dc>
   17e20:	e51b2010 	ldr	r2, [fp, #-16]
   17e24:	e5832000 	str	r2, [r3]
   17e28:	e51b000c 	ldr	r0, [fp, #-12]
   17e2c:	ebffeae6 	bl	129cc <OS_CPU_SR_Restore>
   17e30:	e51b3018 	ldr	r3, [fp, #-24]
   17e34:	e3a02000 	mov	r2, #0
   17e38:	e5c32000 	strb	r2, [r3]
   17e3c:	e3a03000 	mov	r3, #0
   17e40:	ea00002b 	b	17ef4 <OSSemDel+0x1cc>
   17e44:	e51b000c 	ldr	r0, [fp, #-12]
   17e48:	ebffeadf 	bl	129cc <OS_CPU_SR_Restore>
   17e4c:	e51b3018 	ldr	r3, [fp, #-24]
   17e50:	e3a02008 	mov	r2, #8
   17e54:	e5c32000 	strb	r2, [r3]
   17e58:	e51b3010 	ldr	r3, [fp, #-16]
   17e5c:	ea000024 	b	17ef4 <OSSemDel+0x1cc>
   17e60:	e51b0010 	ldr	r0, [fp, #-16]
   17e64:	e3a01000 	mov	r1, #0
   17e68:	e3a02001 	mov	r2, #1
   17e6c:	ebffed31 	bl	13338 <OS_EventTaskRdy>
   17e70:	ea000000 	b	17e78 <OSSemDel+0x150>
   17e74:	e1a00000 	nop			; (mov r0, r0)
   17e78:	e51b3010 	ldr	r3, [fp, #-16]
   17e7c:	e5d33001 	ldrb	r3, [r3, #1]
   17e80:	e3530000 	cmp	r3, #0
   17e84:	1afffff5 	bne	17e60 <OSSemDel+0x138>
   17e88:	e51b3010 	ldr	r3, [fp, #-16]
   17e8c:	e3a02000 	mov	r2, #0
   17e90:	e5c32000 	strb	r2, [r3]
   17e94:	e59f3068 	ldr	r3, [pc, #104]	; 17f04 <OSSemDel+0x1dc>
   17e98:	e5932000 	ldr	r2, [r3]
   17e9c:	e51b3010 	ldr	r3, [fp, #-16]
   17ea0:	e5832004 	str	r2, [r3, #4]
   17ea4:	e59f3058 	ldr	r3, [pc, #88]	; 17f04 <OSSemDel+0x1dc>
   17ea8:	e51b2010 	ldr	r2, [fp, #-16]
   17eac:	e5832000 	str	r2, [r3]
   17eb0:	e51b000c 	ldr	r0, [fp, #-12]
   17eb4:	ebffeac4 	bl	129cc <OS_CPU_SR_Restore>
   17eb8:	e55b3005 	ldrb	r3, [fp, #-5]
   17ebc:	e3530001 	cmp	r3, #1
   17ec0:	1a000000 	bne	17ec8 <OSSemDel+0x1a0>
   17ec4:	ebffef4a 	bl	13bf4 <OS_Sched>
   17ec8:	e51b3018 	ldr	r3, [fp, #-24]
   17ecc:	e3a02000 	mov	r2, #0
   17ed0:	e5c32000 	strb	r2, [r3]
   17ed4:	e3a03000 	mov	r3, #0
   17ed8:	ea000005 	b	17ef4 <OSSemDel+0x1cc>
   17edc:	e51b000c 	ldr	r0, [fp, #-12]
   17ee0:	ebffeab9 	bl	129cc <OS_CPU_SR_Restore>
   17ee4:	e51b3018 	ldr	r3, [fp, #-24]
   17ee8:	e3a02007 	mov	r2, #7
   17eec:	e5c32000 	strb	r2, [r3]
   17ef0:	e51b3010 	ldr	r3, [fp, #-16]
   17ef4:	e1a00003 	mov	r0, r3
   17ef8:	e24bd004 	sub	sp, fp, #4
   17efc:	e8bd8800 	pop	{fp, pc}
   17f00:	0001bdd5 	ldrdeq	fp, [r1], -r5
   17f04:	0001bdd0 	ldrdeq	fp, [r1], -r0

00017f08 <OSSemPend>:
   17f08:	e92d4800 	push	{fp, lr}
   17f0c:	e28db004 	add	fp, sp, #4
   17f10:	e24dd018 	sub	sp, sp, #24
   17f14:	e50b0010 	str	r0, [fp, #-16]
   17f18:	e1a03001 	mov	r3, r1
   17f1c:	e50b2018 	str	r2, [fp, #-24]
   17f20:	e14b31b2 	strh	r3, [fp, #-18]	; 0xffffffee
   17f24:	e59f3154 	ldr	r3, [pc, #340]	; 18080 <OSSemPend+0x178>
   17f28:	e5d33000 	ldrb	r3, [r3]
   17f2c:	e3530000 	cmp	r3, #0
   17f30:	0a000003 	beq	17f44 <OSSemPend+0x3c>
   17f34:	e51b3018 	ldr	r3, [fp, #-24]
   17f38:	e3a02002 	mov	r2, #2
   17f3c:	e5c32000 	strb	r2, [r3]
   17f40:	ea00004c 	b	18078 <OSSemPend+0x170>
   17f44:	e51b3010 	ldr	r3, [fp, #-16]
   17f48:	e3530000 	cmp	r3, #0
   17f4c:	1a000003 	bne	17f60 <OSSemPend+0x58>
   17f50:	e51b3018 	ldr	r3, [fp, #-24]
   17f54:	e3a02004 	mov	r2, #4
   17f58:	e5c32000 	strb	r2, [r3]
   17f5c:	ea000045 	b	18078 <OSSemPend+0x170>
   17f60:	e51b3010 	ldr	r3, [fp, #-16]
   17f64:	e5d33000 	ldrb	r3, [r3]
   17f68:	e3530003 	cmp	r3, #3
   17f6c:	0a000003 	beq	17f80 <OSSemPend+0x78>
   17f70:	e51b3018 	ldr	r3, [fp, #-24]
   17f74:	e3a02001 	mov	r2, #1
   17f78:	e5c32000 	strb	r2, [r3]
   17f7c:	ea00003d 	b	18078 <OSSemPend+0x170>
   17f80:	ebffea89 	bl	129ac <OS_CPU_SR_Save>
   17f84:	e1a03000 	mov	r3, r0
   17f88:	e50b3008 	str	r3, [fp, #-8]
   17f8c:	e51b3010 	ldr	r3, [fp, #-16]
   17f90:	e1d330b2 	ldrh	r3, [r3, #2]
   17f94:	e3530000 	cmp	r3, #0
   17f98:	0a00000b 	beq	17fcc <OSSemPend+0xc4>
   17f9c:	e51b3010 	ldr	r3, [fp, #-16]
   17fa0:	e1d330b2 	ldrh	r3, [r3, #2]
   17fa4:	e2433001 	sub	r3, r3, #1
   17fa8:	e6ff2073 	uxth	r2, r3
   17fac:	e51b3010 	ldr	r3, [fp, #-16]
   17fb0:	e1c320b2 	strh	r2, [r3, #2]
   17fb4:	e51b0008 	ldr	r0, [fp, #-8]
   17fb8:	ebffea83 	bl	129cc <OS_CPU_SR_Restore>
   17fbc:	e51b3018 	ldr	r3, [fp, #-24]
   17fc0:	e3a02000 	mov	r2, #0
   17fc4:	e5c32000 	strb	r2, [r3]
   17fc8:	ea00002a 	b	18078 <OSSemPend+0x170>
   17fcc:	e59f30b0 	ldr	r3, [pc, #176]	; 18084 <OSSemPend+0x17c>
   17fd0:	e5933000 	ldr	r3, [r3]
   17fd4:	e59f20a8 	ldr	r2, [pc, #168]	; 18084 <OSSemPend+0x17c>
   17fd8:	e5922000 	ldr	r2, [r2]
   17fdc:	e5d2202c 	ldrb	r2, [r2, #44]	; 0x2c
   17fe0:	e3822001 	orr	r2, r2, #1
   17fe4:	e6ef2072 	uxtb	r2, r2
   17fe8:	e5c3202c 	strb	r2, [r3, #44]	; 0x2c
   17fec:	e59f3090 	ldr	r3, [pc, #144]	; 18084 <OSSemPend+0x17c>
   17ff0:	e5933000 	ldr	r3, [r3]
   17ff4:	e15b21b2 	ldrh	r2, [fp, #-18]	; 0xffffffee
   17ff8:	e1c322ba 	strh	r2, [r3, #42]	; 0x2a
   17ffc:	e51b0010 	ldr	r0, [fp, #-16]
   18000:	ebffed4a 	bl	13530 <OS_EventTaskWait>
   18004:	e51b0008 	ldr	r0, [fp, #-8]
   18008:	ebffea6f 	bl	129cc <OS_CPU_SR_Restore>
   1800c:	ebffeef8 	bl	13bf4 <OS_Sched>
   18010:	ebffea65 	bl	129ac <OS_CPU_SR_Save>
   18014:	e1a03000 	mov	r3, r0
   18018:	e50b3008 	str	r3, [fp, #-8]
   1801c:	e59f3060 	ldr	r3, [pc, #96]	; 18084 <OSSemPend+0x17c>
   18020:	e5933000 	ldr	r3, [r3]
   18024:	e5d3302c 	ldrb	r3, [r3, #44]	; 0x2c
   18028:	e2033001 	and	r3, r3, #1
   1802c:	e3530000 	cmp	r3, #0
   18030:	0a000007 	beq	18054 <OSSemPend+0x14c>
   18034:	e51b0010 	ldr	r0, [fp, #-16]
   18038:	ebffed90 	bl	13680 <OS_EventTO>
   1803c:	e51b0008 	ldr	r0, [fp, #-8]
   18040:	ebffea61 	bl	129cc <OS_CPU_SR_Restore>
   18044:	e51b3018 	ldr	r3, [fp, #-24]
   18048:	e3a0200a 	mov	r2, #10
   1804c:	e5c32000 	strb	r2, [r3]
   18050:	ea000008 	b	18078 <OSSemPend+0x170>
   18054:	e59f3028 	ldr	r3, [pc, #40]	; 18084 <OSSemPend+0x17c>
   18058:	e5933000 	ldr	r3, [r3]
   1805c:	e3a02000 	mov	r2, #0
   18060:	e583201c 	str	r2, [r3, #28]
   18064:	e51b0008 	ldr	r0, [fp, #-8]
   18068:	ebffea57 	bl	129cc <OS_CPU_SR_Restore>
   1806c:	e51b3018 	ldr	r3, [fp, #-24]
   18070:	e3a02000 	mov	r2, #0
   18074:	e5c32000 	strb	r2, [r3]
   18078:	e24bd004 	sub	sp, fp, #4
   1807c:	e8bd8800 	pop	{fp, pc}
   18080:	0001bdd5 	ldrdeq	fp, [r1], -r5
   18084:	0001bdd8 	ldrdeq	fp, [r1], -r8

00018088 <OSSemPost>:
   18088:	e92d4800 	push	{fp, lr}
   1808c:	e28db004 	add	fp, sp, #4
   18090:	e24dd010 	sub	sp, sp, #16
   18094:	e50b0010 	str	r0, [fp, #-16]
   18098:	e51b3010 	ldr	r3, [fp, #-16]
   1809c:	e3530000 	cmp	r3, #0
   180a0:	1a000001 	bne	180ac <OSSemPost+0x24>
   180a4:	e3a03004 	mov	r3, #4
   180a8:	ea000027 	b	1814c <OSSemPost+0xc4>
   180ac:	e51b3010 	ldr	r3, [fp, #-16]
   180b0:	e5d33000 	ldrb	r3, [r3]
   180b4:	e3530003 	cmp	r3, #3
   180b8:	0a000001 	beq	180c4 <OSSemPost+0x3c>
   180bc:	e3a03001 	mov	r3, #1
   180c0:	ea000021 	b	1814c <OSSemPost+0xc4>
   180c4:	ebffea38 	bl	129ac <OS_CPU_SR_Save>
   180c8:	e1a03000 	mov	r3, r0
   180cc:	e50b3008 	str	r3, [fp, #-8]
   180d0:	e51b3010 	ldr	r3, [fp, #-16]
   180d4:	e5d33001 	ldrb	r3, [r3, #1]
   180d8:	e3530000 	cmp	r3, #0
   180dc:	0a000008 	beq	18104 <OSSemPost+0x7c>
   180e0:	e51b0010 	ldr	r0, [fp, #-16]
   180e4:	e3a01000 	mov	r1, #0
   180e8:	e3a02001 	mov	r2, #1
   180ec:	ebffec91 	bl	13338 <OS_EventTaskRdy>
   180f0:	e51b0008 	ldr	r0, [fp, #-8]
   180f4:	ebffea34 	bl	129cc <OS_CPU_SR_Restore>
   180f8:	ebffeebd 	bl	13bf4 <OS_Sched>
   180fc:	e3a03000 	mov	r3, #0
   18100:	ea000011 	b	1814c <OSSemPost+0xc4>
   18104:	e51b3010 	ldr	r3, [fp, #-16]
   18108:	e1d320b2 	ldrh	r2, [r3, #2]
   1810c:	e59f3044 	ldr	r3, [pc, #68]	; 18158 <OSSemPost+0xd0>
   18110:	e1520003 	cmp	r2, r3
   18114:	0a000009 	beq	18140 <OSSemPost+0xb8>
   18118:	e51b3010 	ldr	r3, [fp, #-16]
   1811c:	e1d330b2 	ldrh	r3, [r3, #2]
   18120:	e2833001 	add	r3, r3, #1
   18124:	e6ff2073 	uxth	r2, r3
   18128:	e51b3010 	ldr	r3, [fp, #-16]
   1812c:	e1c320b2 	strh	r2, [r3, #2]
   18130:	e51b0008 	ldr	r0, [fp, #-8]
   18134:	ebffea24 	bl	129cc <OS_CPU_SR_Restore>
   18138:	e3a03000 	mov	r3, #0
   1813c:	ea000002 	b	1814c <OSSemPost+0xc4>
   18140:	e51b0008 	ldr	r0, [fp, #-8]
   18144:	ebffea20 	bl	129cc <OS_CPU_SR_Restore>
   18148:	e3a03032 	mov	r3, #50	; 0x32
   1814c:	e1a00003 	mov	r0, r3
   18150:	e24bd004 	sub	sp, fp, #4
   18154:	e8bd8800 	pop	{fp, pc}
   18158:	0000ffff 	strdeq	pc, [r0], -pc	; <UNPREDICTABLE>

0001815c <OSSemQuery>:
   1815c:	e92d4800 	push	{fp, lr}
   18160:	e28db004 	add	fp, sp, #4
   18164:	e24dd018 	sub	sp, sp, #24
   18168:	e50b0018 	str	r0, [fp, #-24]
   1816c:	e50b101c 	str	r1, [fp, #-28]
   18170:	e51b3018 	ldr	r3, [fp, #-24]
   18174:	e3530000 	cmp	r3, #0
   18178:	1a000001 	bne	18184 <OSSemQuery+0x28>
   1817c:	e3a03004 	mov	r3, #4
   18180:	ea000055 	b	182dc <OSSemQuery+0x180>
   18184:	e51b3018 	ldr	r3, [fp, #-24]
   18188:	e5d33000 	ldrb	r3, [r3]
   1818c:	e3530003 	cmp	r3, #3
   18190:	0a000001 	beq	1819c <OSSemQuery+0x40>
   18194:	e3a03001 	mov	r3, #1
   18198:	ea00004f 	b	182dc <OSSemQuery+0x180>
   1819c:	ebffea02 	bl	129ac <OS_CPU_SR_Save>
   181a0:	e1a03000 	mov	r3, r0
   181a4:	e50b3008 	str	r3, [fp, #-8]
   181a8:	e51b3018 	ldr	r3, [fp, #-24]
   181ac:	e5d32001 	ldrb	r2, [r3, #1]
   181b0:	e51b301c 	ldr	r3, [fp, #-28]
   181b4:	e5c3200a 	strb	r2, [r3, #10]
   181b8:	e51b3018 	ldr	r3, [fp, #-24]
   181bc:	e2833008 	add	r3, r3, #8
   181c0:	e50b300c 	str	r3, [fp, #-12]
   181c4:	e51b301c 	ldr	r3, [fp, #-28]
   181c8:	e2833002 	add	r3, r3, #2
   181cc:	e50b3010 	str	r3, [fp, #-16]
   181d0:	e51b3010 	ldr	r3, [fp, #-16]
   181d4:	e2832001 	add	r2, r3, #1
   181d8:	e50b2010 	str	r2, [fp, #-16]
   181dc:	e51b200c 	ldr	r2, [fp, #-12]
   181e0:	e2821001 	add	r1, r2, #1
   181e4:	e50b100c 	str	r1, [fp, #-12]
   181e8:	e5d22000 	ldrb	r2, [r2]
   181ec:	e5c32000 	strb	r2, [r3]
   181f0:	e51b3010 	ldr	r3, [fp, #-16]
   181f4:	e2832001 	add	r2, r3, #1
   181f8:	e50b2010 	str	r2, [fp, #-16]
   181fc:	e51b200c 	ldr	r2, [fp, #-12]
   18200:	e2821001 	add	r1, r2, #1
   18204:	e50b100c 	str	r1, [fp, #-12]
   18208:	e5d22000 	ldrb	r2, [r2]
   1820c:	e5c32000 	strb	r2, [r3]
   18210:	e51b3010 	ldr	r3, [fp, #-16]
   18214:	e2832001 	add	r2, r3, #1
   18218:	e50b2010 	str	r2, [fp, #-16]
   1821c:	e51b200c 	ldr	r2, [fp, #-12]
   18220:	e2821001 	add	r1, r2, #1
   18224:	e50b100c 	str	r1, [fp, #-12]
   18228:	e5d22000 	ldrb	r2, [r2]
   1822c:	e5c32000 	strb	r2, [r3]
   18230:	e51b3010 	ldr	r3, [fp, #-16]
   18234:	e2832001 	add	r2, r3, #1
   18238:	e50b2010 	str	r2, [fp, #-16]
   1823c:	e51b200c 	ldr	r2, [fp, #-12]
   18240:	e2821001 	add	r1, r2, #1
   18244:	e50b100c 	str	r1, [fp, #-12]
   18248:	e5d22000 	ldrb	r2, [r2]
   1824c:	e5c32000 	strb	r2, [r3]
   18250:	e51b3010 	ldr	r3, [fp, #-16]
   18254:	e2832001 	add	r2, r3, #1
   18258:	e50b2010 	str	r2, [fp, #-16]
   1825c:	e51b200c 	ldr	r2, [fp, #-12]
   18260:	e2821001 	add	r1, r2, #1
   18264:	e50b100c 	str	r1, [fp, #-12]
   18268:	e5d22000 	ldrb	r2, [r2]
   1826c:	e5c32000 	strb	r2, [r3]
   18270:	e51b3010 	ldr	r3, [fp, #-16]
   18274:	e2832001 	add	r2, r3, #1
   18278:	e50b2010 	str	r2, [fp, #-16]
   1827c:	e51b200c 	ldr	r2, [fp, #-12]
   18280:	e2821001 	add	r1, r2, #1
   18284:	e50b100c 	str	r1, [fp, #-12]
   18288:	e5d22000 	ldrb	r2, [r2]
   1828c:	e5c32000 	strb	r2, [r3]
   18290:	e51b3010 	ldr	r3, [fp, #-16]
   18294:	e2832001 	add	r2, r3, #1
   18298:	e50b2010 	str	r2, [fp, #-16]
   1829c:	e51b200c 	ldr	r2, [fp, #-12]
   182a0:	e2821001 	add	r1, r2, #1
   182a4:	e50b100c 	str	r1, [fp, #-12]
   182a8:	e5d22000 	ldrb	r2, [r2]
   182ac:	e5c32000 	strb	r2, [r3]
   182b0:	e51b300c 	ldr	r3, [fp, #-12]
   182b4:	e5d32000 	ldrb	r2, [r3]
   182b8:	e51b3010 	ldr	r3, [fp, #-16]
   182bc:	e5c32000 	strb	r2, [r3]
   182c0:	e51b3018 	ldr	r3, [fp, #-24]
   182c4:	e1d320b2 	ldrh	r2, [r3, #2]
   182c8:	e51b301c 	ldr	r3, [fp, #-28]
   182cc:	e1c320b0 	strh	r2, [r3]
   182d0:	e51b0008 	ldr	r0, [fp, #-8]
   182d4:	ebffe9bc 	bl	129cc <OS_CPU_SR_Restore>
   182d8:	e3a03000 	mov	r3, #0
   182dc:	e1a00003 	mov	r0, r3
   182e0:	e24bd004 	sub	sp, fp, #4
   182e4:	e8bd8800 	pop	{fp, pc}

000182e8 <OSTaskChangePrio>:
   182e8:	e92d4800 	push	{fp, lr}
   182ec:	e28db004 	add	fp, sp, #4
   182f0:	e24dd018 	sub	sp, sp, #24
   182f4:	e1a02000 	mov	r2, r0
   182f8:	e1a03001 	mov	r3, r1
   182fc:	e54b2015 	strb	r2, [fp, #-21]
   18300:	e54b3016 	strb	r3, [fp, #-22]
   18304:	e55b3015 	ldrb	r3, [fp, #-21]
   18308:	e353003e 	cmp	r3, #62	; 0x3e
   1830c:	9a000002 	bls	1831c <OSTaskChangePrio+0x34>
   18310:	e55b3015 	ldrb	r3, [fp, #-21]
   18314:	e35300ff 	cmp	r3, #255	; 0xff
   18318:	1a000002 	bne	18328 <OSTaskChangePrio+0x40>
   1831c:	e55b3016 	ldrb	r3, [fp, #-22]
   18320:	e353003e 	cmp	r3, #62	; 0x3e
   18324:	9a000001 	bls	18330 <OSTaskChangePrio+0x48>
   18328:	e3a0302a 	mov	r3, #42	; 0x2a
   1832c:	ea0000d8 	b	18694 <OSTaskChangePrio+0x3ac>
   18330:	ebffe99d 	bl	129ac <OS_CPU_SR_Save>
   18334:	e1a03000 	mov	r3, r0
   18338:	e50b3008 	str	r3, [fp, #-8]
   1833c:	e55b2016 	ldrb	r2, [fp, #-22]
   18340:	e59f3358 	ldr	r3, [pc, #856]	; 186a0 <OSTaskChangePrio+0x3b8>
   18344:	e7933102 	ldr	r3, [r3, r2, lsl #2]
   18348:	e3530000 	cmp	r3, #0
   1834c:	0a000003 	beq	18360 <OSTaskChangePrio+0x78>
   18350:	e51b0008 	ldr	r0, [fp, #-8]
   18354:	ebffe99c 	bl	129cc <OS_CPU_SR_Restore>
   18358:	e3a03028 	mov	r3, #40	; 0x28
   1835c:	ea0000cc 	b	18694 <OSTaskChangePrio+0x3ac>
   18360:	e55b2016 	ldrb	r2, [fp, #-22]
   18364:	e59f3334 	ldr	r3, [pc, #820]	; 186a0 <OSTaskChangePrio+0x3b8>
   18368:	e3a01001 	mov	r1, #1
   1836c:	e7831102 	str	r1, [r3, r2, lsl #2]
   18370:	e51b0008 	ldr	r0, [fp, #-8]
   18374:	ebffe994 	bl	129cc <OS_CPU_SR_Restore>
   18378:	e55b3016 	ldrb	r3, [fp, #-22]
   1837c:	e1a031a3 	lsr	r3, r3, #3
   18380:	e54b3009 	strb	r3, [fp, #-9]
   18384:	e55b3009 	ldrb	r3, [fp, #-9]
   18388:	e59f2314 	ldr	r2, [pc, #788]	; 186a4 <OSTaskChangePrio+0x3bc>
   1838c:	e7d23003 	ldrb	r3, [r2, r3]
   18390:	e54b300a 	strb	r3, [fp, #-10]
   18394:	e55b3016 	ldrb	r3, [fp, #-22]
   18398:	e2033007 	and	r3, r3, #7
   1839c:	e54b300b 	strb	r3, [fp, #-11]
   183a0:	e55b300b 	ldrb	r3, [fp, #-11]
   183a4:	e59f22f8 	ldr	r2, [pc, #760]	; 186a4 <OSTaskChangePrio+0x3bc>
   183a8:	e7d23003 	ldrb	r3, [r2, r3]
   183ac:	e54b300c 	strb	r3, [fp, #-12]
   183b0:	ebffe97d 	bl	129ac <OS_CPU_SR_Save>
   183b4:	e1a03000 	mov	r3, r0
   183b8:	e50b3008 	str	r3, [fp, #-8]
   183bc:	e55b3015 	ldrb	r3, [fp, #-21]
   183c0:	e35300ff 	cmp	r3, #255	; 0xff
   183c4:	1a000003 	bne	183d8 <OSTaskChangePrio+0xf0>
   183c8:	e59f32d8 	ldr	r3, [pc, #728]	; 186a8 <OSTaskChangePrio+0x3c0>
   183cc:	e5933000 	ldr	r3, [r3]
   183d0:	e5d3302d 	ldrb	r3, [r3, #45]	; 0x2d
   183d4:	e54b3015 	strb	r3, [fp, #-21]
   183d8:	e55b2015 	ldrb	r2, [fp, #-21]
   183dc:	e59f32bc 	ldr	r3, [pc, #700]	; 186a0 <OSTaskChangePrio+0x3b8>
   183e0:	e7933102 	ldr	r3, [r3, r2, lsl #2]
   183e4:	e50b3010 	str	r3, [fp, #-16]
   183e8:	e51b3010 	ldr	r3, [fp, #-16]
   183ec:	e3530000 	cmp	r3, #0
   183f0:	0a0000a0 	beq	18678 <OSTaskChangePrio+0x390>
   183f4:	e55b2015 	ldrb	r2, [fp, #-21]
   183f8:	e59f32a0 	ldr	r3, [pc, #672]	; 186a0 <OSTaskChangePrio+0x3b8>
   183fc:	e3a01000 	mov	r1, #0
   18400:	e7831102 	str	r1, [r3, r2, lsl #2]
   18404:	e51b3010 	ldr	r3, [fp, #-16]
   18408:	e5d3302f 	ldrb	r3, [r3, #47]	; 0x2f
   1840c:	e59f2298 	ldr	r2, [pc, #664]	; 186ac <OSTaskChangePrio+0x3c4>
   18410:	e7d22003 	ldrb	r2, [r2, r3]
   18414:	e51b3010 	ldr	r3, [fp, #-16]
   18418:	e5d33030 	ldrb	r3, [r3, #48]	; 0x30
   1841c:	e0023003 	and	r3, r2, r3
   18420:	e6ef3073 	uxtb	r3, r3
   18424:	e3530000 	cmp	r3, #0
   18428:	0a000032 	beq	184f8 <OSTaskChangePrio+0x210>
   1842c:	e51b3010 	ldr	r3, [fp, #-16]
   18430:	e5d3302f 	ldrb	r3, [r3, #47]	; 0x2f
   18434:	e51b2010 	ldr	r2, [fp, #-16]
   18438:	e5d2202f 	ldrb	r2, [r2, #47]	; 0x2f
   1843c:	e59f1268 	ldr	r1, [pc, #616]	; 186ac <OSTaskChangePrio+0x3c4>
   18440:	e7d12002 	ldrb	r2, [r1, r2]
   18444:	e6ef1072 	uxtb	r1, r2
   18448:	e51b2010 	ldr	r2, [fp, #-16]
   1844c:	e5d22030 	ldrb	r2, [r2, #48]	; 0x30
   18450:	e6ef2072 	uxtb	r2, r2
   18454:	e1e02002 	mvn	r2, r2
   18458:	e6ef2072 	uxtb	r2, r2
   1845c:	e0012002 	and	r2, r1, r2
   18460:	e6ef2072 	uxtb	r2, r2
   18464:	e6ef1072 	uxtb	r1, r2
   18468:	e59f223c 	ldr	r2, [pc, #572]	; 186ac <OSTaskChangePrio+0x3c4>
   1846c:	e7c21003 	strb	r1, [r2, r3]
   18470:	e59f2234 	ldr	r2, [pc, #564]	; 186ac <OSTaskChangePrio+0x3c4>
   18474:	e7d23003 	ldrb	r3, [r2, r3]
   18478:	e3530000 	cmp	r3, #0
   1847c:	1a00000c 	bne	184b4 <OSTaskChangePrio+0x1cc>
   18480:	e51b3010 	ldr	r3, [fp, #-16]
   18484:	e5d33031 	ldrb	r3, [r3, #49]	; 0x31
   18488:	e6ef3073 	uxtb	r3, r3
   1848c:	e1e03003 	mvn	r3, r3
   18490:	e6ef2073 	uxtb	r2, r3
   18494:	e59f3214 	ldr	r3, [pc, #532]	; 186b0 <OSTaskChangePrio+0x3c8>
   18498:	e5d33000 	ldrb	r3, [r3]
   1849c:	e6ef3073 	uxtb	r3, r3
   184a0:	e0023003 	and	r3, r2, r3
   184a4:	e6ef3073 	uxtb	r3, r3
   184a8:	e6ef2073 	uxtb	r2, r3
   184ac:	e59f31fc 	ldr	r3, [pc, #508]	; 186b0 <OSTaskChangePrio+0x3c8>
   184b0:	e5c32000 	strb	r2, [r3]
   184b4:	e59f31f4 	ldr	r3, [pc, #500]	; 186b0 <OSTaskChangePrio+0x3c8>
   184b8:	e5d32000 	ldrb	r2, [r3]
   184bc:	e55b300a 	ldrb	r3, [fp, #-10]
   184c0:	e1823003 	orr	r3, r2, r3
   184c4:	e6ef2073 	uxtb	r2, r3
   184c8:	e59f31e0 	ldr	r3, [pc, #480]	; 186b0 <OSTaskChangePrio+0x3c8>
   184cc:	e5c32000 	strb	r2, [r3]
   184d0:	e55b3009 	ldrb	r3, [fp, #-9]
   184d4:	e55b2009 	ldrb	r2, [fp, #-9]
   184d8:	e59f11cc 	ldr	r1, [pc, #460]	; 186ac <OSTaskChangePrio+0x3c4>
   184dc:	e7d11002 	ldrb	r1, [r1, r2]
   184e0:	e55b200c 	ldrb	r2, [fp, #-12]
   184e4:	e1812002 	orr	r2, r1, r2
   184e8:	e6ef1072 	uxtb	r1, r2
   184ec:	e59f21b8 	ldr	r2, [pc, #440]	; 186ac <OSTaskChangePrio+0x3c4>
   184f0:	e7c21003 	strb	r1, [r2, r3]
   184f4:	ea000047 	b	18618 <OSTaskChangePrio+0x330>
   184f8:	e51b3010 	ldr	r3, [fp, #-16]
   184fc:	e593301c 	ldr	r3, [r3, #28]
   18500:	e50b3014 	str	r3, [fp, #-20]
   18504:	e51b3014 	ldr	r3, [fp, #-20]
   18508:	e3530000 	cmp	r3, #0
   1850c:	0a000041 	beq	18618 <OSTaskChangePrio+0x330>
   18510:	e51b3010 	ldr	r3, [fp, #-16]
   18514:	e5d3302f 	ldrb	r3, [r3, #47]	; 0x2f
   18518:	e51b2010 	ldr	r2, [fp, #-16]
   1851c:	e5d2202f 	ldrb	r2, [r2, #47]	; 0x2f
   18520:	e1a01002 	mov	r1, r2
   18524:	e51b0014 	ldr	r0, [fp, #-20]
   18528:	e3a02008 	mov	r2, #8
   1852c:	e0801001 	add	r1, r0, r1
   18530:	e0812002 	add	r2, r1, r2
   18534:	e5d22000 	ldrb	r2, [r2]
   18538:	e6ef1072 	uxtb	r1, r2
   1853c:	e51b2010 	ldr	r2, [fp, #-16]
   18540:	e5d22030 	ldrb	r2, [r2, #48]	; 0x30
   18544:	e6ef2072 	uxtb	r2, r2
   18548:	e1e02002 	mvn	r2, r2
   1854c:	e6ef2072 	uxtb	r2, r2
   18550:	e0012002 	and	r2, r1, r2
   18554:	e6ef2072 	uxtb	r2, r2
   18558:	e6ef1072 	uxtb	r1, r2
   1855c:	e51b0014 	ldr	r0, [fp, #-20]
   18560:	e3a02008 	mov	r2, #8
   18564:	e0800003 	add	r0, r0, r3
   18568:	e0802002 	add	r2, r0, r2
   1856c:	e5c21000 	strb	r1, [r2]
   18570:	e51b1014 	ldr	r1, [fp, #-20]
   18574:	e3a02008 	mov	r2, #8
   18578:	e0813003 	add	r3, r1, r3
   1857c:	e0833002 	add	r3, r3, r2
   18580:	e5d33000 	ldrb	r3, [r3]
   18584:	e3530000 	cmp	r3, #0
   18588:	1a00000c 	bne	185c0 <OSTaskChangePrio+0x2d8>
   1858c:	e51b3014 	ldr	r3, [fp, #-20]
   18590:	e5d33001 	ldrb	r3, [r3, #1]
   18594:	e6ef2073 	uxtb	r2, r3
   18598:	e51b3010 	ldr	r3, [fp, #-16]
   1859c:	e5d33031 	ldrb	r3, [r3, #49]	; 0x31
   185a0:	e6ef3073 	uxtb	r3, r3
   185a4:	e1e03003 	mvn	r3, r3
   185a8:	e6ef3073 	uxtb	r3, r3
   185ac:	e0023003 	and	r3, r2, r3
   185b0:	e6ef3073 	uxtb	r3, r3
   185b4:	e6ef2073 	uxtb	r2, r3
   185b8:	e51b3014 	ldr	r3, [fp, #-20]
   185bc:	e5c32001 	strb	r2, [r3, #1]
   185c0:	e51b3014 	ldr	r3, [fp, #-20]
   185c4:	e5d32001 	ldrb	r2, [r3, #1]
   185c8:	e55b300a 	ldrb	r3, [fp, #-10]
   185cc:	e1823003 	orr	r3, r2, r3
   185d0:	e6ef2073 	uxtb	r2, r3
   185d4:	e51b3014 	ldr	r3, [fp, #-20]
   185d8:	e5c32001 	strb	r2, [r3, #1]
   185dc:	e55b1009 	ldrb	r1, [fp, #-9]
   185e0:	e55b2009 	ldrb	r2, [fp, #-9]
   185e4:	e51b0014 	ldr	r0, [fp, #-20]
   185e8:	e3a03008 	mov	r3, #8
   185ec:	e0802002 	add	r2, r0, r2
   185f0:	e0823003 	add	r3, r2, r3
   185f4:	e5d32000 	ldrb	r2, [r3]
   185f8:	e55b300c 	ldrb	r3, [fp, #-12]
   185fc:	e1823003 	orr	r3, r2, r3
   18600:	e6ef2073 	uxtb	r2, r3
   18604:	e51b0014 	ldr	r0, [fp, #-20]
   18608:	e3a03008 	mov	r3, #8
   1860c:	e0801001 	add	r1, r0, r1
   18610:	e0813003 	add	r3, r1, r3
   18614:	e5c32000 	strb	r2, [r3]
   18618:	e55b2016 	ldrb	r2, [fp, #-22]
   1861c:	e59f307c 	ldr	r3, [pc, #124]	; 186a0 <OSTaskChangePrio+0x3b8>
   18620:	e51b1010 	ldr	r1, [fp, #-16]
   18624:	e7831102 	str	r1, [r3, r2, lsl #2]
   18628:	e51b3010 	ldr	r3, [fp, #-16]
   1862c:	e55b2016 	ldrb	r2, [fp, #-22]
   18630:	e5c3202d 	strb	r2, [r3, #45]	; 0x2d
   18634:	e51b3010 	ldr	r3, [fp, #-16]
   18638:	e55b2009 	ldrb	r2, [fp, #-9]
   1863c:	e5c3202f 	strb	r2, [r3, #47]	; 0x2f
   18640:	e51b3010 	ldr	r3, [fp, #-16]
   18644:	e55b200b 	ldrb	r2, [fp, #-11]
   18648:	e5c3202e 	strb	r2, [r3, #46]	; 0x2e
   1864c:	e51b3010 	ldr	r3, [fp, #-16]
   18650:	e55b200a 	ldrb	r2, [fp, #-10]
   18654:	e5c32031 	strb	r2, [r3, #49]	; 0x31
   18658:	e51b3010 	ldr	r3, [fp, #-16]
   1865c:	e55b200c 	ldrb	r2, [fp, #-12]
   18660:	e5c32030 	strb	r2, [r3, #48]	; 0x30
   18664:	e51b0008 	ldr	r0, [fp, #-8]
   18668:	ebffe8d7 	bl	129cc <OS_CPU_SR_Restore>
   1866c:	ebffed60 	bl	13bf4 <OS_Sched>
   18670:	e3a03000 	mov	r3, #0
   18674:	ea000006 	b	18694 <OSTaskChangePrio+0x3ac>
   18678:	e55b2016 	ldrb	r2, [fp, #-22]
   1867c:	e59f301c 	ldr	r3, [pc, #28]	; 186a0 <OSTaskChangePrio+0x3b8>
   18680:	e3a01000 	mov	r1, #0
   18684:	e7831102 	str	r1, [r3, r2, lsl #2]
   18688:	e51b0008 	ldr	r0, [fp, #-8]
   1868c:	ebffe8ce 	bl	129cc <OS_CPU_SR_Restore>
   18690:	e3a03029 	mov	r3, #41	; 0x29
   18694:	e1a00003 	mov	r0, r3
   18698:	e24bd004 	sub	sp, fp, #4
   1869c:	e8bd8800 	pop	{fp, pc}
   186a0:	0001ca4c 	andeq	ip, r1, ip, asr #20
   186a4:	00019ea4 	andeq	r9, r1, r4, lsr #29
   186a8:	0001bdd8 	ldrdeq	fp, [r1], -r8
   186ac:	0001bdc8 	andeq	fp, r1, r8, asr #27
   186b0:	0001bdc4 	andeq	fp, r1, r4, asr #27

000186b4 <OSTaskCreate>:
   186b4:	e92d4800 	push	{fp, lr}
   186b8:	e28db004 	add	fp, sp, #4
   186bc:	e24dd030 	sub	sp, sp, #48	; 0x30
   186c0:	e50b0018 	str	r0, [fp, #-24]
   186c4:	e50b101c 	str	r1, [fp, #-28]
   186c8:	e50b2020 	str	r2, [fp, #-32]
   186cc:	e54b3021 	strb	r3, [fp, #-33]	; 0x21
   186d0:	e55b3021 	ldrb	r3, [fp, #-33]	; 0x21
   186d4:	e353003f 	cmp	r3, #63	; 0x3f
   186d8:	9a000001 	bls	186e4 <OSTaskCreate+0x30>
   186dc:	e3a0302a 	mov	r3, #42	; 0x2a
   186e0:	ea000043 	b	187f4 <OSTaskCreate+0x140>
   186e4:	ebffe8b0 	bl	129ac <OS_CPU_SR_Save>
   186e8:	e1a03000 	mov	r3, r0
   186ec:	e50b3008 	str	r3, [fp, #-8]
   186f0:	e55b2021 	ldrb	r2, [fp, #-33]	; 0x21
   186f4:	e59f3104 	ldr	r3, [pc, #260]	; 18800 <OSTaskCreate+0x14c>
   186f8:	e7933102 	ldr	r3, [r3, r2, lsl #2]
   186fc:	e3530000 	cmp	r3, #0
   18700:	1a000038 	bne	187e8 <OSTaskCreate+0x134>
   18704:	e55b2021 	ldrb	r2, [fp, #-33]	; 0x21
   18708:	e59f30f0 	ldr	r3, [pc, #240]	; 18800 <OSTaskCreate+0x14c>
   1870c:	e3a01001 	mov	r1, #1
   18710:	e7831102 	str	r1, [r3, r2, lsl #2]
   18714:	e51b0008 	ldr	r0, [fp, #-8]
   18718:	ebffe8ab 	bl	129cc <OS_CPU_SR_Restore>
   1871c:	e51b0018 	ldr	r0, [fp, #-24]
   18720:	e51b101c 	ldr	r1, [fp, #-28]
   18724:	e51b2020 	ldr	r2, [fp, #-32]
   18728:	e3a03000 	mov	r3, #0
   1872c:	ebffe8e7 	bl	12ad0 <OSTaskStkInit>
   18730:	e50b000c 	str	r0, [fp, #-12]
   18734:	e55b3021 	ldrb	r3, [fp, #-33]	; 0x21
   18738:	e3a02000 	mov	r2, #0
   1873c:	e58d2000 	str	r2, [sp]
   18740:	e3a02000 	mov	r2, #0
   18744:	e58d2004 	str	r2, [sp, #4]
   18748:	e3a02000 	mov	r2, #0
   1874c:	e58d2008 	str	r2, [sp, #8]
   18750:	e1a00003 	mov	r0, r3
   18754:	e51b100c 	ldr	r1, [fp, #-12]
   18758:	e3a02000 	mov	r2, #0
   1875c:	e3a03000 	mov	r3, #0
   18760:	ebffedbd 	bl	13e5c <OS_TCBInit>
   18764:	e1a03000 	mov	r3, r0
   18768:	e54b300d 	strb	r3, [fp, #-13]
   1876c:	e55b300d 	ldrb	r3, [fp, #-13]
   18770:	e3530000 	cmp	r3, #0
   18774:	1a000010 	bne	187bc <OSTaskCreate+0x108>
   18778:	ebffe88b 	bl	129ac <OS_CPU_SR_Save>
   1877c:	e1a03000 	mov	r3, r0
   18780:	e50b3008 	str	r3, [fp, #-8]
   18784:	e59f3078 	ldr	r3, [pc, #120]	; 18804 <OSTaskCreate+0x150>
   18788:	e5d33000 	ldrb	r3, [r3]
   1878c:	e2833001 	add	r3, r3, #1
   18790:	e6ef2073 	uxtb	r2, r3
   18794:	e59f3068 	ldr	r3, [pc, #104]	; 18804 <OSTaskCreate+0x150>
   18798:	e5c32000 	strb	r2, [r3]
   1879c:	e51b0008 	ldr	r0, [fp, #-8]
   187a0:	ebffe889 	bl	129cc <OS_CPU_SR_Restore>
   187a4:	e59f305c 	ldr	r3, [pc, #92]	; 18808 <OSTaskCreate+0x154>
   187a8:	e5d33000 	ldrb	r3, [r3]
   187ac:	e3530001 	cmp	r3, #1
   187b0:	1a00000a 	bne	187e0 <OSTaskCreate+0x12c>
   187b4:	ebffed0e 	bl	13bf4 <OS_Sched>
   187b8:	ea000008 	b	187e0 <OSTaskCreate+0x12c>
   187bc:	ebffe87a 	bl	129ac <OS_CPU_SR_Save>
   187c0:	e1a03000 	mov	r3, r0
   187c4:	e50b3008 	str	r3, [fp, #-8]
   187c8:	e55b2021 	ldrb	r2, [fp, #-33]	; 0x21
   187cc:	e59f302c 	ldr	r3, [pc, #44]	; 18800 <OSTaskCreate+0x14c>
   187d0:	e3a01000 	mov	r1, #0
   187d4:	e7831102 	str	r1, [r3, r2, lsl #2]
   187d8:	e51b0008 	ldr	r0, [fp, #-8]
   187dc:	ebffe87a 	bl	129cc <OS_CPU_SR_Restore>
   187e0:	e55b300d 	ldrb	r3, [fp, #-13]
   187e4:	ea000002 	b	187f4 <OSTaskCreate+0x140>
   187e8:	e51b0008 	ldr	r0, [fp, #-8]
   187ec:	ebffe876 	bl	129cc <OS_CPU_SR_Restore>
   187f0:	e3a03028 	mov	r3, #40	; 0x28
   187f4:	e1a00003 	mov	r0, r3
   187f8:	e24bd004 	sub	sp, fp, #4
   187fc:	e8bd8800 	pop	{fp, pc}
   18800:	0001ca4c 	andeq	ip, r1, ip, asr #20
   18804:	0001bd3d 	andeq	fp, r1, sp, lsr sp
   18808:	0001b47d 	andeq	fp, r1, sp, ror r4

0001880c <OSTaskCreateExt>:
   1880c:	e92d4800 	push	{fp, lr}
   18810:	e28db004 	add	fp, sp, #4
   18814:	e24dd030 	sub	sp, sp, #48	; 0x30
   18818:	e50b0018 	str	r0, [fp, #-24]
   1881c:	e50b101c 	str	r1, [fp, #-28]
   18820:	e50b2020 	str	r2, [fp, #-32]
   18824:	e54b3021 	strb	r3, [fp, #-33]	; 0x21
   18828:	e55b3021 	ldrb	r3, [fp, #-33]	; 0x21
   1882c:	e353003f 	cmp	r3, #63	; 0x3f
   18830:	9a000001 	bls	1883c <OSTaskCreateExt+0x30>
   18834:	e3a0302a 	mov	r3, #42	; 0x2a
   18838:	ea000051 	b	18984 <OSTaskCreateExt+0x178>
   1883c:	ebffe85a 	bl	129ac <OS_CPU_SR_Save>
   18840:	e1a03000 	mov	r3, r0
   18844:	e50b3008 	str	r3, [fp, #-8]
   18848:	e55b2021 	ldrb	r2, [fp, #-33]	; 0x21
   1884c:	e59f313c 	ldr	r3, [pc, #316]	; 18990 <OSTaskCreateExt+0x184>
   18850:	e7933102 	ldr	r3, [r3, r2, lsl #2]
   18854:	e3530000 	cmp	r3, #0
   18858:	1a000046 	bne	18978 <OSTaskCreateExt+0x16c>
   1885c:	e55b2021 	ldrb	r2, [fp, #-33]	; 0x21
   18860:	e59f3128 	ldr	r3, [pc, #296]	; 18990 <OSTaskCreateExt+0x184>
   18864:	e3a01001 	mov	r1, #1
   18868:	e7831102 	str	r1, [r3, r2, lsl #2]
   1886c:	e51b0008 	ldr	r0, [fp, #-8]
   18870:	ebffe855 	bl	129cc <OS_CPU_SR_Restore>
   18874:	e1db31b4 	ldrh	r3, [fp, #20]
   18878:	e2033001 	and	r3, r3, #1
   1887c:	e3530000 	cmp	r3, #0
   18880:	1a000003 	bne	18894 <OSTaskCreateExt+0x88>
   18884:	e1db31b4 	ldrh	r3, [fp, #20]
   18888:	e2033002 	and	r3, r3, #2
   1888c:	e3530000 	cmp	r3, #0
   18890:	0a000005 	beq	188ac <OSTaskCreateExt+0xa0>
   18894:	e59b300c 	ldr	r3, [fp, #12]
   18898:	e1a03103 	lsl	r3, r3, #2
   1889c:	e59b0008 	ldr	r0, [fp, #8]
   188a0:	e3a01000 	mov	r1, #0
   188a4:	e1a02003 	mov	r2, r3
   188a8:	eb000429 	bl	19954 <memset>
   188ac:	e1db31b4 	ldrh	r3, [fp, #20]
   188b0:	e51b0018 	ldr	r0, [fp, #-24]
   188b4:	e51b101c 	ldr	r1, [fp, #-28]
   188b8:	e51b2020 	ldr	r2, [fp, #-32]
   188bc:	ebffe883 	bl	12ad0 <OSTaskStkInit>
   188c0:	e50b000c 	str	r0, [fp, #-12]
   188c4:	e55b2021 	ldrb	r2, [fp, #-33]	; 0x21
   188c8:	e1db30b4 	ldrh	r3, [fp, #4]
   188cc:	e59b100c 	ldr	r1, [fp, #12]
   188d0:	e58d1000 	str	r1, [sp]
   188d4:	e59b1010 	ldr	r1, [fp, #16]
   188d8:	e58d1004 	str	r1, [sp, #4]
   188dc:	e1db11b4 	ldrh	r1, [fp, #20]
   188e0:	e58d1008 	str	r1, [sp, #8]
   188e4:	e1a00002 	mov	r0, r2
   188e8:	e51b100c 	ldr	r1, [fp, #-12]
   188ec:	e59b2008 	ldr	r2, [fp, #8]
   188f0:	ebffed59 	bl	13e5c <OS_TCBInit>
   188f4:	e1a03000 	mov	r3, r0
   188f8:	e54b300d 	strb	r3, [fp, #-13]
   188fc:	e55b300d 	ldrb	r3, [fp, #-13]
   18900:	e3530000 	cmp	r3, #0
   18904:	1a000010 	bne	1894c <OSTaskCreateExt+0x140>
   18908:	ebffe827 	bl	129ac <OS_CPU_SR_Save>
   1890c:	e1a03000 	mov	r3, r0
   18910:	e50b3008 	str	r3, [fp, #-8]
   18914:	e59f3078 	ldr	r3, [pc, #120]	; 18994 <OSTaskCreateExt+0x188>
   18918:	e5d33000 	ldrb	r3, [r3]
   1891c:	e2833001 	add	r3, r3, #1
   18920:	e6ef2073 	uxtb	r2, r3
   18924:	e59f3068 	ldr	r3, [pc, #104]	; 18994 <OSTaskCreateExt+0x188>
   18928:	e5c32000 	strb	r2, [r3]
   1892c:	e51b0008 	ldr	r0, [fp, #-8]
   18930:	ebffe825 	bl	129cc <OS_CPU_SR_Restore>
   18934:	e59f305c 	ldr	r3, [pc, #92]	; 18998 <OSTaskCreateExt+0x18c>
   18938:	e5d33000 	ldrb	r3, [r3]
   1893c:	e3530001 	cmp	r3, #1
   18940:	1a00000a 	bne	18970 <OSTaskCreateExt+0x164>
   18944:	ebffecaa 	bl	13bf4 <OS_Sched>
   18948:	ea000008 	b	18970 <OSTaskCreateExt+0x164>
   1894c:	ebffe816 	bl	129ac <OS_CPU_SR_Save>
   18950:	e1a03000 	mov	r3, r0
   18954:	e50b3008 	str	r3, [fp, #-8]
   18958:	e55b2021 	ldrb	r2, [fp, #-33]	; 0x21
   1895c:	e59f302c 	ldr	r3, [pc, #44]	; 18990 <OSTaskCreateExt+0x184>
   18960:	e3a01000 	mov	r1, #0
   18964:	e7831102 	str	r1, [r3, r2, lsl #2]
   18968:	e51b0008 	ldr	r0, [fp, #-8]
   1896c:	ebffe816 	bl	129cc <OS_CPU_SR_Restore>
   18970:	e55b300d 	ldrb	r3, [fp, #-13]
   18974:	ea000002 	b	18984 <OSTaskCreateExt+0x178>
   18978:	e51b0008 	ldr	r0, [fp, #-8]
   1897c:	ebffe812 	bl	129cc <OS_CPU_SR_Restore>
   18980:	e3a03028 	mov	r3, #40	; 0x28
   18984:	e1a00003 	mov	r0, r3
   18988:	e24bd004 	sub	sp, fp, #4
   1898c:	e8bd8800 	pop	{fp, pc}
   18990:	0001ca4c 	andeq	ip, r1, ip, asr #20
   18994:	0001bd3d 	andeq	fp, r1, sp, lsr sp
   18998:	0001b47d 	andeq	fp, r1, sp, ror r4

0001899c <OSTaskDel>:
   1899c:	e92d4800 	push	{fp, lr}
   189a0:	e28db004 	add	fp, sp, #4
   189a4:	e24dd018 	sub	sp, sp, #24
   189a8:	e1a03000 	mov	r3, r0
   189ac:	e54b3015 	strb	r3, [fp, #-21]
   189b0:	e59f334c 	ldr	r3, [pc, #844]	; 18d04 <OSTaskDel+0x368>
   189b4:	e5d33000 	ldrb	r3, [r3]
   189b8:	e3530000 	cmp	r3, #0
   189bc:	0a000001 	beq	189c8 <OSTaskDel+0x2c>
   189c0:	e3a0303f 	mov	r3, #63	; 0x3f
   189c4:	ea0000cb 	b	18cf8 <OSTaskDel+0x35c>
   189c8:	e55b3015 	ldrb	r3, [fp, #-21]
   189cc:	e353003f 	cmp	r3, #63	; 0x3f
   189d0:	1a000001 	bne	189dc <OSTaskDel+0x40>
   189d4:	e3a0303d 	mov	r3, #61	; 0x3d
   189d8:	ea0000c6 	b	18cf8 <OSTaskDel+0x35c>
   189dc:	e55b3015 	ldrb	r3, [fp, #-21]
   189e0:	e353003e 	cmp	r3, #62	; 0x3e
   189e4:	9a000004 	bls	189fc <OSTaskDel+0x60>
   189e8:	e55b3015 	ldrb	r3, [fp, #-21]
   189ec:	e35300ff 	cmp	r3, #255	; 0xff
   189f0:	0a000001 	beq	189fc <OSTaskDel+0x60>
   189f4:	e3a0302a 	mov	r3, #42	; 0x2a
   189f8:	ea0000be 	b	18cf8 <OSTaskDel+0x35c>
   189fc:	ebffe7ea 	bl	129ac <OS_CPU_SR_Save>
   18a00:	e1a03000 	mov	r3, r0
   18a04:	e50b3008 	str	r3, [fp, #-8]
   18a08:	e55b3015 	ldrb	r3, [fp, #-21]
   18a0c:	e35300ff 	cmp	r3, #255	; 0xff
   18a10:	1a000003 	bne	18a24 <OSTaskDel+0x88>
   18a14:	e59f32ec 	ldr	r3, [pc, #748]	; 18d08 <OSTaskDel+0x36c>
   18a18:	e5933000 	ldr	r3, [r3]
   18a1c:	e5d3302d 	ldrb	r3, [r3, #45]	; 0x2d
   18a20:	e54b3015 	strb	r3, [fp, #-21]
   18a24:	e55b2015 	ldrb	r2, [fp, #-21]
   18a28:	e59f32dc 	ldr	r3, [pc, #732]	; 18d0c <OSTaskDel+0x370>
   18a2c:	e7933102 	ldr	r3, [r3, r2, lsl #2]
   18a30:	e50b300c 	str	r3, [fp, #-12]
   18a34:	e51b300c 	ldr	r3, [fp, #-12]
   18a38:	e3530000 	cmp	r3, #0
   18a3c:	0a0000aa 	beq	18cec <OSTaskDel+0x350>
   18a40:	e51b300c 	ldr	r3, [fp, #-12]
   18a44:	e5d3302f 	ldrb	r3, [r3, #47]	; 0x2f
   18a48:	e51b200c 	ldr	r2, [fp, #-12]
   18a4c:	e5d2202f 	ldrb	r2, [r2, #47]	; 0x2f
   18a50:	e59f12b8 	ldr	r1, [pc, #696]	; 18d10 <OSTaskDel+0x374>
   18a54:	e7d12002 	ldrb	r2, [r1, r2]
   18a58:	e6ef1072 	uxtb	r1, r2
   18a5c:	e51b200c 	ldr	r2, [fp, #-12]
   18a60:	e5d22030 	ldrb	r2, [r2, #48]	; 0x30
   18a64:	e6ef2072 	uxtb	r2, r2
   18a68:	e1e02002 	mvn	r2, r2
   18a6c:	e6ef2072 	uxtb	r2, r2
   18a70:	e0012002 	and	r2, r1, r2
   18a74:	e6ef2072 	uxtb	r2, r2
   18a78:	e6ef1072 	uxtb	r1, r2
   18a7c:	e59f228c 	ldr	r2, [pc, #652]	; 18d10 <OSTaskDel+0x374>
   18a80:	e7c21003 	strb	r1, [r2, r3]
   18a84:	e59f2284 	ldr	r2, [pc, #644]	; 18d10 <OSTaskDel+0x374>
   18a88:	e7d23003 	ldrb	r3, [r2, r3]
   18a8c:	e3530000 	cmp	r3, #0
   18a90:	1a00000c 	bne	18ac8 <OSTaskDel+0x12c>
   18a94:	e51b300c 	ldr	r3, [fp, #-12]
   18a98:	e5d33031 	ldrb	r3, [r3, #49]	; 0x31
   18a9c:	e6ef3073 	uxtb	r3, r3
   18aa0:	e1e03003 	mvn	r3, r3
   18aa4:	e6ef2073 	uxtb	r2, r3
   18aa8:	e59f3264 	ldr	r3, [pc, #612]	; 18d14 <OSTaskDel+0x378>
   18aac:	e5d33000 	ldrb	r3, [r3]
   18ab0:	e6ef3073 	uxtb	r3, r3
   18ab4:	e0023003 	and	r3, r2, r3
   18ab8:	e6ef3073 	uxtb	r3, r3
   18abc:	e6ef2073 	uxtb	r2, r3
   18ac0:	e59f324c 	ldr	r3, [pc, #588]	; 18d14 <OSTaskDel+0x378>
   18ac4:	e5c32000 	strb	r2, [r3]
   18ac8:	e51b300c 	ldr	r3, [fp, #-12]
   18acc:	e593301c 	ldr	r3, [r3, #28]
   18ad0:	e50b3010 	str	r3, [fp, #-16]
   18ad4:	e51b3010 	ldr	r3, [fp, #-16]
   18ad8:	e3530000 	cmp	r3, #0
   18adc:	0a00002b 	beq	18b90 <OSTaskDel+0x1f4>
   18ae0:	e51b300c 	ldr	r3, [fp, #-12]
   18ae4:	e5d3302f 	ldrb	r3, [r3, #47]	; 0x2f
   18ae8:	e51b200c 	ldr	r2, [fp, #-12]
   18aec:	e5d2202f 	ldrb	r2, [r2, #47]	; 0x2f
   18af0:	e1a01002 	mov	r1, r2
   18af4:	e51b0010 	ldr	r0, [fp, #-16]
   18af8:	e3a02008 	mov	r2, #8
   18afc:	e0801001 	add	r1, r0, r1
   18b00:	e0812002 	add	r2, r1, r2
   18b04:	e5d22000 	ldrb	r2, [r2]
   18b08:	e6ef1072 	uxtb	r1, r2
   18b0c:	e51b200c 	ldr	r2, [fp, #-12]
   18b10:	e5d22030 	ldrb	r2, [r2, #48]	; 0x30
   18b14:	e6ef2072 	uxtb	r2, r2
   18b18:	e1e02002 	mvn	r2, r2
   18b1c:	e6ef2072 	uxtb	r2, r2
   18b20:	e0012002 	and	r2, r1, r2
   18b24:	e6ef2072 	uxtb	r2, r2
   18b28:	e6ef1072 	uxtb	r1, r2
   18b2c:	e51b0010 	ldr	r0, [fp, #-16]
   18b30:	e3a02008 	mov	r2, #8
   18b34:	e0800003 	add	r0, r0, r3
   18b38:	e0802002 	add	r2, r0, r2
   18b3c:	e5c21000 	strb	r1, [r2]
   18b40:	e51b1010 	ldr	r1, [fp, #-16]
   18b44:	e3a02008 	mov	r2, #8
   18b48:	e0813003 	add	r3, r1, r3
   18b4c:	e0833002 	add	r3, r3, r2
   18b50:	e5d33000 	ldrb	r3, [r3]
   18b54:	e3530000 	cmp	r3, #0
   18b58:	1a00000c 	bne	18b90 <OSTaskDel+0x1f4>
   18b5c:	e51b3010 	ldr	r3, [fp, #-16]
   18b60:	e5d33001 	ldrb	r3, [r3, #1]
   18b64:	e6ef2073 	uxtb	r2, r3
   18b68:	e51b300c 	ldr	r3, [fp, #-12]
   18b6c:	e5d33031 	ldrb	r3, [r3, #49]	; 0x31
   18b70:	e6ef3073 	uxtb	r3, r3
   18b74:	e1e03003 	mvn	r3, r3
   18b78:	e6ef3073 	uxtb	r3, r3
   18b7c:	e0023003 	and	r3, r2, r3
   18b80:	e6ef3073 	uxtb	r3, r3
   18b84:	e6ef2073 	uxtb	r2, r3
   18b88:	e51b3010 	ldr	r3, [fp, #-16]
   18b8c:	e5c32001 	strb	r2, [r3, #1]
   18b90:	e51b300c 	ldr	r3, [fp, #-12]
   18b94:	e5933024 	ldr	r3, [r3, #36]	; 0x24
   18b98:	e50b3014 	str	r3, [fp, #-20]
   18b9c:	e51b3014 	ldr	r3, [fp, #-20]
   18ba0:	e3530000 	cmp	r3, #0
   18ba4:	0a000001 	beq	18bb0 <OSTaskDel+0x214>
   18ba8:	e51b0014 	ldr	r0, [fp, #-20]
   18bac:	ebfff197 	bl	15210 <OS_FlagUnlink>
   18bb0:	e51b300c 	ldr	r3, [fp, #-12]
   18bb4:	e3a02000 	mov	r2, #0
   18bb8:	e1c322ba 	strh	r2, [r3, #42]	; 0x2a
   18bbc:	e51b300c 	ldr	r3, [fp, #-12]
   18bc0:	e3a02000 	mov	r2, #0
   18bc4:	e5c3202c 	strb	r2, [r3, #44]	; 0x2c
   18bc8:	e59f3148 	ldr	r3, [pc, #328]	; 18d18 <OSTaskDel+0x37c>
   18bcc:	e5d33000 	ldrb	r3, [r3]
   18bd0:	e35300ff 	cmp	r3, #255	; 0xff
   18bd4:	0a000005 	beq	18bf0 <OSTaskDel+0x254>
   18bd8:	e59f3138 	ldr	r3, [pc, #312]	; 18d18 <OSTaskDel+0x37c>
   18bdc:	e5d33000 	ldrb	r3, [r3]
   18be0:	e2833001 	add	r3, r3, #1
   18be4:	e6ef2073 	uxtb	r2, r3
   18be8:	e59f3128 	ldr	r3, [pc, #296]	; 18d18 <OSTaskDel+0x37c>
   18bec:	e5c32000 	strb	r2, [r3]
   18bf0:	e51b0008 	ldr	r0, [fp, #-8]
   18bf4:	ebffe774 	bl	129cc <OS_CPU_SR_Restore>
   18bf8:	ebffe9c9 	bl	13324 <OS_Dummy>
   18bfc:	ebffe76a 	bl	129ac <OS_CPU_SR_Save>
   18c00:	e1a03000 	mov	r3, r0
   18c04:	e50b3008 	str	r3, [fp, #-8]
   18c08:	e59f3108 	ldr	r3, [pc, #264]	; 18d18 <OSTaskDel+0x37c>
   18c0c:	e5d33000 	ldrb	r3, [r3]
   18c10:	e3530000 	cmp	r3, #0
   18c14:	0a000005 	beq	18c30 <OSTaskDel+0x294>
   18c18:	e59f30f8 	ldr	r3, [pc, #248]	; 18d18 <OSTaskDel+0x37c>
   18c1c:	e5d33000 	ldrb	r3, [r3]
   18c20:	e2433001 	sub	r3, r3, #1
   18c24:	e6ef2073 	uxtb	r2, r3
   18c28:	e59f30e8 	ldr	r3, [pc, #232]	; 18d18 <OSTaskDel+0x37c>
   18c2c:	e5c32000 	strb	r2, [r3]
   18c30:	e51b000c 	ldr	r0, [fp, #-12]
   18c34:	ebffe824 	bl	12ccc <OSTaskDelHook>
   18c38:	e59f30dc 	ldr	r3, [pc, #220]	; 18d1c <OSTaskDel+0x380>
   18c3c:	e5d33000 	ldrb	r3, [r3]
   18c40:	e2433001 	sub	r3, r3, #1
   18c44:	e6ef2073 	uxtb	r2, r3
   18c48:	e59f30cc 	ldr	r3, [pc, #204]	; 18d1c <OSTaskDel+0x380>
   18c4c:	e5c32000 	strb	r2, [r3]
   18c50:	e55b2015 	ldrb	r2, [fp, #-21]
   18c54:	e59f30b0 	ldr	r3, [pc, #176]	; 18d0c <OSTaskDel+0x370>
   18c58:	e3a01000 	mov	r1, #0
   18c5c:	e7831102 	str	r1, [r3, r2, lsl #2]
   18c60:	e51b300c 	ldr	r3, [fp, #-12]
   18c64:	e5933018 	ldr	r3, [r3, #24]
   18c68:	e3530000 	cmp	r3, #0
   18c6c:	1a000008 	bne	18c94 <OSTaskDel+0x2f8>
   18c70:	e51b300c 	ldr	r3, [fp, #-12]
   18c74:	e5933014 	ldr	r3, [r3, #20]
   18c78:	e3a02000 	mov	r2, #0
   18c7c:	e5832018 	str	r2, [r3, #24]
   18c80:	e51b300c 	ldr	r3, [fp, #-12]
   18c84:	e5932014 	ldr	r2, [r3, #20]
   18c88:	e59f3090 	ldr	r3, [pc, #144]	; 18d20 <OSTaskDel+0x384>
   18c8c:	e5832000 	str	r2, [r3]
   18c90:	ea000009 	b	18cbc <OSTaskDel+0x320>
   18c94:	e51b300c 	ldr	r3, [fp, #-12]
   18c98:	e5933018 	ldr	r3, [r3, #24]
   18c9c:	e51b200c 	ldr	r2, [fp, #-12]
   18ca0:	e5922014 	ldr	r2, [r2, #20]
   18ca4:	e5832014 	str	r2, [r3, #20]
   18ca8:	e51b300c 	ldr	r3, [fp, #-12]
   18cac:	e5933014 	ldr	r3, [r3, #20]
   18cb0:	e51b200c 	ldr	r2, [fp, #-12]
   18cb4:	e5922018 	ldr	r2, [r2, #24]
   18cb8:	e5832018 	str	r2, [r3, #24]
   18cbc:	e59f3060 	ldr	r3, [pc, #96]	; 18d24 <OSTaskDel+0x388>
   18cc0:	e5932000 	ldr	r2, [r3]
   18cc4:	e51b300c 	ldr	r3, [fp, #-12]
   18cc8:	e5832014 	str	r2, [r3, #20]
   18ccc:	e59f3050 	ldr	r3, [pc, #80]	; 18d24 <OSTaskDel+0x388>
   18cd0:	e51b200c 	ldr	r2, [fp, #-12]
   18cd4:	e5832000 	str	r2, [r3]
   18cd8:	e51b0008 	ldr	r0, [fp, #-8]
   18cdc:	ebffe73a 	bl	129cc <OS_CPU_SR_Restore>
   18ce0:	ebffebc3 	bl	13bf4 <OS_Sched>
   18ce4:	e3a03000 	mov	r3, #0
   18ce8:	ea000002 	b	18cf8 <OSTaskDel+0x35c>
   18cec:	e51b0008 	ldr	r0, [fp, #-8]
   18cf0:	ebffe735 	bl	129cc <OS_CPU_SR_Restore>
   18cf4:	e3a0303c 	mov	r3, #60	; 0x3c
   18cf8:	e1a00003 	mov	r0, r3
   18cfc:	e24bd004 	sub	sp, fp, #4
   18d00:	e8bd8800 	pop	{fp, pc}
   18d04:	0001bdd5 	ldrdeq	fp, [r1], -r5
   18d08:	0001bdd8 	ldrdeq	fp, [r1], -r8
   18d0c:	0001ca4c 	andeq	ip, r1, ip, asr #20
   18d10:	0001bdc8 	andeq	fp, r1, r8, asr #27
   18d14:	0001bdc4 	andeq	fp, r1, r4, asr #27
   18d18:	0001b47c 	andeq	fp, r1, ip, ror r4
   18d1c:	0001bd3d 	andeq	fp, r1, sp, lsr sp
   18d20:	0001b4c8 	andeq	fp, r1, r8, asr #9
   18d24:	0001bd38 	andeq	fp, r1, r8, lsr sp

00018d28 <OSTaskDelReq>:
   18d28:	e92d4800 	push	{fp, lr}
   18d2c:	e28db004 	add	fp, sp, #4
   18d30:	e24dd018 	sub	sp, sp, #24
   18d34:	e1a03000 	mov	r3, r0
   18d38:	e54b3015 	strb	r3, [fp, #-21]
   18d3c:	e55b3015 	ldrb	r3, [fp, #-21]
   18d40:	e353003f 	cmp	r3, #63	; 0x3f
   18d44:	1a000001 	bne	18d50 <OSTaskDelReq+0x28>
   18d48:	e3a0303d 	mov	r3, #61	; 0x3d
   18d4c:	ea00002a 	b	18dfc <OSTaskDelReq+0xd4>
   18d50:	e55b3015 	ldrb	r3, [fp, #-21]
   18d54:	e353003e 	cmp	r3, #62	; 0x3e
   18d58:	9a000004 	bls	18d70 <OSTaskDelReq+0x48>
   18d5c:	e55b3015 	ldrb	r3, [fp, #-21]
   18d60:	e35300ff 	cmp	r3, #255	; 0xff
   18d64:	0a000001 	beq	18d70 <OSTaskDelReq+0x48>
   18d68:	e3a0302a 	mov	r3, #42	; 0x2a
   18d6c:	ea000022 	b	18dfc <OSTaskDelReq+0xd4>
   18d70:	e55b3015 	ldrb	r3, [fp, #-21]
   18d74:	e35300ff 	cmp	r3, #255	; 0xff
   18d78:	1a00000a 	bne	18da8 <OSTaskDelReq+0x80>
   18d7c:	ebffe70a 	bl	129ac <OS_CPU_SR_Save>
   18d80:	e1a03000 	mov	r3, r0
   18d84:	e50b300c 	str	r3, [fp, #-12]
   18d88:	e59f3078 	ldr	r3, [pc, #120]	; 18e08 <OSTaskDelReq+0xe0>
   18d8c:	e5933000 	ldr	r3, [r3]
   18d90:	e5d33032 	ldrb	r3, [r3, #50]	; 0x32
   18d94:	e54b300d 	strb	r3, [fp, #-13]
   18d98:	e51b000c 	ldr	r0, [fp, #-12]
   18d9c:	ebffe70a 	bl	129cc <OS_CPU_SR_Restore>
   18da0:	e55b300d 	ldrb	r3, [fp, #-13]
   18da4:	ea000014 	b	18dfc <OSTaskDelReq+0xd4>
   18da8:	ebffe6ff 	bl	129ac <OS_CPU_SR_Save>
   18dac:	e1a03000 	mov	r3, r0
   18db0:	e50b300c 	str	r3, [fp, #-12]
   18db4:	e55b2015 	ldrb	r2, [fp, #-21]
   18db8:	e59f304c 	ldr	r3, [pc, #76]	; 18e0c <OSTaskDelReq+0xe4>
   18dbc:	e7933102 	ldr	r3, [r3, r2, lsl #2]
   18dc0:	e50b3014 	str	r3, [fp, #-20]
   18dc4:	e51b3014 	ldr	r3, [fp, #-20]
   18dc8:	e3530000 	cmp	r3, #0
   18dcc:	0a000005 	beq	18de8 <OSTaskDelReq+0xc0>
   18dd0:	e51b3014 	ldr	r3, [fp, #-20]
   18dd4:	e3a0203e 	mov	r2, #62	; 0x3e
   18dd8:	e5c32032 	strb	r2, [r3, #50]	; 0x32
   18ddc:	e3a03000 	mov	r3, #0
   18de0:	e54b3005 	strb	r3, [fp, #-5]
   18de4:	ea000001 	b	18df0 <OSTaskDelReq+0xc8>
   18de8:	e3a0300b 	mov	r3, #11
   18dec:	e54b3005 	strb	r3, [fp, #-5]
   18df0:	e51b000c 	ldr	r0, [fp, #-12]
   18df4:	ebffe6f4 	bl	129cc <OS_CPU_SR_Restore>
   18df8:	e55b3005 	ldrb	r3, [fp, #-5]
   18dfc:	e1a00003 	mov	r0, r3
   18e00:	e24bd004 	sub	sp, fp, #4
   18e04:	e8bd8800 	pop	{fp, pc}
   18e08:	0001bdd8 	ldrdeq	fp, [r1], -r8
   18e0c:	0001ca4c 	andeq	ip, r1, ip, asr #20

00018e10 <OSTaskResume>:
   18e10:	e92d4800 	push	{fp, lr}
   18e14:	e28db004 	add	fp, sp, #4
   18e18:	e24dd010 	sub	sp, sp, #16
   18e1c:	e1a03000 	mov	r3, r0
   18e20:	e54b300d 	strb	r3, [fp, #-13]
   18e24:	e55b300d 	ldrb	r3, [fp, #-13]
   18e28:	e353003e 	cmp	r3, #62	; 0x3e
   18e2c:	9a000001 	bls	18e38 <OSTaskResume+0x28>
   18e30:	e3a0302a 	mov	r3, #42	; 0x2a
   18e34:	ea00003f 	b	18f38 <OSTaskResume+0x128>
   18e38:	ebffe6db 	bl	129ac <OS_CPU_SR_Save>
   18e3c:	e1a03000 	mov	r3, r0
   18e40:	e50b3008 	str	r3, [fp, #-8]
   18e44:	e55b200d 	ldrb	r2, [fp, #-13]
   18e48:	e59f30f4 	ldr	r3, [pc, #244]	; 18f44 <OSTaskResume+0x134>
   18e4c:	e7933102 	ldr	r3, [r3, r2, lsl #2]
   18e50:	e50b300c 	str	r3, [fp, #-12]
   18e54:	e51b300c 	ldr	r3, [fp, #-12]
   18e58:	e3530000 	cmp	r3, #0
   18e5c:	1a000003 	bne	18e70 <OSTaskResume+0x60>
   18e60:	e51b0008 	ldr	r0, [fp, #-8]
   18e64:	ebffe6d8 	bl	129cc <OS_CPU_SR_Restore>
   18e68:	e3a03064 	mov	r3, #100	; 0x64
   18e6c:	ea000031 	b	18f38 <OSTaskResume+0x128>
   18e70:	e51b300c 	ldr	r3, [fp, #-12]
   18e74:	e5d3302c 	ldrb	r3, [r3, #44]	; 0x2c
   18e78:	e2033008 	and	r3, r3, #8
   18e7c:	e3530000 	cmp	r3, #0
   18e80:	0a000029 	beq	18f2c <OSTaskResume+0x11c>
   18e84:	e51b300c 	ldr	r3, [fp, #-12]
   18e88:	e5d3302c 	ldrb	r3, [r3, #44]	; 0x2c
   18e8c:	e3c33008 	bic	r3, r3, #8
   18e90:	e6ef2073 	uxtb	r2, r3
   18e94:	e51b300c 	ldr	r3, [fp, #-12]
   18e98:	e5c3202c 	strb	r2, [r3, #44]	; 0x2c
   18e9c:	e51b300c 	ldr	r3, [fp, #-12]
   18ea0:	e5d3302c 	ldrb	r3, [r3, #44]	; 0x2c
   18ea4:	e3530000 	cmp	r3, #0
   18ea8:	1a00001b 	bne	18f1c <OSTaskResume+0x10c>
   18eac:	e51b300c 	ldr	r3, [fp, #-12]
   18eb0:	e1d332ba 	ldrh	r3, [r3, #42]	; 0x2a
   18eb4:	e3530000 	cmp	r3, #0
   18eb8:	1a000017 	bne	18f1c <OSTaskResume+0x10c>
   18ebc:	e51b300c 	ldr	r3, [fp, #-12]
   18ec0:	e5d32031 	ldrb	r2, [r3, #49]	; 0x31
   18ec4:	e59f307c 	ldr	r3, [pc, #124]	; 18f48 <OSTaskResume+0x138>
   18ec8:	e5d33000 	ldrb	r3, [r3]
   18ecc:	e1823003 	orr	r3, r2, r3
   18ed0:	e6ef2073 	uxtb	r2, r3
   18ed4:	e59f306c 	ldr	r3, [pc, #108]	; 18f48 <OSTaskResume+0x138>
   18ed8:	e5c32000 	strb	r2, [r3]
   18edc:	e51b300c 	ldr	r3, [fp, #-12]
   18ee0:	e5d3302f 	ldrb	r3, [r3, #47]	; 0x2f
   18ee4:	e51b200c 	ldr	r2, [fp, #-12]
   18ee8:	e5d2202f 	ldrb	r2, [r2, #47]	; 0x2f
   18eec:	e59f1058 	ldr	r1, [pc, #88]	; 18f4c <OSTaskResume+0x13c>
   18ef0:	e7d11002 	ldrb	r1, [r1, r2]
   18ef4:	e51b200c 	ldr	r2, [fp, #-12]
   18ef8:	e5d22030 	ldrb	r2, [r2, #48]	; 0x30
   18efc:	e1812002 	orr	r2, r1, r2
   18f00:	e6ef1072 	uxtb	r1, r2
   18f04:	e59f2040 	ldr	r2, [pc, #64]	; 18f4c <OSTaskResume+0x13c>
   18f08:	e7c21003 	strb	r1, [r2, r3]
   18f0c:	e51b0008 	ldr	r0, [fp, #-8]
   18f10:	ebffe6ad 	bl	129cc <OS_CPU_SR_Restore>
   18f14:	ebffeb36 	bl	13bf4 <OS_Sched>
   18f18:	ea000001 	b	18f24 <OSTaskResume+0x114>
   18f1c:	e51b0008 	ldr	r0, [fp, #-8]
   18f20:	ebffe6a9 	bl	129cc <OS_CPU_SR_Restore>
   18f24:	e3a03000 	mov	r3, #0
   18f28:	ea000002 	b	18f38 <OSTaskResume+0x128>
   18f2c:	e51b0008 	ldr	r0, [fp, #-8]
   18f30:	ebffe6a5 	bl	129cc <OS_CPU_SR_Restore>
   18f34:	e3a03065 	mov	r3, #101	; 0x65
   18f38:	e1a00003 	mov	r0, r3
   18f3c:	e24bd004 	sub	sp, fp, #4
   18f40:	e8bd8800 	pop	{fp, pc}
   18f44:	0001ca4c 	andeq	ip, r1, ip, asr #20
   18f48:	0001bdc4 	andeq	fp, r1, r4, asr #27
   18f4c:	0001bdc8 	andeq	fp, r1, r8, asr #27

00018f50 <OSTaskStkChk>:
   18f50:	e92d4800 	push	{fp, lr}
   18f54:	e28db004 	add	fp, sp, #4
   18f58:	e24dd020 	sub	sp, sp, #32
   18f5c:	e1a03000 	mov	r3, r0
   18f60:	e50b1024 	str	r1, [fp, #-36]	; 0x24
   18f64:	e54b301d 	strb	r3, [fp, #-29]
   18f68:	e55b301d 	ldrb	r3, [fp, #-29]
   18f6c:	e353003f 	cmp	r3, #63	; 0x3f
   18f70:	9a000004 	bls	18f88 <OSTaskStkChk+0x38>
   18f74:	e55b301d 	ldrb	r3, [fp, #-29]
   18f78:	e35300ff 	cmp	r3, #255	; 0xff
   18f7c:	0a000001 	beq	18f88 <OSTaskStkChk+0x38>
   18f80:	e3a0302a 	mov	r3, #42	; 0x2a
   18f84:	ea000042 	b	19094 <OSTaskStkChk+0x144>
   18f88:	e51b3024 	ldr	r3, [fp, #-36]	; 0x24
   18f8c:	e3a02000 	mov	r2, #0
   18f90:	e5832000 	str	r2, [r3]
   18f94:	e51b3024 	ldr	r3, [fp, #-36]	; 0x24
   18f98:	e3a02000 	mov	r2, #0
   18f9c:	e5832004 	str	r2, [r3, #4]
   18fa0:	ebffe681 	bl	129ac <OS_CPU_SR_Save>
   18fa4:	e1a03000 	mov	r3, r0
   18fa8:	e50b3010 	str	r3, [fp, #-16]
   18fac:	e55b301d 	ldrb	r3, [fp, #-29]
   18fb0:	e35300ff 	cmp	r3, #255	; 0xff
   18fb4:	1a000003 	bne	18fc8 <OSTaskStkChk+0x78>
   18fb8:	e59f30e0 	ldr	r3, [pc, #224]	; 190a0 <OSTaskStkChk+0x150>
   18fbc:	e5933000 	ldr	r3, [r3]
   18fc0:	e5d3302d 	ldrb	r3, [r3, #45]	; 0x2d
   18fc4:	e54b301d 	strb	r3, [fp, #-29]
   18fc8:	e55b201d 	ldrb	r2, [fp, #-29]
   18fcc:	e59f30d0 	ldr	r3, [pc, #208]	; 190a4 <OSTaskStkChk+0x154>
   18fd0:	e7933102 	ldr	r3, [r3, r2, lsl #2]
   18fd4:	e50b3014 	str	r3, [fp, #-20]
   18fd8:	e51b3014 	ldr	r3, [fp, #-20]
   18fdc:	e3530000 	cmp	r3, #0
   18fe0:	1a000003 	bne	18ff4 <OSTaskStkChk+0xa4>
   18fe4:	e51b0010 	ldr	r0, [fp, #-16]
   18fe8:	ebffe677 	bl	129cc <OS_CPU_SR_Restore>
   18fec:	e3a0300b 	mov	r3, #11
   18ff0:	ea000027 	b	19094 <OSTaskStkChk+0x144>
   18ff4:	e51b3014 	ldr	r3, [fp, #-20]
   18ff8:	e1d331b0 	ldrh	r3, [r3, #16]
   18ffc:	e2033001 	and	r3, r3, #1
   19000:	e3530000 	cmp	r3, #0
   19004:	1a000003 	bne	19018 <OSTaskStkChk+0xc8>
   19008:	e51b0010 	ldr	r0, [fp, #-16]
   1900c:	ebffe66e 	bl	129cc <OS_CPU_SR_Restore>
   19010:	e3a03082 	mov	r3, #130	; 0x82
   19014:	ea00001e 	b	19094 <OSTaskStkChk+0x144>
   19018:	e3a03000 	mov	r3, #0
   1901c:	e50b300c 	str	r3, [fp, #-12]
   19020:	e51b3014 	ldr	r3, [fp, #-20]
   19024:	e593300c 	ldr	r3, [r3, #12]
   19028:	e50b3018 	str	r3, [fp, #-24]
   1902c:	e51b3014 	ldr	r3, [fp, #-20]
   19030:	e5933008 	ldr	r3, [r3, #8]
   19034:	e50b3008 	str	r3, [fp, #-8]
   19038:	e51b0010 	ldr	r0, [fp, #-16]
   1903c:	ebffe662 	bl	129cc <OS_CPU_SR_Restore>
   19040:	ea000002 	b	19050 <OSTaskStkChk+0x100>
   19044:	e51b300c 	ldr	r3, [fp, #-12]
   19048:	e2833001 	add	r3, r3, #1
   1904c:	e50b300c 	str	r3, [fp, #-12]
   19050:	e51b3008 	ldr	r3, [fp, #-8]
   19054:	e2832004 	add	r2, r3, #4
   19058:	e50b2008 	str	r2, [fp, #-8]
   1905c:	e5933000 	ldr	r3, [r3]
   19060:	e3530000 	cmp	r3, #0
   19064:	0afffff6 	beq	19044 <OSTaskStkChk+0xf4>
   19068:	e51b300c 	ldr	r3, [fp, #-12]
   1906c:	e1a02103 	lsl	r2, r3, #2
   19070:	e51b3024 	ldr	r3, [fp, #-36]	; 0x24
   19074:	e5832000 	str	r2, [r3]
   19078:	e51b2018 	ldr	r2, [fp, #-24]
   1907c:	e51b300c 	ldr	r3, [fp, #-12]
   19080:	e0633002 	rsb	r3, r3, r2
   19084:	e1a02103 	lsl	r2, r3, #2
   19088:	e51b3024 	ldr	r3, [fp, #-36]	; 0x24
   1908c:	e5832004 	str	r2, [r3, #4]
   19090:	e3a03000 	mov	r3, #0
   19094:	e1a00003 	mov	r0, r3
   19098:	e24bd004 	sub	sp, fp, #4
   1909c:	e8bd8800 	pop	{fp, pc}
   190a0:	0001bdd8 	ldrdeq	fp, [r1], -r8
   190a4:	0001ca4c 	andeq	ip, r1, ip, asr #20

000190a8 <OSTaskSuspend>:
   190a8:	e92d4800 	push	{fp, lr}
   190ac:	e28db004 	add	fp, sp, #4
   190b0:	e24dd018 	sub	sp, sp, #24
   190b4:	e1a03000 	mov	r3, r0
   190b8:	e54b3015 	strb	r3, [fp, #-21]
   190bc:	e55b3015 	ldrb	r3, [fp, #-21]
   190c0:	e353003f 	cmp	r3, #63	; 0x3f
   190c4:	1a000001 	bne	190d0 <OSTaskSuspend+0x28>
   190c8:	e3a0305b 	mov	r3, #91	; 0x5b
   190cc:	ea000059 	b	19238 <OSTaskSuspend+0x190>
   190d0:	e55b3015 	ldrb	r3, [fp, #-21]
   190d4:	e353003e 	cmp	r3, #62	; 0x3e
   190d8:	9a000004 	bls	190f0 <OSTaskSuspend+0x48>
   190dc:	e55b3015 	ldrb	r3, [fp, #-21]
   190e0:	e35300ff 	cmp	r3, #255	; 0xff
   190e4:	0a000001 	beq	190f0 <OSTaskSuspend+0x48>
   190e8:	e3a0302a 	mov	r3, #42	; 0x2a
   190ec:	ea000051 	b	19238 <OSTaskSuspend+0x190>
   190f0:	ebffe62d 	bl	129ac <OS_CPU_SR_Save>
   190f4:	e1a03000 	mov	r3, r0
   190f8:	e50b300c 	str	r3, [fp, #-12]
   190fc:	e55b3015 	ldrb	r3, [fp, #-21]
   19100:	e35300ff 	cmp	r3, #255	; 0xff
   19104:	1a000006 	bne	19124 <OSTaskSuspend+0x7c>
   19108:	e59f3134 	ldr	r3, [pc, #308]	; 19244 <OSTaskSuspend+0x19c>
   1910c:	e5933000 	ldr	r3, [r3]
   19110:	e5d3302d 	ldrb	r3, [r3, #45]	; 0x2d
   19114:	e54b3015 	strb	r3, [fp, #-21]
   19118:	e3a03001 	mov	r3, #1
   1911c:	e54b3005 	strb	r3, [fp, #-5]
   19120:	ea00000a 	b	19150 <OSTaskSuspend+0xa8>
   19124:	e59f3118 	ldr	r3, [pc, #280]	; 19244 <OSTaskSuspend+0x19c>
   19128:	e5933000 	ldr	r3, [r3]
   1912c:	e5d3302d 	ldrb	r3, [r3, #45]	; 0x2d
   19130:	e55b2015 	ldrb	r2, [fp, #-21]
   19134:	e1520003 	cmp	r2, r3
   19138:	1a000002 	bne	19148 <OSTaskSuspend+0xa0>
   1913c:	e3a03001 	mov	r3, #1
   19140:	e54b3005 	strb	r3, [fp, #-5]
   19144:	ea000001 	b	19150 <OSTaskSuspend+0xa8>
   19148:	e3a03000 	mov	r3, #0
   1914c:	e54b3005 	strb	r3, [fp, #-5]
   19150:	e55b2015 	ldrb	r2, [fp, #-21]
   19154:	e59f30ec 	ldr	r3, [pc, #236]	; 19248 <OSTaskSuspend+0x1a0>
   19158:	e7933102 	ldr	r3, [r3, r2, lsl #2]
   1915c:	e50b3010 	str	r3, [fp, #-16]
   19160:	e51b3010 	ldr	r3, [fp, #-16]
   19164:	e3530000 	cmp	r3, #0
   19168:	1a000003 	bne	1917c <OSTaskSuspend+0xd4>
   1916c:	e51b000c 	ldr	r0, [fp, #-12]
   19170:	ebffe615 	bl	129cc <OS_CPU_SR_Restore>
   19174:	e3a0305a 	mov	r3, #90	; 0x5a
   19178:	ea00002e 	b	19238 <OSTaskSuspend+0x190>
   1917c:	e51b3010 	ldr	r3, [fp, #-16]
   19180:	e5d3302f 	ldrb	r3, [r3, #47]	; 0x2f
   19184:	e51b2010 	ldr	r2, [fp, #-16]
   19188:	e5d2202f 	ldrb	r2, [r2, #47]	; 0x2f
   1918c:	e59f10b8 	ldr	r1, [pc, #184]	; 1924c <OSTaskSuspend+0x1a4>
   19190:	e7d12002 	ldrb	r2, [r1, r2]
   19194:	e6ef1072 	uxtb	r1, r2
   19198:	e51b2010 	ldr	r2, [fp, #-16]
   1919c:	e5d22030 	ldrb	r2, [r2, #48]	; 0x30
   191a0:	e6ef2072 	uxtb	r2, r2
   191a4:	e1e02002 	mvn	r2, r2
   191a8:	e6ef2072 	uxtb	r2, r2
   191ac:	e0012002 	and	r2, r1, r2
   191b0:	e6ef2072 	uxtb	r2, r2
   191b4:	e6ef1072 	uxtb	r1, r2
   191b8:	e59f208c 	ldr	r2, [pc, #140]	; 1924c <OSTaskSuspend+0x1a4>
   191bc:	e7c21003 	strb	r1, [r2, r3]
   191c0:	e59f2084 	ldr	r2, [pc, #132]	; 1924c <OSTaskSuspend+0x1a4>
   191c4:	e7d23003 	ldrb	r3, [r2, r3]
   191c8:	e3530000 	cmp	r3, #0
   191cc:	1a00000c 	bne	19204 <OSTaskSuspend+0x15c>
   191d0:	e51b3010 	ldr	r3, [fp, #-16]
   191d4:	e5d33031 	ldrb	r3, [r3, #49]	; 0x31
   191d8:	e6ef3073 	uxtb	r3, r3
   191dc:	e1e03003 	mvn	r3, r3
   191e0:	e6ef2073 	uxtb	r2, r3
   191e4:	e59f3064 	ldr	r3, [pc, #100]	; 19250 <OSTaskSuspend+0x1a8>
   191e8:	e5d33000 	ldrb	r3, [r3]
   191ec:	e6ef3073 	uxtb	r3, r3
   191f0:	e0023003 	and	r3, r2, r3
   191f4:	e6ef3073 	uxtb	r3, r3
   191f8:	e6ef2073 	uxtb	r2, r3
   191fc:	e59f304c 	ldr	r3, [pc, #76]	; 19250 <OSTaskSuspend+0x1a8>
   19200:	e5c32000 	strb	r2, [r3]
   19204:	e51b3010 	ldr	r3, [fp, #-16]
   19208:	e5d3302c 	ldrb	r3, [r3, #44]	; 0x2c
   1920c:	e3833008 	orr	r3, r3, #8
   19210:	e6ef2073 	uxtb	r2, r3
   19214:	e51b3010 	ldr	r3, [fp, #-16]
   19218:	e5c3202c 	strb	r2, [r3, #44]	; 0x2c
   1921c:	e51b000c 	ldr	r0, [fp, #-12]
   19220:	ebffe5e9 	bl	129cc <OS_CPU_SR_Restore>
   19224:	e55b3005 	ldrb	r3, [fp, #-5]
   19228:	e3530001 	cmp	r3, #1
   1922c:	1a000000 	bne	19234 <OSTaskSuspend+0x18c>
   19230:	ebffea6f 	bl	13bf4 <OS_Sched>
   19234:	e3a03000 	mov	r3, #0
   19238:	e1a00003 	mov	r0, r3
   1923c:	e24bd004 	sub	sp, fp, #4
   19240:	e8bd8800 	pop	{fp, pc}
   19244:	0001bdd8 	ldrdeq	fp, [r1], -r8
   19248:	0001ca4c 	andeq	ip, r1, ip, asr #20
   1924c:	0001bdc8 	andeq	fp, r1, r8, asr #27
   19250:	0001bdc4 	andeq	fp, r1, r4, asr #27

00019254 <OSTaskQuery>:
   19254:	e92d4800 	push	{fp, lr}
   19258:	e28db004 	add	fp, sp, #4
   1925c:	e24dd010 	sub	sp, sp, #16
   19260:	e1a03000 	mov	r3, r0
   19264:	e50b1014 	str	r1, [fp, #-20]
   19268:	e54b300d 	strb	r3, [fp, #-13]
   1926c:	e55b300d 	ldrb	r3, [fp, #-13]
   19270:	e353003f 	cmp	r3, #63	; 0x3f
   19274:	9a000004 	bls	1928c <OSTaskQuery+0x38>
   19278:	e55b300d 	ldrb	r3, [fp, #-13]
   1927c:	e35300ff 	cmp	r3, #255	; 0xff
   19280:	0a000001 	beq	1928c <OSTaskQuery+0x38>
   19284:	e3a0302a 	mov	r3, #42	; 0x2a
   19288:	ea00001b 	b	192fc <OSTaskQuery+0xa8>
   1928c:	ebffe5c6 	bl	129ac <OS_CPU_SR_Save>
   19290:	e1a03000 	mov	r3, r0
   19294:	e50b3008 	str	r3, [fp, #-8]
   19298:	e55b300d 	ldrb	r3, [fp, #-13]
   1929c:	e35300ff 	cmp	r3, #255	; 0xff
   192a0:	1a000003 	bne	192b4 <OSTaskQuery+0x60>
   192a4:	e59f305c 	ldr	r3, [pc, #92]	; 19308 <OSTaskQuery+0xb4>
   192a8:	e5933000 	ldr	r3, [r3]
   192ac:	e5d3302d 	ldrb	r3, [r3, #45]	; 0x2d
   192b0:	e54b300d 	strb	r3, [fp, #-13]
   192b4:	e55b200d 	ldrb	r2, [fp, #-13]
   192b8:	e59f304c 	ldr	r3, [pc, #76]	; 1930c <OSTaskQuery+0xb8>
   192bc:	e7933102 	ldr	r3, [r3, r2, lsl #2]
   192c0:	e50b300c 	str	r3, [fp, #-12]
   192c4:	e51b300c 	ldr	r3, [fp, #-12]
   192c8:	e3530000 	cmp	r3, #0
   192cc:	1a000003 	bne	192e0 <OSTaskQuery+0x8c>
   192d0:	e51b0008 	ldr	r0, [fp, #-8]
   192d4:	ebffe5bc 	bl	129cc <OS_CPU_SR_Restore>
   192d8:	e3a03029 	mov	r3, #41	; 0x29
   192dc:	ea000006 	b	192fc <OSTaskQuery+0xa8>
   192e0:	e51b0014 	ldr	r0, [fp, #-20]
   192e4:	e51b100c 	ldr	r1, [fp, #-12]
   192e8:	e3a02034 	mov	r2, #52	; 0x34
   192ec:	eb00015b 	bl	19860 <memcpy>
   192f0:	e51b0008 	ldr	r0, [fp, #-8]
   192f4:	ebffe5b4 	bl	129cc <OS_CPU_SR_Restore>
   192f8:	e3a03000 	mov	r3, #0
   192fc:	e1a00003 	mov	r0, r3
   19300:	e24bd004 	sub	sp, fp, #4
   19304:	e8bd8800 	pop	{fp, pc}
   19308:	0001bdd8 	ldrdeq	fp, [r1], -r8
   1930c:	0001ca4c 	andeq	ip, r1, ip, asr #20

00019310 <OSTimeDly>:
   19310:	e92d4800 	push	{fp, lr}
   19314:	e28db004 	add	fp, sp, #4
   19318:	e24dd010 	sub	sp, sp, #16
   1931c:	e1a03000 	mov	r3, r0
   19320:	e14b30be 	strh	r3, [fp, #-14]
   19324:	e15b30be 	ldrh	r3, [fp, #-14]
   19328:	e3530000 	cmp	r3, #0
   1932c:	0a00002f 	beq	193f0 <OSTimeDly+0xe0>
   19330:	ebffe59d 	bl	129ac <OS_CPU_SR_Save>
   19334:	e1a03000 	mov	r3, r0
   19338:	e50b3008 	str	r3, [fp, #-8]
   1933c:	e59f30b4 	ldr	r3, [pc, #180]	; 193f8 <OSTimeDly+0xe8>
   19340:	e5933000 	ldr	r3, [r3]
   19344:	e5d3302f 	ldrb	r3, [r3, #47]	; 0x2f
   19348:	e59f20a8 	ldr	r2, [pc, #168]	; 193f8 <OSTimeDly+0xe8>
   1934c:	e5922000 	ldr	r2, [r2]
   19350:	e5d2202f 	ldrb	r2, [r2, #47]	; 0x2f
   19354:	e59f10a0 	ldr	r1, [pc, #160]	; 193fc <OSTimeDly+0xec>
   19358:	e7d12002 	ldrb	r2, [r1, r2]
   1935c:	e6ef1072 	uxtb	r1, r2
   19360:	e59f2090 	ldr	r2, [pc, #144]	; 193f8 <OSTimeDly+0xe8>
   19364:	e5922000 	ldr	r2, [r2]
   19368:	e5d22030 	ldrb	r2, [r2, #48]	; 0x30
   1936c:	e6ef2072 	uxtb	r2, r2
   19370:	e1e02002 	mvn	r2, r2
   19374:	e6ef2072 	uxtb	r2, r2
   19378:	e0012002 	and	r2, r1, r2
   1937c:	e6ef2072 	uxtb	r2, r2
   19380:	e6ef1072 	uxtb	r1, r2
   19384:	e59f2070 	ldr	r2, [pc, #112]	; 193fc <OSTimeDly+0xec>
   19388:	e7c21003 	strb	r1, [r2, r3]
   1938c:	e59f2068 	ldr	r2, [pc, #104]	; 193fc <OSTimeDly+0xec>
   19390:	e7d23003 	ldrb	r3, [r2, r3]
   19394:	e3530000 	cmp	r3, #0
   19398:	1a00000d 	bne	193d4 <OSTimeDly+0xc4>
   1939c:	e59f3054 	ldr	r3, [pc, #84]	; 193f8 <OSTimeDly+0xe8>
   193a0:	e5933000 	ldr	r3, [r3]
   193a4:	e5d33031 	ldrb	r3, [r3, #49]	; 0x31
   193a8:	e6ef3073 	uxtb	r3, r3
   193ac:	e1e03003 	mvn	r3, r3
   193b0:	e6ef2073 	uxtb	r2, r3
   193b4:	e59f3044 	ldr	r3, [pc, #68]	; 19400 <OSTimeDly+0xf0>
   193b8:	e5d33000 	ldrb	r3, [r3]
   193bc:	e6ef3073 	uxtb	r3, r3
   193c0:	e0023003 	and	r3, r2, r3
   193c4:	e6ef3073 	uxtb	r3, r3
   193c8:	e6ef2073 	uxtb	r2, r3
   193cc:	e59f302c 	ldr	r3, [pc, #44]	; 19400 <OSTimeDly+0xf0>
   193d0:	e5c32000 	strb	r2, [r3]
   193d4:	e59f301c 	ldr	r3, [pc, #28]	; 193f8 <OSTimeDly+0xe8>
   193d8:	e5933000 	ldr	r3, [r3]
   193dc:	e15b20be 	ldrh	r2, [fp, #-14]
   193e0:	e1c322ba 	strh	r2, [r3, #42]	; 0x2a
   193e4:	e51b0008 	ldr	r0, [fp, #-8]
   193e8:	ebffe577 	bl	129cc <OS_CPU_SR_Restore>
   193ec:	ebffea00 	bl	13bf4 <OS_Sched>
   193f0:	e24bd004 	sub	sp, fp, #4
   193f4:	e8bd8800 	pop	{fp, pc}
   193f8:	0001bdd8 	ldrdeq	fp, [r1], -r8
   193fc:	0001bdc8 	andeq	fp, r1, r8, asr #27
   19400:	0001bdc4 	andeq	fp, r1, r4, asr #27

00019404 <OSTimeDlyHMSM>:
   19404:	e92d4800 	push	{fp, lr}
   19408:	e28db004 	add	fp, sp, #4
   1940c:	e24dd010 	sub	sp, sp, #16
   19410:	e54b000d 	strb	r0, [fp, #-13]
   19414:	e54b100e 	strb	r1, [fp, #-14]
   19418:	e54b200f 	strb	r2, [fp, #-15]
   1941c:	e14b31b2 	strh	r3, [fp, #-18]	; 0xffffffee
   19420:	e55b300d 	ldrb	r3, [fp, #-13]
   19424:	e3530000 	cmp	r3, #0
   19428:	1a000008 	bne	19450 <OSTimeDlyHMSM+0x4c>
   1942c:	e55b300e 	ldrb	r3, [fp, #-14]
   19430:	e3530000 	cmp	r3, #0
   19434:	1a000005 	bne	19450 <OSTimeDlyHMSM+0x4c>
   19438:	e55b300f 	ldrb	r3, [fp, #-15]
   1943c:	e3530000 	cmp	r3, #0
   19440:	1a000002 	bne	19450 <OSTimeDlyHMSM+0x4c>
   19444:	e15b31b2 	ldrh	r3, [fp, #-18]	; 0xffffffee
   19448:	e3530000 	cmp	r3, #0
   1944c:	0a00003b 	beq	19540 <OSTimeDlyHMSM+0x13c>
   19450:	e55b300e 	ldrb	r3, [fp, #-14]
   19454:	e353003b 	cmp	r3, #59	; 0x3b
   19458:	9a000001 	bls	19464 <OSTimeDlyHMSM+0x60>
   1945c:	e3a03051 	mov	r3, #81	; 0x51
   19460:	ea000037 	b	19544 <OSTimeDlyHMSM+0x140>
   19464:	e55b300f 	ldrb	r3, [fp, #-15]
   19468:	e353003b 	cmp	r3, #59	; 0x3b
   1946c:	9a000001 	bls	19478 <OSTimeDlyHMSM+0x74>
   19470:	e3a03052 	mov	r3, #82	; 0x52
   19474:	ea000032 	b	19544 <OSTimeDlyHMSM+0x140>
   19478:	e15b31b2 	ldrh	r3, [fp, #-18]	; 0xffffffee
   1947c:	e3530ffa 	cmp	r3, #1000	; 0x3e8
   19480:	3a000001 	bcc	1948c <OSTimeDlyHMSM+0x88>
   19484:	e3a03053 	mov	r3, #83	; 0x53
   19488:	ea00002d 	b	19544 <OSTimeDlyHMSM+0x140>
   1948c:	e55b300d 	ldrb	r3, [fp, #-13]
   19490:	e3a02ee1 	mov	r2, #3600	; 0xe10
   19494:	e0010392 	mul	r1, r2, r3
   19498:	e55b200e 	ldrb	r2, [fp, #-14]
   1949c:	e1a03002 	mov	r3, r2
   194a0:	e1a03203 	lsl	r3, r3, #4
   194a4:	e0623003 	rsb	r3, r2, r3
   194a8:	e1a03103 	lsl	r3, r3, #2
   194ac:	e0812003 	add	r2, r1, r3
   194b0:	e55b300f 	ldrb	r3, [fp, #-15]
   194b4:	e0823003 	add	r3, r2, r3
   194b8:	e3a02064 	mov	r2, #100	; 0x64
   194bc:	e0020392 	mul	r2, r2, r3
   194c0:	e15b31b2 	ldrh	r3, [fp, #-18]	; 0xffffffee
   194c4:	e3a01064 	mov	r1, #100	; 0x64
   194c8:	e0030391 	mul	r3, r1, r3
   194cc:	e2831f7d 	add	r1, r3, #500	; 0x1f4
   194d0:	e59f3078 	ldr	r3, [pc, #120]	; 19550 <OSTimeDlyHMSM+0x14c>
   194d4:	e0830193 	umull	r0, r3, r3, r1
   194d8:	e1a03323 	lsr	r3, r3, #6
   194dc:	e0823003 	add	r3, r2, r3
   194e0:	e50b300c 	str	r3, [fp, #-12]
   194e4:	e51b300c 	ldr	r3, [fp, #-12]
   194e8:	e1a03823 	lsr	r3, r3, #16
   194ec:	e14b30b6 	strh	r3, [fp, #-6]
   194f0:	e51b300c 	ldr	r3, [fp, #-12]
   194f4:	e6ff3073 	uxth	r3, r3
   194f8:	e50b300c 	str	r3, [fp, #-12]
   194fc:	e51b300c 	ldr	r3, [fp, #-12]
   19500:	e6ff3073 	uxth	r3, r3
   19504:	e1a00003 	mov	r0, r3
   19508:	ebffff80 	bl	19310 <OSTimeDly>
   1950c:	ea000006 	b	1952c <OSTimeDlyHMSM+0x128>
   19510:	e3a00902 	mov	r0, #32768	; 0x8000
   19514:	ebffff7d 	bl	19310 <OSTimeDly>
   19518:	e3a00902 	mov	r0, #32768	; 0x8000
   1951c:	ebffff7b 	bl	19310 <OSTimeDly>
   19520:	e15b30b6 	ldrh	r3, [fp, #-6]
   19524:	e2433001 	sub	r3, r3, #1
   19528:	e14b30b6 	strh	r3, [fp, #-6]
   1952c:	e15b30b6 	ldrh	r3, [fp, #-6]
   19530:	e3530000 	cmp	r3, #0
   19534:	1afffff5 	bne	19510 <OSTimeDlyHMSM+0x10c>
   19538:	e3a03000 	mov	r3, #0
   1953c:	ea000000 	b	19544 <OSTimeDlyHMSM+0x140>
   19540:	e3a03054 	mov	r3, #84	; 0x54
   19544:	e1a00003 	mov	r0, r3
   19548:	e24bd004 	sub	sp, fp, #4
   1954c:	e8bd8800 	pop	{fp, pc}
   19550:	10624dd3 	ldrdne	r4, [r2], #-211	; 0xffffff2d	; <UNPREDICTABLE>

00019554 <OSTimeDlyResume>:
   19554:	e92d4800 	push	{fp, lr}
   19558:	e28db004 	add	fp, sp, #4
   1955c:	e24dd010 	sub	sp, sp, #16
   19560:	e1a03000 	mov	r3, r0
   19564:	e54b300d 	strb	r3, [fp, #-13]
   19568:	e55b300d 	ldrb	r3, [fp, #-13]
   1956c:	e353003e 	cmp	r3, #62	; 0x3e
   19570:	9a000001 	bls	1957c <OSTimeDlyResume+0x28>
   19574:	e3a0302a 	mov	r3, #42	; 0x2a
   19578:	ea000038 	b	19660 <OSTimeDlyResume+0x10c>
   1957c:	ebffe50a 	bl	129ac <OS_CPU_SR_Save>
   19580:	e1a03000 	mov	r3, r0
   19584:	e50b3008 	str	r3, [fp, #-8]
   19588:	e55b200d 	ldrb	r2, [fp, #-13]
   1958c:	e59f30d8 	ldr	r3, [pc, #216]	; 1966c <OSTimeDlyResume+0x118>
   19590:	e7933102 	ldr	r3, [r3, r2, lsl #2]
   19594:	e50b300c 	str	r3, [fp, #-12]
   19598:	e51b300c 	ldr	r3, [fp, #-12]
   1959c:	e3530000 	cmp	r3, #0
   195a0:	0a00002b 	beq	19654 <OSTimeDlyResume+0x100>
   195a4:	e51b300c 	ldr	r3, [fp, #-12]
   195a8:	e1d332ba 	ldrh	r3, [r3, #42]	; 0x2a
   195ac:	e3530000 	cmp	r3, #0
   195b0:	0a000023 	beq	19644 <OSTimeDlyResume+0xf0>
   195b4:	e51b300c 	ldr	r3, [fp, #-12]
   195b8:	e3a02000 	mov	r2, #0
   195bc:	e1c322ba 	strh	r2, [r3, #42]	; 0x2a
   195c0:	e51b300c 	ldr	r3, [fp, #-12]
   195c4:	e5d3302c 	ldrb	r3, [r3, #44]	; 0x2c
   195c8:	e2033008 	and	r3, r3, #8
   195cc:	e3530000 	cmp	r3, #0
   195d0:	1a000017 	bne	19634 <OSTimeDlyResume+0xe0>
   195d4:	e51b300c 	ldr	r3, [fp, #-12]
   195d8:	e5d32031 	ldrb	r2, [r3, #49]	; 0x31
   195dc:	e59f308c 	ldr	r3, [pc, #140]	; 19670 <OSTimeDlyResume+0x11c>
   195e0:	e5d33000 	ldrb	r3, [r3]
   195e4:	e1823003 	orr	r3, r2, r3
   195e8:	e6ef2073 	uxtb	r2, r3
   195ec:	e59f307c 	ldr	r3, [pc, #124]	; 19670 <OSTimeDlyResume+0x11c>
   195f0:	e5c32000 	strb	r2, [r3]
   195f4:	e51b300c 	ldr	r3, [fp, #-12]
   195f8:	e5d3302f 	ldrb	r3, [r3, #47]	; 0x2f
   195fc:	e51b200c 	ldr	r2, [fp, #-12]
   19600:	e5d2202f 	ldrb	r2, [r2, #47]	; 0x2f
   19604:	e59f1068 	ldr	r1, [pc, #104]	; 19674 <OSTimeDlyResume+0x120>
   19608:	e7d11002 	ldrb	r1, [r1, r2]
   1960c:	e51b200c 	ldr	r2, [fp, #-12]
   19610:	e5d22030 	ldrb	r2, [r2, #48]	; 0x30
   19614:	e1812002 	orr	r2, r1, r2
   19618:	e6ef1072 	uxtb	r1, r2
   1961c:	e59f2050 	ldr	r2, [pc, #80]	; 19674 <OSTimeDlyResume+0x120>
   19620:	e7c21003 	strb	r1, [r2, r3]
   19624:	e51b0008 	ldr	r0, [fp, #-8]
   19628:	ebffe4e7 	bl	129cc <OS_CPU_SR_Restore>
   1962c:	ebffe970 	bl	13bf4 <OS_Sched>
   19630:	ea000001 	b	1963c <OSTimeDlyResume+0xe8>
   19634:	e51b0008 	ldr	r0, [fp, #-8]
   19638:	ebffe4e3 	bl	129cc <OS_CPU_SR_Restore>
   1963c:	e3a03000 	mov	r3, #0
   19640:	ea000006 	b	19660 <OSTimeDlyResume+0x10c>
   19644:	e51b0008 	ldr	r0, [fp, #-8]
   19648:	ebffe4df 	bl	129cc <OS_CPU_SR_Restore>
   1964c:	e3a03050 	mov	r3, #80	; 0x50
   19650:	ea000002 	b	19660 <OSTimeDlyResume+0x10c>
   19654:	e51b0008 	ldr	r0, [fp, #-8]
   19658:	ebffe4db 	bl	129cc <OS_CPU_SR_Restore>
   1965c:	e3a0300b 	mov	r3, #11
   19660:	e1a00003 	mov	r0, r3
   19664:	e24bd004 	sub	sp, fp, #4
   19668:	e8bd8800 	pop	{fp, pc}
   1966c:	0001ca4c 	andeq	ip, r1, ip, asr #20
   19670:	0001bdc4 	andeq	fp, r1, r4, asr #27
   19674:	0001bdc8 	andeq	fp, r1, r8, asr #27

00019678 <OSTimeGet>:
   19678:	e92d4800 	push	{fp, lr}
   1967c:	e28db004 	add	fp, sp, #4
   19680:	e24dd008 	sub	sp, sp, #8
   19684:	ebffe4c8 	bl	129ac <OS_CPU_SR_Save>
   19688:	e1a03000 	mov	r3, r0
   1968c:	e50b3008 	str	r3, [fp, #-8]
   19690:	e59f301c 	ldr	r3, [pc, #28]	; 196b4 <OSTimeGet+0x3c>
   19694:	e5933000 	ldr	r3, [r3]
   19698:	e50b300c 	str	r3, [fp, #-12]
   1969c:	e51b0008 	ldr	r0, [fp, #-8]
   196a0:	ebffe4c9 	bl	129cc <OS_CPU_SR_Restore>
   196a4:	e51b300c 	ldr	r3, [fp, #-12]
   196a8:	e1a00003 	mov	r0, r3
   196ac:	e24bd004 	sub	sp, fp, #4
   196b0:	e8bd8800 	pop	{fp, pc}
   196b4:	0001bddc 	ldrdeq	fp, [r1], -ip

000196b8 <OSTimeSet>:
   196b8:	e92d4800 	push	{fp, lr}
   196bc:	e28db004 	add	fp, sp, #4
   196c0:	e24dd010 	sub	sp, sp, #16
   196c4:	e50b0010 	str	r0, [fp, #-16]
   196c8:	ebffe4b7 	bl	129ac <OS_CPU_SR_Save>
   196cc:	e1a03000 	mov	r3, r0
   196d0:	e50b3008 	str	r3, [fp, #-8]
   196d4:	e59f3014 	ldr	r3, [pc, #20]	; 196f0 <OSTimeSet+0x38>
   196d8:	e51b2010 	ldr	r2, [fp, #-16]
   196dc:	e5832000 	str	r2, [r3]
   196e0:	e51b0008 	ldr	r0, [fp, #-8]
   196e4:	ebffe4b8 	bl	129cc <OS_CPU_SR_Restore>
   196e8:	e24bd004 	sub	sp, fp, #4
   196ec:	e8bd8800 	pop	{fp, pc}
   196f0:	0001bddc 	ldrdeq	fp, [r1], -ip

000196f4 <main>:
   196f4:	e92d4800 	push	{fp, lr}
   196f8:	e28db004 	add	fp, sp, #4
   196fc:	ebffe2f5 	bl	122d8 <initJTAG>
   19700:	ebffde40 	bl	11008 <InitInterruptController>
   19704:	ebffdec8 	bl	1122c <DisableInterrupts>
   19708:	ebffdd21 	bl	10b94 <timer_init>
   1970c:	ebffe59a 	bl	12d7c <OSInit>
   19710:	ebffdafb 	bl	10304 <uart_init>
   19714:	e59f0028 	ldr	r0, [pc, #40]	; 19744 <main+0x50>
   19718:	e3a01000 	mov	r1, #0
   1971c:	e59f2024 	ldr	r2, [pc, #36]	; 19748 <main+0x54>
   19720:	e3a03005 	mov	r3, #5
   19724:	ebfffbe2 	bl	186b4 <OSTaskCreate>
   19728:	e59f001c 	ldr	r0, [pc, #28]	; 1974c <main+0x58>
   1972c:	e3a01000 	mov	r1, #0
   19730:	e59f2018 	ldr	r2, [pc, #24]	; 19750 <main+0x5c>
   19734:	e3a03006 	mov	r3, #6
   19738:	ebfffbdd 	bl	186b4 <OSTaskCreate>
   1973c:	ebffe648 	bl	13064 <OSStart>
   19740:	eafffffe 	b	19740 <main+0x4c>
   19744:	00019838 	andeq	r9, r1, r8, lsr r8
   19748:	000209cc 	andeq	r0, r2, ip, asr #19
   1974c:	00019754 	andeq	r9, r1, r4, asr r7
   19750:	0002484c 	andeq	r4, r2, ip, asr #16

00019754 <userApp2>:
   19754:	e92d4800 	push	{fp, lr}
   19758:	e28db004 	add	fp, sp, #4
   1975c:	e24dd040 	sub	sp, sp, #64	; 0x40
   19760:	e50b0038 	str	r0, [fp, #-56]	; 0x38
   19764:	e3a03000 	mov	r3, #0
   19768:	e50b3008 	str	r3, [fp, #-8]
   1976c:	e3a03000 	mov	r3, #0
   19770:	e50b300c 	str	r3, [fp, #-12]
   19774:	e59f30b0 	ldr	r3, [pc, #176]	; 1982c <userApp2+0xd8>
   19778:	e24bc030 	sub	ip, fp, #48	; 0x30
   1977c:	e893000f 	ldm	r3, {r0, r1, r2, r3}
   19780:	e8ac0007 	stmia	ip!, {r0, r1, r2}
   19784:	e1cc30b0 	strh	r3, [ip]
   19788:	e28cc002 	add	ip, ip, #2
   1978c:	e1a03823 	lsr	r3, r3, #16
   19790:	e5cc3000 	strb	r3, [ip]
   19794:	e59f0094 	ldr	r0, [pc, #148]	; 19830 <userApp2+0xdc>
   19798:	e3a01000 	mov	r1, #0
   1979c:	e3a02000 	mov	r2, #0
   197a0:	ebffe394 	bl	125f8 <dev_open>
   197a4:	e50b0010 	str	r0, [fp, #-16]
   197a8:	e51b3010 	ldr	r3, [fp, #-16]
   197ac:	e3530041 	cmp	r3, #65	; 0x41
   197b0:	1a000000 	bne	197b8 <userApp2+0x64>
   197b4:	ebffdf86 	bl	115d4 <showstop>
   197b8:	e24b3030 	sub	r3, fp, #48	; 0x30
   197bc:	e3a02000 	mov	r2, #0
   197c0:	e58d2000 	str	r2, [sp]
   197c4:	e51b0010 	ldr	r0, [fp, #-16]
   197c8:	e1a01003 	mov	r1, r3
   197cc:	e3a0200f 	mov	r2, #15
   197d0:	e3a03000 	mov	r3, #0
   197d4:	ebffe35b 	bl	12548 <dev_write>
   197d8:	e3a03000 	mov	r3, #0
   197dc:	e58d3000 	str	r3, [sp]
   197e0:	e51b0010 	ldr	r0, [fp, #-16]
   197e4:	e59f1048 	ldr	r1, [pc, #72]	; 19834 <userApp2+0xe0>
   197e8:	e3a02001 	mov	r2, #1
   197ec:	e3a03000 	mov	r3, #0
   197f0:	ebffe328 	bl	12498 <dev_read>
   197f4:	e50b000c 	str	r0, [fp, #-12]
   197f8:	e51b300c 	ldr	r3, [fp, #-12]
   197fc:	e3530001 	cmp	r3, #1
   19800:	1a000006 	bne	19820 <userApp2+0xcc>
   19804:	e3a03000 	mov	r3, #0
   19808:	e58d3000 	str	r3, [sp]
   1980c:	e51b0010 	ldr	r0, [fp, #-16]
   19810:	e59f101c 	ldr	r1, [pc, #28]	; 19834 <userApp2+0xe0>
   19814:	e3a02001 	mov	r2, #1
   19818:	e3a03000 	mov	r3, #0
   1981c:	ebffe349 	bl	12548 <dev_write>
   19820:	e3a00005 	mov	r0, #5
   19824:	ebfffeb9 	bl	19310 <OSTimeDly>
   19828:	eaffffea 	b	197d8 <userApp2+0x84>
   1982c:	00019fc4 	andeq	r9, r1, r4, asr #31
   19830:	00019fbc 			; <UNDEFINED> instruction: 0x00019fbc
   19834:	0001a83c 	andeq	sl, r1, ip, lsr r8

00019838 <userApp1>:
   19838:	e92d4800 	push	{fp, lr}
   1983c:	e28db004 	add	fp, sp, #4
   19840:	e24dd008 	sub	sp, sp, #8
   19844:	e50b0008 	str	r0, [fp, #-8]
   19848:	e59f000c 	ldr	r0, [pc, #12]	; 1985c <userApp1+0x24>
   1984c:	ebffd9ee 	bl	1000c <GET32>
   19850:	e3a00064 	mov	r0, #100	; 0x64
   19854:	ebfffead 	bl	19310 <OSTimeDly>
   19858:	eafffffa 	b	19848 <userApp1+0x10>
   1985c:	20215048 	eorcs	r5, r1, r8, asr #32

00019860 <memcpy>:
   19860:	e352000f 	cmp	r2, #15
   19864:	e92d00f0 	push	{r4, r5, r6, r7}
   19868:	9a00002a 	bls	19918 <memcpy+0xb8>
   1986c:	e1813000 	orr	r3, r1, r0
   19870:	e3130003 	tst	r3, #3
   19874:	1a000032 	bne	19944 <memcpy+0xe4>
   19878:	e1a0c001 	mov	ip, r1
   1987c:	e1a03000 	mov	r3, r0
   19880:	e1a04002 	mov	r4, r2
   19884:	e59c5000 	ldr	r5, [ip]
   19888:	e5835000 	str	r5, [r3]
   1988c:	e59c5004 	ldr	r5, [ip, #4]
   19890:	e5835004 	str	r5, [r3, #4]
   19894:	e59c5008 	ldr	r5, [ip, #8]
   19898:	e5835008 	str	r5, [r3, #8]
   1989c:	e2444010 	sub	r4, r4, #16
   198a0:	e59c500c 	ldr	r5, [ip, #12]
   198a4:	e354000f 	cmp	r4, #15
   198a8:	e583500c 	str	r5, [r3, #12]
   198ac:	e28cc010 	add	ip, ip, #16
   198b0:	e2833010 	add	r3, r3, #16
   198b4:	8afffff2 	bhi	19884 <memcpy+0x24>
   198b8:	e2424010 	sub	r4, r2, #16
   198bc:	e3c4400f 	bic	r4, r4, #15
   198c0:	e202c00f 	and	ip, r2, #15
   198c4:	e2844010 	add	r4, r4, #16
   198c8:	e35c0003 	cmp	ip, #3
   198cc:	e0803004 	add	r3, r0, r4
   198d0:	e0811004 	add	r1, r1, r4
   198d4:	9a00001c 	bls	1994c <memcpy+0xec>
   198d8:	e24cc004 	sub	ip, ip, #4
   198dc:	e1a0712c 	lsr	r7, ip, #2
   198e0:	e0816107 	add	r6, r1, r7, lsl #2
   198e4:	e1a0c001 	mov	ip, r1
   198e8:	e2866004 	add	r6, r6, #4
   198ec:	e1a04003 	mov	r4, r3
   198f0:	e49c5004 	ldr	r5, [ip], #4
   198f4:	e15c0006 	cmp	ip, r6
   198f8:	e4845004 	str	r5, [r4], #4
   198fc:	1afffffb 	bne	198f0 <memcpy+0x90>
   19900:	e287c001 	add	ip, r7, #1
   19904:	e1a0c10c 	lsl	ip, ip, #2
   19908:	e2022003 	and	r2, r2, #3
   1990c:	e081100c 	add	r1, r1, ip
   19910:	e083300c 	add	r3, r3, ip
   19914:	ea000000 	b	1991c <memcpy+0xbc>
   19918:	e1a03000 	mov	r3, r0
   1991c:	e3520000 	cmp	r2, #0
   19920:	0a000005 	beq	1993c <memcpy+0xdc>
   19924:	e2411001 	sub	r1, r1, #1
   19928:	e0832002 	add	r2, r3, r2
   1992c:	e5f1c001 	ldrb	ip, [r1, #1]!
   19930:	e4c3c001 	strb	ip, [r3], #1
   19934:	e1530002 	cmp	r3, r2
   19938:	1afffffb 	bne	1992c <memcpy+0xcc>
   1993c:	e8bd00f0 	pop	{r4, r5, r6, r7}
   19940:	e12fff1e 	bx	lr
   19944:	e1a03000 	mov	r3, r0
   19948:	eafffff5 	b	19924 <memcpy+0xc4>
   1994c:	e1a0200c 	mov	r2, ip
   19950:	eafffff1 	b	1991c <memcpy+0xbc>

00019954 <memset>:
   19954:	e3100003 	tst	r0, #3
   19958:	e92d0030 	push	{r4, r5}
   1995c:	e1a03000 	mov	r3, r0
   19960:	0a000037 	beq	19a44 <memset+0xf0>
   19964:	e3520000 	cmp	r2, #0
   19968:	e2422001 	sub	r2, r2, #1
   1996c:	0a000032 	beq	19a3c <memset+0xe8>
   19970:	e20140ff 	and	r4, r1, #255	; 0xff
   19974:	ea000002 	b	19984 <memset+0x30>
   19978:	e3520000 	cmp	r2, #0
   1997c:	e2422001 	sub	r2, r2, #1
   19980:	0a00002d 	beq	19a3c <memset+0xe8>
   19984:	e4c34001 	strb	r4, [r3], #1
   19988:	e3130003 	tst	r3, #3
   1998c:	e1a0c003 	mov	ip, r3
   19990:	1afffff8 	bne	19978 <memset+0x24>
   19994:	e3520003 	cmp	r2, #3
   19998:	9a000020 	bls	19a20 <memset+0xcc>
   1999c:	e20140ff 	and	r4, r1, #255	; 0xff
   199a0:	e352000f 	cmp	r2, #15
   199a4:	e1844404 	orr	r4, r4, r4, lsl #8
   199a8:	e1844804 	orr	r4, r4, r4, lsl #16
   199ac:	81a0300c 	movhi	r3, ip
   199b0:	81a05002 	movhi	r5, r2
   199b4:	9a00000e 	bls	199f4 <memset+0xa0>
   199b8:	e2455010 	sub	r5, r5, #16
   199bc:	e355000f 	cmp	r5, #15
   199c0:	e5834000 	str	r4, [r3]
   199c4:	e5834004 	str	r4, [r3, #4]
   199c8:	e5834008 	str	r4, [r3, #8]
   199cc:	e583400c 	str	r4, [r3, #12]
   199d0:	e2833010 	add	r3, r3, #16
   199d4:	8afffff7 	bhi	199b8 <memset+0x64>
   199d8:	e2423010 	sub	r3, r2, #16
   199dc:	e3c3300f 	bic	r3, r3, #15
   199e0:	e202200f 	and	r2, r2, #15
   199e4:	e2833010 	add	r3, r3, #16
   199e8:	e3520003 	cmp	r2, #3
   199ec:	e08cc003 	add	ip, ip, r3
   199f0:	9a00000a 	bls	19a20 <memset+0xcc>
   199f4:	e1a0500c 	mov	r5, ip
   199f8:	e1a03002 	mov	r3, r2
   199fc:	e2433004 	sub	r3, r3, #4
   19a00:	e3530003 	cmp	r3, #3
   19a04:	e4854004 	str	r4, [r5], #4
   19a08:	8afffffb 	bhi	199fc <memset+0xa8>
   19a0c:	e2423004 	sub	r3, r2, #4
   19a10:	e3c33003 	bic	r3, r3, #3
   19a14:	e2833004 	add	r3, r3, #4
   19a18:	e2022003 	and	r2, r2, #3
   19a1c:	e08cc003 	add	ip, ip, r3
   19a20:	e3520000 	cmp	r2, #0
   19a24:	120110ff 	andne	r1, r1, #255	; 0xff
   19a28:	108c2002 	addne	r2, ip, r2
   19a2c:	0a000002 	beq	19a3c <memset+0xe8>
   19a30:	e4cc1001 	strb	r1, [ip], #1
   19a34:	e15c0002 	cmp	ip, r2
   19a38:	1afffffc 	bne	19a30 <memset+0xdc>
   19a3c:	e8bd0030 	pop	{r4, r5}
   19a40:	e12fff1e 	bx	lr
   19a44:	e1a0c000 	mov	ip, r0
   19a48:	eaffffd1 	b	19994 <memset+0x40>

00019a4c <strcmp>:
   19a4c:	e0202001 	eor	r2, r0, r1
   19a50:	e3120003 	tst	r2, #3
   19a54:	1a000021 	bne	19ae0 <strcmp_unaligned>
   19a58:	e2102003 	ands	r2, r0, #3
   19a5c:	e3c00003 	bic	r0, r0, #3
   19a60:	e3c11003 	bic	r1, r1, #3
   19a64:	e490c004 	ldr	ip, [r0], #4
   19a68:	04913004 	ldreq	r3, [r1], #4
   19a6c:	0a000006 	beq	19a8c <strcmp+0x40>
   19a70:	e2222003 	eor	r2, r2, #3
   19a74:	e1a02182 	lsl	r2, r2, #3
   19a78:	e3e034ff 	mvn	r3, #-16777216	; 0xff000000
   19a7c:	e1a02233 	lsr	r2, r3, r2
   19a80:	e4913004 	ldr	r3, [r1], #4
   19a84:	e18cc002 	orr	ip, ip, r2
   19a88:	e1833002 	orr	r3, r3, r2
   19a8c:	e52d4004 	push	{r4}		; (str r4, [sp, #-4]!)
   19a90:	e3a04001 	mov	r4, #1
   19a94:	e1844404 	orr	r4, r4, r4, lsl #8
   19a98:	e1844804 	orr	r4, r4, r4, lsl #16
   19a9c:	e04c2004 	sub	r2, ip, r4
   19aa0:	e15c0003 	cmp	ip, r3
   19aa4:	01c2200c 	biceq	r2, r2, ip
   19aa8:	01120384 	tsteq	r2, r4, lsl #7
   19aac:	0490c004 	ldreq	ip, [r0], #4
   19ab0:	04913004 	ldreq	r3, [r1], #4
   19ab4:	0afffff8 	beq	19a9c <strcmp+0x50>
   19ab8:	e1a00c0c 	lsl	r0, ip, #24
   19abc:	e1a0c42c 	lsr	ip, ip, #8
   19ac0:	e3500001 	cmp	r0, #1
   19ac4:	21500c03 	cmpcs	r0, r3, lsl #24
   19ac8:	01a03423 	lsreq	r3, r3, #8
   19acc:	0afffff9 	beq	19ab8 <strcmp+0x6c>
   19ad0:	e20330ff 	and	r3, r3, #255	; 0xff
   19ad4:	e0630c20 	rsb	r0, r3, r0, lsr #24
   19ad8:	e49d4004 	pop	{r4}		; (ldr r4, [sp], #4)
   19adc:	e12fff1e 	bx	lr

00019ae0 <strcmp_unaligned>:
   19ae0:	e3100003 	tst	r0, #3
   19ae4:	0a000006 	beq	19b04 <strcmp_unaligned+0x24>
   19ae8:	e4d02001 	ldrb	r2, [r0], #1
   19aec:	e4d13001 	ldrb	r3, [r1], #1
   19af0:	e3520001 	cmp	r2, #1
   19af4:	21520003 	cmpcs	r2, r3
   19af8:	0afffff8 	beq	19ae0 <strcmp_unaligned>
   19afc:	e0420003 	sub	r0, r2, r3
   19b00:	e12fff1e 	bx	lr
   19b04:	e52d5004 	push	{r5}		; (str r5, [sp, #-4]!)
   19b08:	e52d4004 	push	{r4}		; (str r4, [sp, #-4]!)
   19b0c:	e3a02001 	mov	r2, #1
   19b10:	e1822402 	orr	r2, r2, r2, lsl #8
   19b14:	e1822802 	orr	r2, r2, r2, lsl #16
   19b18:	e201c003 	and	ip, r1, #3
   19b1c:	e3c11003 	bic	r1, r1, #3
   19b20:	e4904004 	ldr	r4, [r0], #4
   19b24:	e4915004 	ldr	r5, [r1], #4
   19b28:	e35c0002 	cmp	ip, #2
   19b2c:	0a000017 	beq	19b90 <strcmp_unaligned+0xb0>
   19b30:	8a00002d 	bhi	19bec <strcmp_unaligned+0x10c>
   19b34:	e3c4c4ff 	bic	ip, r4, #-16777216	; 0xff000000
   19b38:	e15c0425 	cmp	ip, r5, lsr #8
   19b3c:	e0443002 	sub	r3, r4, r2
   19b40:	e1c33004 	bic	r3, r3, r4
   19b44:	1a000007 	bne	19b68 <strcmp_unaligned+0x88>
   19b48:	e0133382 	ands	r3, r3, r2, lsl #7
   19b4c:	04915004 	ldreq	r5, [r1], #4
   19b50:	1a000006 	bne	19b70 <strcmp_unaligned+0x90>
   19b54:	e02cc004 	eor	ip, ip, r4
   19b58:	e15c0c05 	cmp	ip, r5, lsl #24
   19b5c:	1a000008 	bne	19b84 <strcmp_unaligned+0xa4>
   19b60:	e4904004 	ldr	r4, [r0], #4
   19b64:	eafffff2 	b	19b34 <strcmp_unaligned+0x54>
   19b68:	e1a05425 	lsr	r5, r5, #8
   19b6c:	ea000037 	b	19c50 <strcmp_unaligned+0x170>
   19b70:	e3d334ff 	bics	r3, r3, #-16777216	; 0xff000000
   19b74:	1a000031 	bne	19c40 <strcmp_unaligned+0x160>
   19b78:	e5d15000 	ldrb	r5, [r1]
   19b7c:	e1a0cc24 	lsr	ip, r4, #24
   19b80:	ea000032 	b	19c50 <strcmp_unaligned+0x170>
   19b84:	e1a0cc24 	lsr	ip, r4, #24
   19b88:	e20550ff 	and	r5, r5, #255	; 0xff
   19b8c:	ea00002f 	b	19c50 <strcmp_unaligned+0x170>
   19b90:	e1a0c804 	lsl	ip, r4, #16
   19b94:	e0443002 	sub	r3, r4, r2
   19b98:	e1a0c82c 	lsr	ip, ip, #16
   19b9c:	e1c33004 	bic	r3, r3, r4
   19ba0:	e15c0825 	cmp	ip, r5, lsr #16
   19ba4:	1a00000e 	bne	19be4 <strcmp_unaligned+0x104>
   19ba8:	e0133382 	ands	r3, r3, r2, lsl #7
   19bac:	04915004 	ldreq	r5, [r1], #4
   19bb0:	1a000004 	bne	19bc8 <strcmp_unaligned+0xe8>
   19bb4:	e02cc004 	eor	ip, ip, r4
   19bb8:	e15c0805 	cmp	ip, r5, lsl #16
   19bbc:	1a000006 	bne	19bdc <strcmp_unaligned+0xfc>
   19bc0:	e4904004 	ldr	r4, [r0], #4
   19bc4:	eafffff1 	b	19b90 <strcmp_unaligned+0xb0>
   19bc8:	e1b03803 	lsls	r3, r3, #16
   19bcc:	1a00001b 	bne	19c40 <strcmp_unaligned+0x160>
   19bd0:	e1d150b0 	ldrh	r5, [r1]
   19bd4:	e1a0c824 	lsr	ip, r4, #16
   19bd8:	ea00001c 	b	19c50 <strcmp_unaligned+0x170>
   19bdc:	e1a05805 	lsl	r5, r5, #16
   19be0:	e1a0c824 	lsr	ip, r4, #16
   19be4:	e1a05825 	lsr	r5, r5, #16
   19be8:	ea000018 	b	19c50 <strcmp_unaligned+0x170>
   19bec:	e204c0ff 	and	ip, r4, #255	; 0xff
   19bf0:	e15c0c25 	cmp	ip, r5, lsr #24
   19bf4:	e0443002 	sub	r3, r4, r2
   19bf8:	e1c33004 	bic	r3, r3, r4
   19bfc:	1a000007 	bne	19c20 <strcmp_unaligned+0x140>
   19c00:	e0133382 	ands	r3, r3, r2, lsl #7
   19c04:	04915004 	ldreq	r5, [r1], #4
   19c08:	1a000006 	bne	19c28 <strcmp_unaligned+0x148>
   19c0c:	e02cc004 	eor	ip, ip, r4
   19c10:	e15c0405 	cmp	ip, r5, lsl #8
   19c14:	1a000006 	bne	19c34 <strcmp_unaligned+0x154>
   19c18:	e4904004 	ldr	r4, [r0], #4
   19c1c:	eafffff2 	b	19bec <strcmp_unaligned+0x10c>
   19c20:	e1a05c25 	lsr	r5, r5, #24
   19c24:	ea000009 	b	19c50 <strcmp_unaligned+0x170>
   19c28:	e31400ff 	tst	r4, #255	; 0xff
   19c2c:	0a000003 	beq	19c40 <strcmp_unaligned+0x160>
   19c30:	e4915004 	ldr	r5, [r1], #4
   19c34:	e1a0c424 	lsr	ip, r4, #8
   19c38:	e3c554ff 	bic	r5, r5, #-16777216	; 0xff000000
   19c3c:	ea000003 	b	19c50 <strcmp_unaligned+0x170>
   19c40:	e3a00000 	mov	r0, #0
   19c44:	e49d4004 	pop	{r4}		; (ldr r4, [sp], #4)
   19c48:	e49d5004 	pop	{r5}		; (ldr r5, [sp], #4)
   19c4c:	e12fff1e 	bx	lr
   19c50:	e20c20ff 	and	r2, ip, #255	; 0xff
   19c54:	e20500ff 	and	r0, r5, #255	; 0xff
   19c58:	e3500001 	cmp	r0, #1
   19c5c:	21500002 	cmpcs	r0, r2
   19c60:	01a0c42c 	lsreq	ip, ip, #8
   19c64:	01a05425 	lsreq	r5, r5, #8
   19c68:	0afffff8 	beq	19c50 <strcmp_unaligned+0x170>
   19c6c:	e0420000 	sub	r0, r2, r0
   19c70:	e49d4004 	pop	{r4}		; (ldr r4, [sp], #4)
   19c74:	e49d5004 	pop	{r5}		; (ldr r5, [sp], #4)
   19c78:	e12fff1e 	bx	lr

00019c7c <__aeabi_uidiv>:
   19c7c:	e2512001 	subs	r2, r1, #1
   19c80:	012fff1e 	bxeq	lr
   19c84:	3a000036 	bcc	19d64 <__aeabi_uidiv+0xe8>
   19c88:	e1500001 	cmp	r0, r1
   19c8c:	9a000022 	bls	19d1c <__aeabi_uidiv+0xa0>
   19c90:	e1110002 	tst	r1, r2
   19c94:	0a000023 	beq	19d28 <__aeabi_uidiv+0xac>
   19c98:	e311020e 	tst	r1, #-536870912	; 0xe0000000
   19c9c:	01a01181 	lsleq	r1, r1, #3
   19ca0:	03a03008 	moveq	r3, #8
   19ca4:	13a03001 	movne	r3, #1
   19ca8:	e3510201 	cmp	r1, #268435456	; 0x10000000
   19cac:	31510000 	cmpcc	r1, r0
   19cb0:	31a01201 	lslcc	r1, r1, #4
   19cb4:	31a03203 	lslcc	r3, r3, #4
   19cb8:	3afffffa 	bcc	19ca8 <__aeabi_uidiv+0x2c>
   19cbc:	e3510102 	cmp	r1, #-2147483648	; 0x80000000
   19cc0:	31510000 	cmpcc	r1, r0
   19cc4:	31a01081 	lslcc	r1, r1, #1
   19cc8:	31a03083 	lslcc	r3, r3, #1
   19ccc:	3afffffa 	bcc	19cbc <__aeabi_uidiv+0x40>
   19cd0:	e3a02000 	mov	r2, #0
   19cd4:	e1500001 	cmp	r0, r1
   19cd8:	20400001 	subcs	r0, r0, r1
   19cdc:	21822003 	orrcs	r2, r2, r3
   19ce0:	e15000a1 	cmp	r0, r1, lsr #1
   19ce4:	204000a1 	subcs	r0, r0, r1, lsr #1
   19ce8:	218220a3 	orrcs	r2, r2, r3, lsr #1
   19cec:	e1500121 	cmp	r0, r1, lsr #2
   19cf0:	20400121 	subcs	r0, r0, r1, lsr #2
   19cf4:	21822123 	orrcs	r2, r2, r3, lsr #2
   19cf8:	e15001a1 	cmp	r0, r1, lsr #3
   19cfc:	204001a1 	subcs	r0, r0, r1, lsr #3
   19d00:	218221a3 	orrcs	r2, r2, r3, lsr #3
   19d04:	e3500000 	cmp	r0, #0
   19d08:	11b03223 	lsrsne	r3, r3, #4
   19d0c:	11a01221 	lsrne	r1, r1, #4
   19d10:	1affffef 	bne	19cd4 <__aeabi_uidiv+0x58>
   19d14:	e1a00002 	mov	r0, r2
   19d18:	e12fff1e 	bx	lr
   19d1c:	03a00001 	moveq	r0, #1
   19d20:	13a00000 	movne	r0, #0
   19d24:	e12fff1e 	bx	lr
   19d28:	e3510801 	cmp	r1, #65536	; 0x10000
   19d2c:	21a01821 	lsrcs	r1, r1, #16
   19d30:	23a02010 	movcs	r2, #16
   19d34:	33a02000 	movcc	r2, #0
   19d38:	e3510c01 	cmp	r1, #256	; 0x100
   19d3c:	21a01421 	lsrcs	r1, r1, #8
   19d40:	22822008 	addcs	r2, r2, #8
   19d44:	e3510010 	cmp	r1, #16
   19d48:	21a01221 	lsrcs	r1, r1, #4
   19d4c:	22822004 	addcs	r2, r2, #4
   19d50:	e3510004 	cmp	r1, #4
   19d54:	82822003 	addhi	r2, r2, #3
   19d58:	908220a1 	addls	r2, r2, r1, lsr #1
   19d5c:	e1a00230 	lsr	r0, r0, r2
   19d60:	e12fff1e 	bx	lr
   19d64:	e3500000 	cmp	r0, #0
   19d68:	13e00000 	mvnne	r0, #0
   19d6c:	ea000007 	b	19d90 <__aeabi_idiv0>

00019d70 <__aeabi_uidivmod>:
   19d70:	e3510000 	cmp	r1, #0
   19d74:	0afffffa 	beq	19d64 <__aeabi_uidiv+0xe8>
   19d78:	e92d4003 	push	{r0, r1, lr}
   19d7c:	ebffffbe 	bl	19c7c <__aeabi_uidiv>
   19d80:	e8bd4006 	pop	{r1, r2, lr}
   19d84:	e0030092 	mul	r3, r2, r0
   19d88:	e0411003 	sub	r1, r1, r3
   19d8c:	e12fff1e 	bx	lr

00019d90 <__aeabi_idiv0>:
   19d90:	e12fff1e 	bx	lr

Disassembly of section .rodata:

00019d94 <intcRegs>:
   19d94:	2000b200 	andcs	fp, r0, r0, lsl #4

00019d98 <timerRegs>:
   19d98:	2000b400 	andcs	fp, r0, r0, lsl #8
   19d9c:	74726175 	ldrbtvc	r6, [r2], #-373	; 0x175
   19da0:	746e6920 	strbtvc	r6, [lr], #-2336	; 0x920
   19da4:	4e452072 	mcrmi	0, 2, r2, cr5, cr2, {3}
   19da8:	454c4241 	strbmi	r4, [ip, #-577]	; 0x241
   19dac:	00000a44 	andeq	r0, r0, r4, asr #20
   19db0:	004d454d 	subeq	r4, sp, sp, asr #10
   19db4:	74726175 	ldrbtvc	r6, [r2], #-373	; 0x175
   19db8:	00000031 	andeq	r0, r0, r1, lsr r0
   19dbc:	0a3a4243 	beq	eaa6d0 <_estack+0xc9a6d0>
   19dc0:	00000000 	andeq	r0, r0, r0

00019dc4 <intcRegs>:
   19dc4:	2000b200 	andcs	fp, r0, r0, lsl #4

00019dc8 <timerRegs>:
   19dc8:	2000b400 	andcs	fp, r0, r0, lsl #8

00019dcc <intcRegs>:
   19dcc:	2000b200 	andcs	fp, r0, r0, lsl #4

00019dd0 <timerRegs>:
   19dd0:	2000b400 	andcs	fp, r0, r0, lsl #8
   19dd4:	20414d44 	subcs	r4, r1, r4, asr #26
   19dd8:	656e6f44 	strbvs	r6, [lr, #-3908]!	; 0xf44
   19ddc:	0000000a 	andeq	r0, r0, sl

00019de0 <intcRegs>:
   19de0:	2000b200 	andcs	fp, r0, r0, lsl #4

00019de4 <timerRegs>:
   19de4:	2000b400 	andcs	fp, r0, r0, lsl #8
   19de8:	20555047 	subscs	r5, r5, r7, asr #32
   19dec:	0a515249 	beq	146e718 <_estack+0x125e718>
   19df0:	0000000d 	andeq	r0, r0, sp
   19df4:	73756e55 	cmnvc	r5, #1360	; 0x550
   19df8:	49206465 	stmdbmi	r0!, {r0, r2, r5, r6, sl, sp, lr}
   19dfc:	0d0a5152 	stfeqs	f5, [sl, #-328]	; 0xfffffeb8
   19e00:	00000000 	andeq	r0, r0, r0
   19e04:	74706d45 	ldrbtvc	r6, [r0], #-3397	; 0xd45
   19e08:	52492079 	subpl	r2, r9, #121	; 0x79
   19e0c:	000d0a51 	andeq	r0, sp, r1, asr sl
   19e10:	65646e55 	strbvs	r6, [r4, #-3669]!	; 0xe55
   19e14:	656e6966 	strbvs	r6, [lr, #-2406]!	; 0x966
   19e18:	52492064 	subpl	r2, r9, #100	; 0x64
   19e1c:	75462051 	strbvc	r2, [r6, #-81]	; 0x51
   19e20:	0000636e 	andeq	r6, r0, lr, ror #6
   19e24:	62757453 	rsbsvs	r7, r5, #1392508928	; 0x53000000
   19e28:	646e6148 	strbtvs	r6, [lr], #-328	; 0x148
   19e2c:	0000656c 	andeq	r6, r0, ip, ror #10
   19e30:	20525349 	subscs	r5, r2, r9, asr #6
   19e34:	69676552 	stmdbvs	r7!, {r1, r4, r6, r8, sl, sp, lr}^
   19e38:	64657473 	strbtvs	r7, [r5], #-1139	; 0x473
   19e3c:	0000000a 	andeq	r0, r0, sl
   19e40:	776f6873 			; <UNDEFINED> instruction: 0x776f6873
   19e44:	706f7473 	rsbvc	r7, pc, r3, ror r4	; <UNPREDICTABLE>
   19e48:	00000000 	andeq	r0, r0, r0

00019e4c <intcRegs>:
   19e4c:	2000b200 	andcs	fp, r0, r0, lsl #4

00019e50 <timerRegs>:
   19e50:	2000b400 	andcs	fp, r0, r0, lsl #8
   19e54:	73756e75 	cmnvc	r5, #1872	; 0x750
   19e58:	00006465 	andeq	r6, r0, r5, ror #8
   19e5c:	00716966 	rsbseq	r6, r1, r6, ror #18
   19e60:	65646e75 	strbvs	r6, [r4, #-3701]!	; 0xe75
   19e64:	656e6966 	strbvs	r6, [lr, #-2406]!	; 0x966
   19e68:	6e695f64 	cdpvs	15, 6, cr5, cr9, cr4, {3}
   19e6c:	75727473 	ldrbvc	r7, [r2, #-1139]!	; 0x473
   19e70:	6f697463 	svcvs	0x00697463
   19e74:	0000006e 	andeq	r0, r0, lr, rrx
   19e78:	00697773 	rsbeq	r7, r9, r3, ror r7
   19e7c:	66657270 			; <UNDEFINED> instruction: 0x66657270
   19e80:	68637465 	stmdavs	r3!, {r0, r2, r5, r6, sl, ip, sp, lr}^
   19e84:	6f62615f 	svcvs	0x0062615f
   19e88:	00007472 	andeq	r7, r0, r2, ror r4
   19e8c:	74616420 	strbtvc	r6, [r1], #-1056	; 0x420
   19e90:	62615f61 	rsbvs	r5, r1, #388	; 0x184
   19e94:	2074726f 	rsbscs	r7, r4, pc, ror #4
   19e98:	00000000 	andeq	r0, r0, r0

00019e9c <intcRegs>:
   19e9c:	2000b200 	andcs	fp, r0, r0, lsl #4

00019ea0 <timerRegs>:
   19ea0:	2000b400 	andcs	fp, r0, r0, lsl #8

00019ea4 <OSMapTbl>:
   19ea4:	08040201 	stmdaeq	r4, {r0, r9}
   19ea8:	80402010 	subhi	r2, r0, r0, lsl r0

00019eac <OSUnMapTbl>:
   19eac:	00010000 	andeq	r0, r1, r0
   19eb0:	00010002 	andeq	r0, r1, r2
   19eb4:	00010003 	andeq	r0, r1, r3
   19eb8:	00010002 	andeq	r0, r1, r2
   19ebc:	00010004 	andeq	r0, r1, r4
   19ec0:	00010002 	andeq	r0, r1, r2
   19ec4:	00010003 	andeq	r0, r1, r3
   19ec8:	00010002 	andeq	r0, r1, r2
   19ecc:	00010005 	andeq	r0, r1, r5
   19ed0:	00010002 	andeq	r0, r1, r2
   19ed4:	00010003 	andeq	r0, r1, r3
   19ed8:	00010002 	andeq	r0, r1, r2
   19edc:	00010004 	andeq	r0, r1, r4
   19ee0:	00010002 	andeq	r0, r1, r2
   19ee4:	00010003 	andeq	r0, r1, r3
   19ee8:	00010002 	andeq	r0, r1, r2
   19eec:	00010006 	andeq	r0, r1, r6
   19ef0:	00010002 	andeq	r0, r1, r2
   19ef4:	00010003 	andeq	r0, r1, r3
   19ef8:	00010002 	andeq	r0, r1, r2
   19efc:	00010004 	andeq	r0, r1, r4
   19f00:	00010002 	andeq	r0, r1, r2
   19f04:	00010003 	andeq	r0, r1, r3
   19f08:	00010002 	andeq	r0, r1, r2
   19f0c:	00010005 	andeq	r0, r1, r5
   19f10:	00010002 	andeq	r0, r1, r2
   19f14:	00010003 	andeq	r0, r1, r3
   19f18:	00010002 	andeq	r0, r1, r2
   19f1c:	00010004 	andeq	r0, r1, r4
   19f20:	00010002 	andeq	r0, r1, r2
   19f24:	00010003 	andeq	r0, r1, r3
   19f28:	00010002 	andeq	r0, r1, r2
   19f2c:	00010007 	andeq	r0, r1, r7
   19f30:	00010002 	andeq	r0, r1, r2
   19f34:	00010003 	andeq	r0, r1, r3
   19f38:	00010002 	andeq	r0, r1, r2
   19f3c:	00010004 	andeq	r0, r1, r4
   19f40:	00010002 	andeq	r0, r1, r2
   19f44:	00010003 	andeq	r0, r1, r3
   19f48:	00010002 	andeq	r0, r1, r2
   19f4c:	00010005 	andeq	r0, r1, r5
   19f50:	00010002 	andeq	r0, r1, r2
   19f54:	00010003 	andeq	r0, r1, r3
   19f58:	00010002 	andeq	r0, r1, r2
   19f5c:	00010004 	andeq	r0, r1, r4
   19f60:	00010002 	andeq	r0, r1, r2
   19f64:	00010003 	andeq	r0, r1, r3
   19f68:	00010002 	andeq	r0, r1, r2
   19f6c:	00010006 	andeq	r0, r1, r6
   19f70:	00010002 	andeq	r0, r1, r2
   19f74:	00010003 	andeq	r0, r1, r3
   19f78:	00010002 	andeq	r0, r1, r2
   19f7c:	00010004 	andeq	r0, r1, r4
   19f80:	00010002 	andeq	r0, r1, r2
   19f84:	00010003 	andeq	r0, r1, r3
   19f88:	00010002 	andeq	r0, r1, r2
   19f8c:	00010005 	andeq	r0, r1, r5
   19f90:	00010002 	andeq	r0, r1, r2
   19f94:	00010003 	andeq	r0, r1, r3
   19f98:	00010002 	andeq	r0, r1, r2
   19f9c:	00010004 	andeq	r0, r1, r4
   19fa0:	00010002 	andeq	r0, r1, r2
   19fa4:	00010003 	andeq	r0, r1, r3
   19fa8:	00010002 	andeq	r0, r1, r2

00019fac <intcRegs>:
   19fac:	2000b200 	andcs	fp, r0, r0, lsl #4

00019fb0 <timerRegs>:
   19fb0:	2000b400 	andcs	fp, r0, r0, lsl #8

00019fb4 <intcRegs>:
   19fb4:	2000b200 	andcs	fp, r0, r0, lsl #4

00019fb8 <timerRegs>:
   19fb8:	2000b400 	andcs	fp, r0, r0, lsl #8
   19fbc:	74726175 	ldrbtvc	r6, [r2], #-373	; 0x175
   19fc0:	00000031 	andeq	r0, r0, r1, lsr r0
   19fc4:	32707041 	rsbscc	r7, r0, #65	; 0x41
   19fc8:	61745320 	cmnvs	r4, r0, lsr #6
   19fcc:	64657472 	strbtvs	r7, [r5], #-1138	; 0x472
   19fd0:	00000d0a 	andeq	r0, r0, sl, lsl #26

Disassembly of section .data:

00019fd4 <dma_channel_reg>:
   19fd4:	00000110 	andeq	r0, r0, r0, lsl r1
   19fd8:	c0001000 	andgt	r1, r0, r0
   19fdc:	c0002000 	andgt	r2, r0, r0
   19fe0:	00000100 	andeq	r0, r0, r0, lsl #2
	...

Disassembly of section .bss:

00019fec <__bss_start>:
   19fec:	00000000 	andeq	r0, r0, r0

00019ff0 <uartRecvFifo>:
	...

0001a000 <uartTransFifo>:
	...

0001a010 <rByte>:
	...

0001a011 <tByte>:
   1a011:	00000000 	andeq	r0, r0, r0

0001a014 <uartTransIntrFlag>:
   1a014:	00000000 	andeq	r0, r0, r0

0001a018 <counter>:
   1a018:	00000000 	andeq	r0, r0, r0

0001a01c <UART_MEMORY_STATIC>:
	...

0001a81c <uart_dev.4278>:
	...

0001a834 <ulMaskedStatus.4197>:
   1a834:	00000000 	andeq	r0, r0, r0

0001a838 <tmp.4199>:
   1a838:	00000000 	andeq	r0, r0, r0

0001a83c <buf>:
	...

0001ac3c <g_VectorTable>:
	...

0001ae7c <devListAll>:
	...

0001b47c <OSLockNesting>:
	...

0001b47d <OSRunning>:
   1b47d:	00000000 	andeq	r0, r0, r0

0001b480 <OSIdleCtr>:
   1b480:	00000000 	andeq	r0, r0, r0

0001b484 <OSPrioHighRdy>:
   1b484:	00000000 	andeq	r0, r0, r0

0001b488 <OSFlagTbl>:
	...

0001b4c4 <OSPrioCur>:
   1b4c4:	00000000 	andeq	r0, r0, r0

0001b4c8 <OSTCBList>:
   1b4c8:	00000000 	andeq	r0, r0, r0

0001b4cc <OSMemTbl>:
	...

0001b530 <OSTaskStatStk>:
	...

0001bd30 <OSCtxSwCtr>:
   1bd30:	00000000 	andeq	r0, r0, r0

0001bd34 <OSIdleCtrMax>:
   1bd34:	00000000 	andeq	r0, r0, r0

0001bd38 <OSTCBFreeList>:
   1bd38:	00000000 	andeq	r0, r0, r0

0001bd3c <OSCPUUsage>:
	...

0001bd3d <OSTaskCtr>:
   1bd3d:	00000000 	andeq	r0, r0, r0

0001bd40 <OSMemFreeList>:
   1bd40:	00000000 	andeq	r0, r0, r0

0001bd44 <OSQTbl>:
	...

0001bdbc <OSTCBHighRdy>:
   1bdbc:	00000000 	andeq	r0, r0, r0

0001bdc0 <OSQFreeList>:
   1bdc0:	00000000 	andeq	r0, r0, r0

0001bdc4 <OSRdyGrp>:
   1bdc4:	00000000 	andeq	r0, r0, r0

0001bdc8 <OSRdyTbl>:
	...

0001bdd0 <OSEventFreeList>:
   1bdd0:	00000000 	andeq	r0, r0, r0

0001bdd4 <OSIntExitY>:
	...

0001bdd5 <OSIntNesting>:
   1bdd5:	00000000 	andeq	r0, r0, r0

0001bdd8 <OSTCBCur>:
   1bdd8:	00000000 	andeq	r0, r0, r0

0001bddc <OSTime>:
   1bddc:	00000000 	andeq	r0, r0, r0

0001bde0 <OSTaskIdleStk>:
	...

0001c5e0 <OSEventTbl>:
	...

0001c6d0 <OSTCBTbl>:
	...

0001ca44 <OSFlagFreeList>:
   1ca44:	00000000 	andeq	r0, r0, r0

0001ca48 <OSStatRdy>:
   1ca48:	00000000 	andeq	r0, r0, r0

0001ca4c <OSTCBPrioTbl>:
	...

0001cb4c <OSIdleCtrRun>:
   1cb4c:	00000000 	andeq	r0, r0, r0

0001cb50 <userAppTaskStk1>:
	...

000209d0 <userAppTaskStk2>:
	...

Disassembly of section .ARM.attributes:

00000000 <.ARM.attributes>:
   0:	00003341 	andeq	r3, r0, r1, asr #6
   4:	61656100 	cmnvs	r5, r0, lsl #2
   8:	01006962 	tsteq	r0, r2, ror #18
   c:	00000029 	andeq	r0, r0, r9, lsr #32
  10:	4d524105 	ldfmie	f4, [r2, #-20]	; 0xffffffec
  14:	36373131 			; <UNDEFINED> instruction: 0x36373131
  18:	2d465a4a 	vstrcs	s11, [r6, #-296]	; 0xfffffed8
  1c:	07060053 	smlsdeq	r6, r3, r0, r0
  20:	01090108 	tsteq	r9, r8, lsl #2
  24:	01140412 	tsteq	r4, r2, lsl r4
  28:	03170115 	tsteq	r7, #1073741829	; 0x40000005
  2c:	011a0118 	tsteq	sl, r8, lsl r1
  30:	01440122 	cmpeq	r4, r2, lsr #2

Disassembly of section .comment:

00000000 <.comment>:
   0:	3a434347 	bcc	10d0d24 <_estack+0xec0d24>
   4:	4e472820 	cdpmi	8, 4, cr2, cr7, cr0, {1}
   8:	6f542055 	svcvs	0x00542055
   c:	20736c6f 	rsbscs	r6, r3, pc, ror #24
  10:	20726f66 	rsbscs	r6, r2, r6, ror #30
  14:	204d5241 	subcs	r5, sp, r1, asr #4
  18:	65626d45 	strbvs	r6, [r2, #-3397]!	; 0xd45
  1c:	64656464 	strbtvs	r6, [r5], #-1124	; 0x464
  20:	6f725020 	svcvs	0x00725020
  24:	73736563 	cmnvc	r3, #415236096	; 0x18c00000
  28:	2973726f 	ldmdbcs	r3!, {r0, r1, r2, r3, r5, r6, r9, ip, sp, lr}^
  2c:	382e3420 	stmdacc	lr!, {r5, sl, ip, sp}
  30:	3220342e 	eorcc	r3, r0, #771751936	; 0x2e000000
  34:	30343130 	eorscc	r3, r4, r0, lsr r1
  38:	20363235 	eorscs	r3, r6, r5, lsr r2
  3c:	6c657228 	sfmvs	f7, 2, [r5], #-160	; 0xffffff60
  40:	65736165 	ldrbvs	r6, [r3, #-357]!	; 0x165
  44:	415b2029 	cmpmi	fp, r9, lsr #32
  48:	652f4d52 	strvs	r4, [pc, #-3410]!	; fffff2fe <_estack+0xffdef2fe>
  4c:	6465626d 	strbtvs	r6, [r5], #-621	; 0x26d
  50:	2d646564 	cfstr64cs	mvdx6, [r4, #-400]!	; 0xfffffe70
  54:	2d385f34 	ldccs	15, cr5, [r8, #-208]!	; 0xffffff30
  58:	6e617262 	cdpvs	2, 6, cr7, cr1, cr2, {3}
  5c:	72206863 	eorvc	r6, r0, #6488064	; 0x630000
  60:	73697665 	cmnvc	r9, #105906176	; 0x6500000
  64:	206e6f69 	rsbcs	r6, lr, r9, ror #30
  68:	33313132 	teqcc	r1, #-2147483636	; 0x8000000c
  6c:	005d3835 	subseq	r3, sp, r5, lsr r8
  70:	3a434347 	bcc	10d0d94 <_estack+0xec0d94>
  74:	4e472820 	cdpmi	8, 4, cr2, cr7, cr0, {1}
  78:	34202955 	strtcc	r2, [r0], #-2389	; 0x955
  7c:	322e372e 	eorcc	r3, lr, #12058624	; 0xb80000
	...

Disassembly of section .debug_info:

00000000 <.debug_info>:
   0:	00000132 	andeq	r0, r0, r2, lsr r1
   4:	00000002 	andeq	r0, r0, r2
   8:	01040000 	mrseq	r0, (UNDEF: 4)
   c:	00000021 	andeq	r0, r0, r1, lsr #32
  10:	0000ce01 	andeq	ip, r0, r1, lsl #28
  14:	00006f00 	andeq	r6, r0, r0, lsl #30
  18:	01986000 	orrseq	r6, r8, r0
  1c:	01995400 	orrseq	r5, r9, r0, lsl #8
  20:	00000000 	andeq	r0, r0, r0
  24:	06010200 	streq	r0, [r1], -r0, lsl #4
  28:	00000050 	andeq	r0, r0, r0, asr r0
  2c:	4e080102 	adfmie	f0, f0, f2
  30:	02000000 	andeq	r0, r0, #0
  34:	01190502 	tsteq	r9, r2, lsl #10
  38:	02020000 	andeq	r0, r2, #0
  3c:	0000bb07 	andeq	fp, r0, r7, lsl #22
  40:	05040300 	streq	r0, [r4, #-768]	; 0x300
  44:	00746e69 	rsbseq	r6, r4, r9, ror #28
  48:	3c070402 	cfstrscc	mvf0, [r7], {2}
  4c:	02000000 	andeq	r0, r0, #0
  50:	00000508 	andeq	r0, r0, r8, lsl #10
  54:	08020000 	stmdaeq	r2, {}	; <UNPREDICTABLE>
  58:	00003207 	andeq	r3, r0, r7, lsl #4
  5c:	05040200 	streq	r0, [r4, #-512]	; 0x200
  60:	00000005 	andeq	r0, r0, r5
  64:	23070402 	movwcs	r0, #29698	; 0x7402
  68:	04000001 	streq	r0, [r0], #-1
  6c:	07040204 	streq	r0, [r4, -r4, lsl #4]
  70:	00000037 	andeq	r0, r0, r7, lsr r0
  74:	007a0405 	rsbseq	r0, sl, r5, lsl #8
  78:	01020000 	mrseq	r0, (UNDEF: 2)
  7c:	00005708 	andeq	r5, r0, r8, lsl #14
  80:	87040500 	strhi	r0, [r4, -r0, lsl #10]
  84:	06000000 	streq	r0, [r0], -r0
  88:	0000007a 	andeq	r0, r0, sl, ror r0
  8c:	00001a07 	andeq	r1, r0, r7, lsl #20
  90:	48d50300 	ldmmi	r5, {r8, r9}^
  94:	08000000 	stmdaeq	r0, {}	; <UNPREDICTABLE>
  98:	00006801 	andeq	r6, r0, r1, lsl #16
  9c:	01190200 	tsteq	r9, r0, lsl #4
  a0:	0000006b 	andeq	r0, r0, fp, rrx
  a4:	00019860 	andeq	r9, r1, r0, ror #16
  a8:	00019954 	andeq	r9, r1, r4, asr r9
  ac:	00000000 	andeq	r0, r0, r0
  b0:	00011d01 	andeq	r1, r1, r1, lsl #26
  b4:	00490900 	subeq	r0, r9, r0, lsl #18
  b8:	35010000 	strcc	r0, [r1, #-0]
  bc:	0000006b 	andeq	r0, r0, fp, rrx
  c0:	2d0a5001 	stccs	0, cr5, [sl, #-4]
  c4:	01000000 	mrseq	r0, (UNDEF: 0)
  c8:	00011d35 	andeq	r1, r1, r5, lsr sp
  cc:	00002000 	andeq	r2, r0, r0
  d0:	01140a00 	tsteq	r4, r0, lsl #20
  d4:	35010000 	strcc	r0, [r1, #-0]
  d8:	0000008c 	andeq	r0, r0, ip, lsl #1
  dc:	00000073 	andeq	r0, r0, r3, ror r0
  e0:	7473640b 	ldrbtvc	r6, [r3], #-1035	; 0x40b
  e4:	74470100 	strbvc	r0, [r7], #-256	; 0x100
  e8:	fe000000 	cdp2	0, 0, cr0, cr0, cr0, {0}
  ec:	0b000000 	bleq	f4 <_start-0x7f0c>
  f0:	00637273 	rsbeq	r7, r3, r3, ror r2
  f4:	00814801 	addeq	r4, r1, r1, lsl #16
  f8:	01270000 	teqeq	r7, r0
  fc:	0e0c0000 	cdpeq	0, 0, cr0, cr12, cr0, {0}
 100:	01000000 	mrseq	r0, (UNDEF: 0)
 104:	00012449 	andeq	r2, r1, r9, asr #8
 108:	00017900 	andeq	r7, r1, r0, lsl #18
 10c:	005c0c00 	subseq	r0, ip, r0, lsl #24
 110:	4a010000 	bmi	40118 <__bss_end+0x1b8c8>
 114:	0000012a 	andeq	r0, r0, sl, lsr #2
 118:	000001d4 	ldrdeq	r0, [r0], -r4
 11c:	23040500 	movwcs	r0, #17664	; 0x4500
 120:	0d000001 	stceq	0, cr0, [r0, #-4]
 124:	005d0405 	subseq	r0, sp, r5, lsl #8
 128:	04050000 	streq	r0, [r5], #-0
 12c:	00000130 	andeq	r0, r0, r0, lsr r1
 130:	00005d06 	andeq	r5, r0, r6, lsl #26
 134:	01180000 	tsteq	r8, r0
 138:	00020000 	andeq	r0, r2, r0
 13c:	000000ab 	andeq	r0, r0, fp, lsr #1
 140:	00210104 	eoreq	r0, r1, r4, lsl #2
 144:	80010000 	andhi	r0, r1, r0
 148:	2c000001 	stccs	0, cr0, [r0], {1}
 14c:	54000001 	strpl	r0, [r0], #-1
 150:	4c000199 	stfmis	f0, [r0], {153}	; 0x99
 154:	8b00019a 	blhi	7c4 <_start-0x783c>
 158:	02000001 	andeq	r0, r0, #1
 15c:	00500601 	subseq	r0, r0, r1, lsl #12
 160:	01020000 	mrseq	r0, (UNDEF: 2)
 164:	00004e08 	andeq	r4, r0, r8, lsl #28
 168:	05020200 	streq	r0, [r2, #-512]	; 0x200
 16c:	00000119 	andeq	r0, r0, r9, lsl r1
 170:	bb070202 	bllt	1c0980 <__bss_end+0x19c130>
 174:	03000000 	movweq	r0, #0
 178:	6e690504 	cdpvs	5, 6, cr0, cr9, cr4, {0}
 17c:	04020074 	streq	r0, [r2], #-116	; 0x74
 180:	00003c07 	andeq	r3, r0, r7, lsl #24
 184:	05080200 	streq	r0, [r8, #-512]	; 0x200
 188:	00000000 	andeq	r0, r0, r0
 18c:	32070802 	andcc	r0, r7, #131072	; 0x20000
 190:	02000000 	andeq	r0, r0, #0
 194:	00050504 	andeq	r0, r5, r4, lsl #10
 198:	04020000 	streq	r0, [r2], #-0
 19c:	00012307 	andeq	r2, r1, r7, lsl #6
 1a0:	02040400 	andeq	r0, r4, #0, 8
 1a4:	00370704 	eorseq	r0, r7, r4, lsl #14
 1a8:	04050000 	streq	r0, [r5], #-0
 1ac:	0000007a 	andeq	r0, r0, sl, ror r0
 1b0:	57080102 	strpl	r0, [r8, -r2, lsl #2]
 1b4:	06000000 	streq	r0, [r0], -r0
 1b8:	0000001a 	andeq	r0, r0, sl, lsl r0
 1bc:	0048d503 	subeq	sp, r8, r3, lsl #10
 1c0:	01070000 	mrseq	r0, (UNDEF: 7)
 1c4:	000001b9 			; <UNDEFINED> instruction: 0x000001b9
 1c8:	6b011b02 	blvs	46dd8 <__bss_end+0x22588>
 1cc:	54000000 	strpl	r0, [r0], #-0
 1d0:	4c000199 	stfmis	f0, [r0], {153}	; 0x99
 1d4:	3100019a 			; <UNDEFINED> instruction: 0x3100019a
 1d8:	01000002 	tsteq	r0, r2
 1dc:	00000115 	andeq	r0, r0, r5, lsl r1
 1e0:	01006d08 	tsteq	r0, r8, lsl #26
 1e4:	00006b2b 	andeq	r6, r0, fp, lsr #22
 1e8:	09500100 	ldmdbeq	r0, {r8}^
 1ec:	2b010063 	blcs	40380 <__bss_end+0x1bb30>
 1f0:	00000041 	andeq	r0, r0, r1, asr #32
 1f4:	00000251 	andeq	r0, r0, r1, asr r2
 1f8:	01006e09 	tsteq	r0, r9, lsl #28
 1fc:	0000812b 	andeq	r8, r0, fp, lsr #2
 200:	00027d00 	andeq	r7, r2, r0, lsl #26
 204:	00730a00 	rsbseq	r0, r3, r0, lsl #20
 208:	00743001 	rsbseq	r3, r4, r1
 20c:	02ec0000 	rsceq	r0, ip, #0
 210:	690a0000 	stmdbvs	sl, {}	; <UNPREDICTABLE>
 214:	41330100 	teqmi	r3, r0, lsl #2
 218:	43000000 	movwmi	r0, #0
 21c:	0b000003 	bleq	230 <_start-0x7dd0>
 220:	000001c0 	andeq	r0, r0, r0, asr #3
 224:	006d3401 	rsbeq	r3, sp, r1, lsl #8
 228:	03580000 	cmpeq	r8, #0
 22c:	730b0000 	movwvc	r0, #45056	; 0xb000
 230:	01000001 	tsteq	r0, r1
 234:	00011535 	andeq	r1, r1, r5, lsr r5
 238:	00036b00 	andeq	r6, r3, r0, lsl #22
 23c:	00640a00 	rsbeq	r0, r4, r0, lsl #20
 240:	00483601 	subeq	r3, r8, r1, lsl #12
 244:	03d10000 	bicseq	r0, r1, #0
 248:	05000000 	streq	r0, [r0, #-0]
 24c:	00006d04 	andeq	r6, r0, r4, lsl #26
 250:	00ec0000 	rsceq	r0, ip, r0
 254:	00020000 	andeq	r0, r2, r0
 258:	0000014a 	andeq	r0, r0, sl, asr #2
 25c:	00210104 	eoreq	r0, r1, r4, lsl #2
 260:	df010000 	svcle	0x00010000
 264:	6f000001 	svcvs	0x00000001
 268:	4c000000 	stcmi	0, cr0, [r0], {-0}
 26c:	7c00019a 	stfvcs	f0, [r0], {154}	; 0x9a
 270:	0400019c 	streq	r0, [r0], #-412	; 0x19c
 274:	02000003 	andeq	r0, r0, #3
 278:	00500601 	subseq	r0, r0, r1, lsl #12
 27c:	01020000 	mrseq	r0, (UNDEF: 2)
 280:	00004e08 	andeq	r4, r0, r8, lsl #28
 284:	05020200 	streq	r0, [r2, #-512]	; 0x200
 288:	00000119 	andeq	r0, r0, r9, lsl r1
 28c:	bb070202 	bllt	1c0a9c <__bss_end+0x19c24c>
 290:	03000000 	movweq	r0, #0
 294:	6e690504 	cdpvs	5, 6, cr0, cr9, cr4, {0}
 298:	04020074 	streq	r0, [r2], #-116	; 0x74
 29c:	00003c07 	andeq	r3, r0, r7, lsl #24
 2a0:	05080200 	streq	r0, [r8, #-512]	; 0x200
 2a4:	00000000 	andeq	r0, r0, r0
 2a8:	32070802 	andcc	r0, r7, #131072	; 0x20000
 2ac:	02000000 	andeq	r0, r0, #0
 2b0:	00050504 	andeq	r0, r5, r4, lsl #10
 2b4:	04020000 	streq	r0, [r2], #-0
 2b8:	00012307 	andeq	r2, r1, r7, lsl #6
 2bc:	07040200 	streq	r0, [r4, -r0, lsl #4]
 2c0:	00000037 	andeq	r0, r0, r7, lsr r0
 2c4:	57080102 	strpl	r0, [r8, -r2, lsl #2]
 2c8:	04000000 	streq	r0, [r0], #-0
 2cc:	00007f04 	andeq	r7, r0, r4, lsl #30
 2d0:	00720500 	rsbseq	r0, r2, r0, lsl #10
 2d4:	01060000 	mrseq	r0, (UNDEF: 6)
 2d8:	000001d8 	ldrdeq	r0, [r0], -r8
 2dc:	41011e02 	tstmi	r1, r2, lsl #28
 2e0:	4c000000 	stcmi	0, cr0, [r0], {-0}
 2e4:	e000019a 	mul	r0, sl, r1
 2e8:	0200019a 	andeq	r0, r0, #-2147483610	; 0x80000026
 2ec:	bc01007d 	stclt	0, cr0, [r1], {125}	; 0x7d
 2f0:	07000000 	streq	r0, [r0, -r0]
 2f4:	01003173 	tsteq	r0, r3, ror r1
 2f8:	00007936 	andeq	r7, r0, r6, lsr r9
 2fc:	00042500 	andeq	r2, r4, r0, lsl #10
 300:	32730800 	rsbscc	r0, r3, #0, 16
 304:	79360100 	ldmdbvc	r6!, {r8}
 308:	01000000 	mrseq	r0, (UNDEF: 0)
 30c:	c7090051 	smlsdgt	r9, r1, r0, r0
 310:	01000001 	tsteq	r0, r1
 314:	004101a9 	subeq	r0, r1, r9, lsr #3
 318:	9ae00000 	bls	ff800320 <_estack+0xff5f0320>
 31c:	9c7c0001 	ldclls	0, cr0, [ip], #-4
 320:	7d020001 	stcvc	0, cr0, [r2, #-4]
 324:	73070100 	movwvc	r0, #28928	; 0x7100
 328:	a9010031 	stmdbge	r1, {r0, r4, r5}
 32c:	00000079 	andeq	r0, r0, r9, ror r0
 330:	00000446 	andeq	r0, r0, r6, asr #8
 334:	00327308 	eorseq	r7, r2, r8, lsl #6
 338:	0079a901 	rsbseq	sl, r9, r1, lsl #18
 33c:	51010000 	mrspl	r0, (UNDEF: 1)
 340:	008d0000 	addeq	r0, sp, r0
 344:	00020000 	andeq	r0, r2, r0
 348:	000001d6 	ldrdeq	r0, [r0], -r6
 34c:	03c80104 	biceq	r0, r8, #4, 2
 350:	9c7c0000 	ldclls	0, cr0, [ip], #-0
 354:	9d900001 	ldcls	0, cr0, [r0, #4]
 358:	2e2e0001 	cdpcs	0, 2, cr0, cr14, cr1, {0}
 35c:	2f2e2e2f 	svccs	0x002e2e2f
 360:	672f2e2e 	strvs	r2, [pc, -lr, lsr #28]!
 364:	342d6363 	strtcc	r6, [sp], #-867	; 0x363
 368:	322e372e 	eorcc	r3, lr, #12058624	; 0xb80000
 36c:	62696c2f 	rsbvs	r6, r9, #12032	; 0x2f00
 370:	2f636367 	svccs	0x00636367
 374:	666e6f63 	strbtvs	r6, [lr], -r3, ror #30
 378:	612f6769 	teqvs	pc, r9, ror #14
 37c:	6c2f6d72 	stcvs	13, cr6, [pc], #-456	; 1bc <_start-0x7e44>
 380:	66316269 	ldrtvs	r6, [r1], -r9, ror #4
 384:	73636e75 	cmnvc	r3, #1872	; 0x750
 388:	4300532e 	movwmi	r5, #814	; 0x32e
 38c:	736d5c3a 	cmnvc	sp, #14848	; 0x3a00
 390:	315c7379 	cmpcc	ip, r9, ror r3
 394:	685c302e 	ldmdavs	ip, {r1, r2, r3, r5, ip, sp}^
 398:	5c656d6f 	stclpl	13, cr6, [r5], #-444	; 0xfffffe44
 39c:	61676179 	smcvs	30233	; 0x7619
 3a0:	5c6f7472 	cfstrdpl	mvd7, [pc], #-456	; 1e0 <_start-0x7e20>
 3a4:	2d636367 	stclcs	3, cr6, [r3, #-412]!	; 0xfffffe64
 3a8:	6c697562 	cfstr64vs	mvdx7, [r9], #-392	; 0xfffffe78
 3ac:	72615c64 	rsbvc	r5, r1, #100, 24	; 0x6400
 3b0:	6f6e2d6d 	svcvs	0x006e2d6d
 3b4:	652d656e 	strvs	r6, [sp, #-1390]!	; 0x56e
 3b8:	5c696261 	sfmpl	f6, 2, [r9], #-388	; 0xfffffe7c
 3bc:	6762696c 	strbvs	r6, [r2, -ip, ror #18]!
 3c0:	47006363 	strmi	r6, [r0, -r3, ror #6]
 3c4:	4120554e 	teqmi	r0, lr, asr #10
 3c8:	2e322053 	mrccs	0, 1, r2, cr2, cr3, {2}
 3cc:	312e3332 	teqcc	lr, r2, lsr r3
 3d0:	8d800100 	stfhis	f0, [r0]
 3d4:	02000000 	andeq	r0, r0, #0
 3d8:	0001ea00 	andeq	lr, r1, r0, lsl #20
 3dc:	52010400 	andpl	r0, r1, #0, 8
 3e0:	90000004 	andls	r0, r0, r4
 3e4:	9400019d 	strls	r0, [r0], #-413	; 0x19d
 3e8:	2e00019d 	mcrcs	1, 0, r0, cr0, cr13, {4}
 3ec:	2e2e2f2e 	cdpcs	15, 2, cr2, cr14, cr14, {1}
 3f0:	2f2e2e2f 	svccs	0x002e2e2f
 3f4:	2d636367 	stclcs	3, cr6, [r3, #-412]!	; 0xfffffe64
 3f8:	2e372e34 	mrccs	14, 1, r2, cr7, cr4, {1}
 3fc:	696c2f32 	stmdbvs	ip!, {r1, r4, r5, r8, r9, sl, fp, sp}^
 400:	63636762 	cmnvs	r3, #25690112	; 0x1880000
 404:	6e6f632f 	cdpvs	3, 6, cr6, cr15, cr15, {1}
 408:	2f676966 	svccs	0x00676966
 40c:	2f6d7261 	svccs	0x006d7261
 410:	3162696c 	cmncc	r2, ip, ror #18
 414:	636e7566 	cmnvs	lr, #427819008	; 0x19800000
 418:	00532e73 	subseq	r2, r3, r3, ror lr
 41c:	6d5c3a43 	vldrvs	s7, [ip, #-268]	; 0xfffffef4
 420:	5c737973 	ldclpl	9, cr7, [r3], #-460	; 0xfffffe34
 424:	5c302e31 	ldcpl	14, cr2, [r0], #-196	; 0xffffff3c
 428:	656d6f68 	strbvs	r6, [sp, #-3944]!	; 0xf68
 42c:	6761795c 			; <UNDEFINED> instruction: 0x6761795c
 430:	6f747261 	svcvs	0x00747261
 434:	6363675c 	cmnvs	r3, #92, 14	; 0x1700000
 438:	6975622d 	ldmdbvs	r5!, {r0, r2, r3, r5, r9, sp, lr}^
 43c:	615c646c 	cmpvs	ip, ip, ror #8
 440:	6e2d6d72 	mcrvs	13, 1, r6, cr13, cr2, {3}
 444:	2d656e6f 	stclcs	14, cr6, [r5, #-444]!	; 0xfffffe44
 448:	69626165 	stmdbvs	r2!, {r0, r2, r5, r6, r8, sp, lr}^
 44c:	62696c5c 	rsbvs	r6, r9, #92, 24	; 0x5c00
 450:	00636367 	rsbeq	r6, r3, r7, ror #6
 454:	20554e47 	subscs	r4, r5, r7, asr #28
 458:	32205341 	eorcc	r5, r0, #67108865	; 0x4000001
 45c:	2e33322e 	cdpcs	2, 3, cr3, cr3, cr14, {1}
 460:	80010031 	andhi	r0, r1, r1, lsr r0

Disassembly of section .debug_abbrev:

00000000 <.debug_abbrev>:
   0:	25011101 	strcs	r1, [r1, #-257]	; 0x101
   4:	030b130e 	movweq	r1, #45838	; 0xb30e
   8:	110e1b0e 	tstne	lr, lr, lsl #22
   c:	10011201 	andne	r1, r1, r1, lsl #4
  10:	02000006 	andeq	r0, r0, #6
  14:	0b0b0024 	bleq	2c00ac <_estack+0xb00ac>
  18:	0e030b3e 	vmoveq.16	d3[0], r0
  1c:	24030000 	strcs	r0, [r3], #-0
  20:	3e0b0b00 	vmlacc.f64	d0, d11, d0
  24:	0008030b 	andeq	r0, r8, fp, lsl #6
  28:	000f0400 	andeq	r0, pc, r0, lsl #8
  2c:	00000b0b 	andeq	r0, r0, fp, lsl #22
  30:	0b000f05 	bleq	3c4c <_start-0x43b4>
  34:	0013490b 	andseq	r4, r3, fp, lsl #18
  38:	00260600 	eoreq	r0, r6, r0, lsl #12
  3c:	00001349 	andeq	r1, r0, r9, asr #6
  40:	03001607 	movweq	r1, #1543	; 0x607
  44:	3b0b3a0e 	blcc	2ce884 <_estack+0xbe884>
  48:	0013490b 	andseq	r4, r3, fp, lsl #18
  4c:	012e0800 	teqeq	lr, r0, lsl #16
  50:	0e030c3f 	mcreq	12, 0, r0, cr3, cr15, {1}
  54:	0b3b0b3a 	bleq	ec2d44 <_estack+0xcb2d44>
  58:	13490c27 	movtne	r0, #39975	; 0x9c27
  5c:	01120111 	tsteq	r2, r1, lsl r1
  60:	42970640 	addsmi	r0, r7, #64, 12	; 0x4000000
  64:	0013010c 	andseq	r0, r3, ip, lsl #2
  68:	00050900 	andeq	r0, r5, r0, lsl #18
  6c:	0b3a0e03 	bleq	e83880 <_estack+0xc73880>
  70:	13490b3b 	movtne	r0, #39739	; 0x9b3b
  74:	00000a02 	andeq	r0, r0, r2, lsl #20
  78:	0300050a 	movweq	r0, #1290	; 0x50a
  7c:	3b0b3a0e 	blcc	2ce8bc <_estack+0xbe8bc>
  80:	0213490b 	andseq	r4, r3, #180224	; 0x2c000
  84:	0b000006 	bleq	a4 <_start-0x7f5c>
  88:	08030034 	stmdaeq	r3, {r2, r4, r5}
  8c:	0b3b0b3a 	bleq	ec2d7c <_estack+0xcb2d7c>
  90:	06021349 	streq	r1, [r2], -r9, asr #6
  94:	340c0000 	strcc	r0, [ip], #-0
  98:	3a0e0300 	bcc	380ca0 <_estack+0x170ca0>
  9c:	490b3b0b 	stmdbmi	fp, {r0, r1, r3, r8, r9, fp, ip, sp}
  a0:	00060213 	andeq	r0, r6, r3, lsl r2
  a4:	00260d00 	eoreq	r0, r6, r0, lsl #26
  a8:	01000000 	mrseq	r0, (UNDEF: 0)
  ac:	0e250111 	mcreq	1, 1, r0, cr5, cr1, {0}
  b0:	0e030b13 	vmoveq.32	d3[0], r0
  b4:	01110e1b 	tsteq	r1, fp, lsl lr
  b8:	06100112 			; <UNDEFINED> instruction: 0x06100112
  bc:	24020000 	strcs	r0, [r2], #-0
  c0:	3e0b0b00 	vmlacc.f64	d0, d11, d0
  c4:	000e030b 	andeq	r0, lr, fp, lsl #6
  c8:	00240300 	eoreq	r0, r4, r0, lsl #6
  cc:	0b3e0b0b 	bleq	f82d00 <_estack+0xd72d00>
  d0:	00000803 	andeq	r0, r0, r3, lsl #16
  d4:	0b000f04 	bleq	3cec <_start-0x4314>
  d8:	0500000b 	streq	r0, [r0, #-11]
  dc:	0b0b000f 	bleq	2c0120 <_estack+0xb0120>
  e0:	00001349 	andeq	r1, r0, r9, asr #6
  e4:	03001606 	movweq	r1, #1542	; 0x606
  e8:	3b0b3a0e 	blcc	2ce928 <_estack+0xbe928>
  ec:	0013490b 	andseq	r4, r3, fp, lsl #18
  f0:	012e0700 	teqeq	lr, r0, lsl #14
  f4:	0e030c3f 	mcreq	12, 0, r0, cr3, cr15, {1}
  f8:	0b3b0b3a 	bleq	ec2de8 <_estack+0xcb2de8>
  fc:	13490c27 	movtne	r0, #39975	; 0x9c27
 100:	01120111 	tsteq	r2, r1, lsl r1
 104:	42970640 	addsmi	r0, r7, #64, 12	; 0x4000000
 108:	0013010c 	andseq	r0, r3, ip, lsl #2
 10c:	00050800 	andeq	r0, r5, r0, lsl #16
 110:	0b3a0803 	bleq	e82124 <_estack+0xc72124>
 114:	13490b3b 	movtne	r0, #39739	; 0x9b3b
 118:	00000a02 	andeq	r0, r0, r2, lsl #20
 11c:	03000509 	movweq	r0, #1289	; 0x509
 120:	3b0b3a08 	blcc	2ce948 <_estack+0xbe948>
 124:	0213490b 	andseq	r4, r3, #180224	; 0x2c000
 128:	0a000006 	beq	148 <_start-0x7eb8>
 12c:	08030034 	stmdaeq	r3, {r2, r4, r5}
 130:	0b3b0b3a 	bleq	ec2e20 <_estack+0xcb2e20>
 134:	06021349 	streq	r1, [r2], -r9, asr #6
 138:	340b0000 	strcc	r0, [fp], #-0
 13c:	3a0e0300 	bcc	380d44 <_estack+0x170d44>
 140:	490b3b0b 	stmdbmi	fp, {r0, r1, r3, r8, r9, fp, ip, sp}
 144:	00060213 	andeq	r0, r6, r3, lsl r2
 148:	11010000 	mrsne	r0, (UNDEF: 1)
 14c:	130e2501 	movwne	r2, #58625	; 0xe501
 150:	1b0e030b 	blne	380d84 <_estack+0x170d84>
 154:	1201110e 	andne	r1, r1, #-2147483645	; 0x80000003
 158:	00061001 	andeq	r1, r6, r1
 15c:	00240200 	eoreq	r0, r4, r0, lsl #4
 160:	0b3e0b0b 	bleq	f82d94 <_estack+0xd72d94>
 164:	00000e03 	andeq	r0, r0, r3, lsl #28
 168:	0b002403 	bleq	917c <__module_entries_end+0x10e0>
 16c:	030b3e0b 	movweq	r3, #48651	; 0xbe0b
 170:	04000008 	streq	r0, [r0], #-8
 174:	0b0b000f 	bleq	2c01b8 <_estack+0xb01b8>
 178:	00001349 	andeq	r1, r0, r9, asr #6
 17c:	49002605 	stmdbmi	r0, {r0, r2, r9, sl, sp}
 180:	06000013 			; <UNDEFINED> instruction: 0x06000013
 184:	0c3f012e 	ldfeqs	f0, [pc], #-184	; d4 <_start-0x7f2c>
 188:	0b3a0e03 	bleq	e8399c <_estack+0xc7399c>
 18c:	0c270b3b 	stceq	11, cr0, [r7], #-236	; 0xffffff14
 190:	01111349 	tsteq	r1, r9, asr #6
 194:	0a400112 	beq	10005e4 <_estack+0xdf05e4>
 198:	010c4297 			; <UNDEFINED> instruction: 0x010c4297
 19c:	07000013 	smladeq	r0, r3, r0, r0
 1a0:	08030005 	stmdaeq	r3, {r0, r2}
 1a4:	0b3b0b3a 	bleq	ec2e94 <_estack+0xcb2e94>
 1a8:	06021349 	streq	r1, [r2], -r9, asr #6
 1ac:	05080000 	streq	r0, [r8, #-0]
 1b0:	3a080300 	bcc	200db8 <__bss_end+0x1dc568>
 1b4:	490b3b0b 	stmdbmi	fp, {r0, r1, r3, r8, r9, fp, ip, sp}
 1b8:	000a0213 	andeq	r0, sl, r3, lsl r2
 1bc:	012e0900 	teqeq	lr, r0, lsl #18
 1c0:	0b3a0e03 	bleq	e839d4 <_estack+0xc739d4>
 1c4:	0c270b3b 	stceq	11, cr0, [r7], #-236	; 0xffffff14
 1c8:	01111349 	tsteq	r1, r9, asr #6
 1cc:	0a400112 	beq	100061c <_estack+0xdf061c>
 1d0:	000c4297 	muleq	ip, r7, r2
 1d4:	11010000 	mrsne	r0, (UNDEF: 1)
 1d8:	11061000 	mrsne	r1, (UNDEF: 6)
 1dc:	03011201 	movweq	r1, #4609	; 0x1201
 1e0:	25081b08 	strcs	r1, [r8, #-2824]	; 0xb08
 1e4:	00051308 	andeq	r1, r5, r8, lsl #6
 1e8:	11010000 	mrsne	r0, (UNDEF: 1)
 1ec:	11061000 	mrsne	r1, (UNDEF: 6)
 1f0:	03011201 	movweq	r1, #4609	; 0x1201
 1f4:	25081b08 	strcs	r1, [r8, #-2824]	; 0xb08
 1f8:	00051308 	andeq	r1, r5, r8, lsl #6
	...

Disassembly of section .debug_loc:

00000000 <.debug_loc>:
   0:	00000000 	andeq	r0, r0, r0
   4:	00000008 	andeq	r0, r0, r8
   8:	007d0002 	rsbseq	r0, sp, r2
   c:	00000008 	andeq	r0, r0, r8
  10:	000000f4 	strdeq	r0, [r0], -r4
  14:	107d0002 	rsbsne	r0, sp, r2
	...
  24:	00000074 	andeq	r0, r0, r4, ror r0
  28:	74510001 	ldrbvc	r0, [r1], #-1
  2c:	b8000000 	stmdalt	r0, {}	; <UNPREDICTABLE>
  30:	04000000 	streq	r0, [r0], #-0
  34:	5101f300 	mrspl	pc, SP_irq	; <UNPREDICTABLE>
  38:	0000b89f 	muleq	r0, pc, r8	; <UNPREDICTABLE>
  3c:	0000bc00 	andeq	fp, r0, r0, lsl #24
  40:	51000100 	mrspl	r0, (UNDEF: 16)
  44:	000000bc 	strheq	r0, [r0], -ip
  48:	000000e4 	andeq	r0, r0, r4, ror #1
  4c:	01f30004 	mvnseq	r0, r4
  50:	00e49f51 	rsceq	r9, r4, r1, asr pc
  54:	00ec0000 	rsceq	r0, ip, r0
  58:	00010000 	andeq	r0, r1, r0
  5c:	0000ec51 	andeq	lr, r0, r1, asr ip
  60:	0000f400 	andeq	pc, r0, r0, lsl #8
  64:	f3000400 	vshl.u8	d0, d0, d0
  68:	009f5101 	addseq	r5, pc, r1, lsl #2
	...
  74:	24000000 	strcs	r0, [r0], #-0
  78:	01000000 	mrseq	r0, (UNDEF: 0)
  7c:	00245200 	eoreq	r5, r4, r0, lsl #4
  80:	00400000 	subeq	r0, r0, r0
  84:	00010000 	andeq	r0, r1, r0
  88:	00004054 	andeq	r4, r0, r4, asr r0
  8c:	00005400 	andeq	r5, r0, r0, lsl #8
  90:	74000300 	strvc	r0, [r0], #-768	; 0x300
  94:	00549f10 	subseq	r9, r4, r0, lsl pc
  98:	005c0000 	subseq	r0, ip, r0
  9c:	00010000 	andeq	r0, r1, r0
  a0:	00007454 	andeq	r7, r0, r4, asr r4
  a4:	00007c00 	andeq	r7, r0, r0, lsl #24
  a8:	5c000100 	stfpls	f0, [r0], {-0}
  ac:	0000007c 	andeq	r0, r0, ip, ror r0
  b0:	00000088 	andeq	r0, r0, r8, lsl #1
  b4:	047c0003 	ldrbteq	r0, [ip], #-3
  b8:	0000889f 	muleq	r0, pc, r8	; <UNPREDICTABLE>
  bc:	00009000 	andeq	r9, r0, r0
  c0:	72000500 	andvc	r0, r0, #0, 10
  c4:	9f1a3f00 	svcls	0x001a3f00
  c8:	000000b8 	strheq	r0, [r0], -r8
  cc:	000000bc 	strheq	r0, [r0], -ip
  d0:	bc520001 	mrrclt	0, 0, r0, r2, cr1
  d4:	c4000000 	strgt	r0, [r0], #-0
  d8:	03000000 	movweq	r0, #0
  dc:	9f7f7200 	svcls	0x007f7200
  e0:	000000e4 	andeq	r0, r0, r4, ror #1
  e4:	000000ec 	andeq	r0, r0, ip, ror #1
  e8:	ec520001 	mrrc	0, 0, r0, r2, cr1
  ec:	f4000000 	vst4.8	{d0-d3}, [r0], r0
  f0:	01000000 	mrseq	r0, (UNDEF: 0)
  f4:	00005c00 	andeq	r5, r0, r0, lsl #24
  f8:	00000000 	andeq	r0, r0, r0
  fc:	00040000 	andeq	r0, r4, r0
 100:	00bc0000 	adcseq	r0, ip, r0
 104:	00010000 	andeq	r0, r1, r0
 108:	0000bc50 	andeq	fp, r0, r0, asr ip
 10c:	0000e400 	andeq	lr, r0, r0, lsl #8
 110:	53000100 	movwpl	r0, #256	; 0x100
 114:	000000e4 	andeq	r0, r0, r4, ror #1
 118:	000000f4 	strdeq	r0, [r0], -r4
 11c:	00500001 	subseq	r0, r0, r1
 120:	00000000 	andeq	r0, r0, r0
 124:	04000000 	streq	r0, [r0], #-0
 128:	74000000 	strvc	r0, [r0], #-0
 12c:	01000000 	mrseq	r0, (UNDEF: 0)
 130:	00745100 	rsbseq	r5, r4, r0, lsl #2
 134:	00b80000 	adcseq	r0, r8, r0
 138:	00040000 	andeq	r0, r4, r0
 13c:	9f5101f3 	svcls	0x005101f3
 140:	000000b8 	strheq	r0, [r0], -r8
 144:	000000c8 	andeq	r0, r0, r8, asr #1
 148:	c8510001 	ldmdagt	r1, {r0}^
 14c:	cc000000 	stcgt	0, cr0, [r0], {-0}
 150:	03000000 	movweq	r0, #0
 154:	9f017100 	svcls	0x00017100
 158:	000000e4 	andeq	r0, r0, r4, ror #1
 15c:	000000ec 	andeq	r0, r0, ip, ror #1
 160:	ec510001 	mrrc	0, 0, r0, r1, cr1
 164:	f4000000 	vst4.8	{d0-d3}, [r0], r0
 168:	04000000 	streq	r0, [r0], #-0
 16c:	5101f300 	mrspl	pc, SP_irq	; <UNPREDICTABLE>
 170:	0000009f 	muleq	r0, pc, r0	; <UNPREDICTABLE>
 174:	00000000 	andeq	r0, r0, r0
 178:	00002c00 	andeq	r2, r0, r0, lsl #24
 17c:	00003400 	andeq	r3, r0, r0, lsl #8
 180:	73000300 	movwvc	r0, #768	; 0x300
 184:	00349f04 	eorseq	r9, r4, r4, lsl #30
 188:	003c0000 	eorseq	r0, ip, r0
 18c:	00030000 	andeq	r0, r3, r0
 190:	3c9f0873 	ldccc	8, cr0, [pc], {115}	; 0x73
 194:	54000000 	strpl	r0, [r0], #-0
 198:	03000000 	movweq	r0, #0
 19c:	9f0c7300 	svcls	0x000c7300
 1a0:	00000054 	andeq	r0, r0, r4, asr r0
 1a4:	00000070 	andeq	r0, r0, r0, ror r0
 1a8:	74530001 	ldrbvc	r0, [r3], #-1
 1ac:	90000000 	andls	r0, r0, r0
 1b0:	01000000 	mrseq	r0, (UNDEF: 0)
 1b4:	00905300 	addseq	r5, r0, r0, lsl #6
 1b8:	00b80000 	adcseq	r0, r8, r0
 1bc:	00010000 	andeq	r0, r1, r0
 1c0:	0000ec54 	andeq	lr, r0, r4, asr ip
 1c4:	0000f400 	andeq	pc, r0, r0, lsl #8
 1c8:	53000100 	movwpl	r0, #256	; 0x100
	...
 1d4:	0000002c 	andeq	r0, r0, ip, lsr #32
 1d8:	00000034 	andeq	r0, r0, r4, lsr r0
 1dc:	047c0003 	ldrbteq	r0, [ip], #-3
 1e0:	0000349f 	muleq	r0, pc, r4	; <UNPREDICTABLE>
 1e4:	00003c00 	andeq	r3, r0, r0, lsl #24
 1e8:	7c000300 	stcvc	3, cr0, [r0], {-0}
 1ec:	003c9f08 	eorseq	r9, ip, r8, lsl #30
 1f0:	00500000 	subseq	r0, r0, r0
 1f4:	00030000 	andeq	r0, r3, r0
 1f8:	509f0c7c 	addspl	r0, pc, ip, ror ip	; <UNPREDICTABLE>
 1fc:	54000000 	strpl	r0, [r0], #-0
 200:	03000000 	movweq	r0, #0
 204:	9f7c7c00 	svcls	0x007c7c00
 208:	00000054 	andeq	r0, r0, r4, asr r0
 20c:	00000064 	andeq	r0, r0, r4, rrx
 210:	745c0001 	ldrbvc	r0, [ip], #-1
 214:	90000000 	andls	r0, r0, r0
 218:	01000000 	mrseq	r0, (UNDEF: 0)
 21c:	00ec5100 	rsceq	r5, ip, r0, lsl #2
 220:	00f40000 	rscseq	r0, r4, r0
 224:	00010000 	andeq	r0, r1, r0
 228:	00000051 	andeq	r0, r0, r1, asr r0
	...
 234:	00000800 	andeq	r0, r0, r0, lsl #16
 238:	7d000200 	sfmvc	f0, 4, [r0, #-0]
 23c:	00000800 	andeq	r0, r0, r0, lsl #16
 240:	0000f800 	andeq	pc, r0, r0, lsl #16
 244:	7d000200 	sfmvc	f0, 4, [r0, #-0]
 248:	00000008 	andeq	r0, r0, r8
	...
 254:	0000d400 	andeq	sp, r0, r0, lsl #8
 258:	51000100 	mrspl	r0, (UNDEF: 16)
 25c:	000000d4 	ldrdeq	r0, [r0], -r4
 260:	000000f0 	strdeq	r0, [r0], -r0	; <UNPREDICTABLE>
 264:	01f30004 	mvnseq	r0, r4
 268:	00f09f51 	rscseq	r9, r0, r1, asr pc
 26c:	00f80000 	rscseq	r0, r8, r0
 270:	00010000 	andeq	r0, r1, r0
 274:	00000051 	andeq	r0, r0, r1, asr r0
	...
 280:	00001800 	andeq	r1, r0, r0, lsl #16
 284:	52000100 	andpl	r0, r0, #0, 2
 288:	00000018 	andeq	r0, r0, r8, lsl r0
 28c:	00000064 	andeq	r0, r0, r4, rrx
 290:	80520001 	subshi	r0, r2, r1
 294:	9c000000 	stcls	0, cr0, [r0], {-0}
 298:	01000000 	mrseq	r0, (UNDEF: 0)
 29c:	009c5500 	addseq	r5, ip, r0, lsl #10
 2a0:	00a80000 	adceq	r0, r8, r0
 2a4:	00010000 	andeq	r0, r1, r0
 2a8:	0000a852 	andeq	sl, r0, r2, asr r8
 2ac:	0000ac00 	andeq	sl, r0, r0, lsl #24
 2b0:	53000100 	movwpl	r0, #256	; 0x100
 2b4:	000000ac 	andeq	r0, r0, ip, lsr #1
 2b8:	000000b4 	strheq	r0, [r0], -r4
 2bc:	04730003 	ldrbteq	r0, [r3], #-3
 2c0:	0000b49f 	muleq	r0, pc, r4	; <UNPREDICTABLE>
 2c4:	0000bc00 	andeq	fp, r0, r0, lsl #24
 2c8:	53000100 	movwpl	r0, #256	; 0x100
 2cc:	000000cc 	andeq	r0, r0, ip, asr #1
 2d0:	000000d8 	ldrdeq	r0, [r0], -r8
 2d4:	7f720003 	svcvc	0x00720003
 2d8:	0000f09f 	muleq	r0, pc, r0	; <UNPREDICTABLE>
 2dc:	0000f800 	andeq	pc, r0, r0, lsl #16
 2e0:	52000100 	andpl	r0, r0, #0, 2
	...
 2ec:	00000004 	andeq	r0, r0, r4
 2f0:	00000024 	andeq	r0, r0, r4, lsr #32
 2f4:	24500001 	ldrbcs	r0, [r0], #-1
 2f8:	34000000 	strcc	r0, [r0], #-0
 2fc:	01000000 	mrseq	r0, (UNDEF: 0)
 300:	00345300 	eorseq	r5, r4, r0, lsl #6
 304:	003c0000 	eorseq	r0, ip, r0
 308:	00030000 	andeq	r0, r3, r0
 30c:	3c9f7f73 	ldccc	15, cr7, [pc], {115}	; 0x73
 310:	5c000000 	stcpl	0, cr0, [r0], {-0}
 314:	01000000 	mrseq	r0, (UNDEF: 0)
 318:	005c5300 	subseq	r5, ip, r0, lsl #6
 31c:	009c0000 	addseq	r0, ip, r0
 320:	00010000 	andeq	r0, r1, r0
 324:	0000cc5c 	andeq	ip, r0, ip, asr ip
 328:	0000e800 	andeq	lr, r0, r0, lsl #16
 32c:	5c000100 	stfpls	f0, [r0], {-0}
 330:	000000f0 	strdeq	r0, [r0], -r0	; <UNPREDICTABLE>
 334:	000000f8 	strdeq	r0, [r0], -r8
 338:	00500001 	subseq	r0, r0, r1
 33c:	00000000 	andeq	r0, r0, r0
 340:	58000000 	stmdapl	r0, {}	; <UNPREDICTABLE>
 344:	cc000000 	stcgt	0, cr0, [r0], {-0}
 348:	03000000 	movweq	r0, #0
 34c:	9f200800 	svcls	0x00200800
	...
 358:	00000054 	andeq	r0, r0, r4, asr r0
 35c:	000000cc 	andeq	r0, r0, ip, asr #1
 360:	00540001 	subseq	r0, r4, r1
 364:	00000000 	andeq	r0, r0, r0
 368:	4c000000 	stcmi	0, cr0, [r0], {-0}
 36c:	5c000000 	stcpl	0, cr0, [r0], {-0}
 370:	01000000 	mrseq	r0, (UNDEF: 0)
 374:	005c5300 	subseq	r5, ip, r0, lsl #6
 378:	00640000 	rsbeq	r0, r4, r0
 37c:	00010000 	andeq	r0, r1, r0
 380:	0000705c 	andeq	r7, r0, ip, asr r0
 384:	00007400 	andeq	r7, r0, r0, lsl #8
 388:	73000300 	movwvc	r0, #768	; 0x300
 38c:	00749f04 	rsbseq	r9, r4, r4, lsl #30
 390:	00780000 	rsbseq	r0, r8, r0
 394:	00030000 	andeq	r0, r3, r0
 398:	789f0873 	ldmvc	pc, {r0, r1, r4, r5, r6, fp}	; <UNPREDICTABLE>
 39c:	80000000 	andhi	r0, r0, r0
 3a0:	03000000 	movweq	r0, #0
 3a4:	9f0c7300 	svcls	0x000c7300
 3a8:	00000080 	andeq	r0, r0, r0, lsl #1
 3ac:	00000088 	andeq	r0, r0, r8, lsl #1
 3b0:	9c530001 	mrrcls	0, 0, r0, r3, cr1
 3b4:	a8000000 	stmdage	r0, {}	; <UNPREDICTABLE>
 3b8:	01000000 	mrseq	r0, (UNDEF: 0)
 3bc:	00a85c00 	adceq	r5, r8, r0, lsl #24
 3c0:	00cc0000 	sbceq	r0, ip, r0
 3c4:	00010000 	andeq	r0, r1, r0
 3c8:	00000055 	andeq	r0, r0, r5, asr r0
 3cc:	00000000 	andeq	r0, r0, r0
 3d0:	00000400 	andeq	r0, r0, r0, lsl #8
 3d4:	00002000 	andeq	r2, r0, r0
 3d8:	71000600 	tstvc	r0, r0, lsl #12
 3dc:	1aff0800 	bne	fffc23e4 <_estack+0xffdb23e4>
 3e0:	0000209f 	muleq	r0, pc, r0	; <UNPREDICTABLE>
 3e4:	00004000 	andeq	r4, r0, r0
 3e8:	54000100 	strpl	r0, [r0], #-256	; 0x100
 3ec:	00000040 	andeq	r0, r0, r0, asr #32
 3f0:	000000d4 	ldrdeq	r0, [r0], -r4
 3f4:	00710006 	rsbseq	r0, r1, r6
 3f8:	9f1aff08 	svcls	0x001aff08
 3fc:	000000d4 	ldrdeq	r0, [r0], -r4
 400:	000000f0 	strdeq	r0, [r0], -r0	; <UNPREDICTABLE>
 404:	01f30007 	mvnseq	r0, r7
 408:	1aff0851 	bne	fffc2554 <_estack+0xffdb2554>
 40c:	0000f09f 	muleq	r0, pc, r0	; <UNPREDICTABLE>
 410:	0000f800 	andeq	pc, r0, r0, lsl #16
 414:	71000600 	tstvc	r0, r0, lsl #12
 418:	1aff0800 	bne	fffc2420 <_estack+0xffdb2420>
 41c:	0000009f 	muleq	r0, pc, r0	; <UNPREDICTABLE>
	...
 428:	00009400 	andeq	r9, r0, r0, lsl #8
 42c:	50000100 	andpl	r0, r0, r0, lsl #2
 430:	00000094 	muleq	r0, r4, r0
 434:	00000094 	muleq	r0, r4, r0
 438:	01f30004 	mvnseq	r0, r4
 43c:	00009f50 	andeq	r9, r0, r0, asr pc
 440:	00000000 	andeq	r0, r0, r0
 444:	00940000 	addseq	r0, r4, r0
 448:	02300000 	eorseq	r0, r0, #0
 44c:	00010000 	andeq	r0, r1, r0
 450:	00023050 	andeq	r3, r2, r0, asr r0
 454:	00023000 	andeq	r3, r2, r0
 458:	f3000400 	vshl.u8	d0, d0, d0
 45c:	009f5001 	addseq	r5, pc, r1
 460:	00000000 	andeq	r0, r0, r0
 464:	Address 0x00000464 is out of bounds.


Disassembly of section .debug_aranges:

00000000 <.debug_aranges>:
   0:	0000001c 	andeq	r0, r0, ip, lsl r0
   4:	00000002 	andeq	r0, r0, r2
   8:	00040000 	andeq	r0, r4, r0
   c:	00000000 	andeq	r0, r0, r0
  10:	00019860 	andeq	r9, r1, r0, ror #16
  14:	000000f4 	strdeq	r0, [r0], -r4
	...
  20:	0000001c 	andeq	r0, r0, ip, lsl r0
  24:	01360002 	teqeq	r6, r2
  28:	00040000 	andeq	r0, r4, r0
  2c:	00000000 	andeq	r0, r0, r0
  30:	00019954 	andeq	r9, r1, r4, asr r9
  34:	000000f8 	strdeq	r0, [r0], -r8
	...
  40:	0000001c 	andeq	r0, r0, ip, lsl r0
  44:	02520002 	subseq	r0, r2, #2
  48:	00040000 	andeq	r0, r4, r0
  4c:	00000000 	andeq	r0, r0, r0
  50:	00019a4c 	andeq	r9, r1, ip, asr #20
  54:	00000230 	andeq	r0, r0, r0, lsr r2
	...
  60:	0000001c 	andeq	r0, r0, ip, lsl r0
  64:	03420002 	movteq	r0, #8194	; 0x2002
  68:	00040000 	andeq	r0, r4, r0
  6c:	00000000 	andeq	r0, r0, r0
  70:	00019c7c 	andeq	r9, r1, ip, ror ip
  74:	00000114 	andeq	r0, r0, r4, lsl r1
	...
  80:	0000001c 	andeq	r0, r0, ip, lsl r0
  84:	03d30002 	bicseq	r0, r3, #2
  88:	00040000 	andeq	r0, r4, r0
  8c:	00000000 	andeq	r0, r0, r0
  90:	00019d90 	muleq	r1, r0, sp
  94:	00000004 	andeq	r0, r0, r4
	...

Disassembly of section .debug_line:

00000000 <.debug_line>:
   0:	00000187 	andeq	r0, r0, r7, lsl #3
   4:	01030002 	tsteq	r3, r2
   8:	01020000 	mrseq	r0, (UNDEF: 2)
   c:	000d0efb 	strdeq	r0, [sp], -fp
  10:	01010101 	tsteq	r1, r1, lsl #2
  14:	01000000 	mrseq	r0, (UNDEF: 0)
  18:	2e010000 	cdpcs	0, 0, cr0, cr1, cr0, {0}
  1c:	2e2e2f2e 	cdpcs	15, 2, cr2, cr14, cr14, {1}
  20:	2f2e2e2f 	svccs	0x002e2e2f
  24:	2e2f2e2e 	cdpcs	14, 2, cr2, cr15, cr14, {1}
  28:	2e2e2f2e 	cdpcs	15, 2, cr2, cr14, cr14, {1}
  2c:	77656e2f 	strbvc	r6, [r5, -pc, lsr #28]!
  30:	2d62696c 	stclcs	9, cr6, [r2, #-432]!	; 0xfffffe50
  34:	30322e31 	eorscc	r2, r2, r1, lsr lr
  38:	6e2f302e 	cdpvs	0, 2, cr3, cr15, cr14, {1}
  3c:	696c7765 	stmdbvs	ip!, {r0, r2, r5, r6, r8, r9, sl, ip, sp, lr}^
  40:	696c2f62 	stmdbvs	ip!, {r1, r5, r6, r8, r9, sl, fp, sp}^
  44:	6d2f6362 	stcvs	3, cr6, [pc, #-392]!	; fffffec4 <_estack+0xffdefec4>
  48:	69686361 	stmdbvs	r8!, {r0, r5, r6, r8, r9, sp, lr}^
  4c:	612f656e 	teqvs	pc, lr, ror #10
  50:	2e2f6d72 	mcrcs	13, 1, r6, cr15, cr2, {3}
  54:	2e2e2f2e 	cdpcs	15, 2, cr2, cr14, cr14, {1}
  58:	7274732f 	rsbsvc	r7, r4, #-1140850688	; 0xbc000000
  5c:	00676e69 	rsbeq	r6, r7, r9, ror #28
  60:	6d2f3a43 	vstmdbvs	pc!, {s6-s72}
  64:	2f737973 	svccs	0x00737973
  68:	2f302e31 	svccs	0x00302e31
  6c:	656d6f68 	strbvs	r6, [sp, #-3944]!	; 0xf68
  70:	6761792f 	strbvs	r7, [r1, -pc, lsr #18]!
  74:	6f747261 	svcvs	0x00747261
  78:	77656e2f 	strbvc	r6, [r5, -pc, lsr #28]!
  7c:	2d62696c 	stclcs	9, cr6, [r2, #-432]!	; 0xfffffe50
  80:	30322e31 	eorscc	r2, r2, r1, lsr lr
  84:	6e2f302e 	cdpvs	0, 2, cr3, cr15, cr14, {1}
  88:	696c7765 	stmdbvs	ip!, {r0, r2, r5, r6, r8, r9, sl, ip, sp, lr}^
  8c:	696c2f62 	stmdbvs	ip!, {r1, r5, r6, r8, r9, sl, fp, sp}^
  90:	692f6362 	stmdbvs	pc!, {r1, r5, r6, r8, r9, sp, lr}	; <UNPREDICTABLE>
  94:	756c636e 	strbvc	r6, [ip, #-878]!	; 0x36e
  98:	63006564 	movwvs	r6, #1380	; 0x564
  9c:	736d5c3a 	cmnvc	sp, #14848	; 0x3a00
  a0:	315c7379 	cmpcc	ip, r9, ror r3
  a4:	685c302e 	ldmdavs	ip, {r1, r2, r3, r5, ip, sp}^
  a8:	5c656d6f 	stclpl	13, cr6, [r5], #-444	; 0xfffffe44
  ac:	61676179 	smcvs	30233	; 0x7619
  b0:	5c6f7472 	cfstrdpl	mvd7, [pc], #-456	; fffffef0 <_estack+0xffdefef0>
  b4:	74736e69 	ldrbtvc	r6, [r3], #-3689	; 0xe69
  b8:	5c6c6c61 	stclpl	12, cr6, [ip], #-388	; 0xfffffe7c
  bc:	5c6e6962 	stclpl	9, cr6, [lr], #-392	; 0xfffffe78
  c0:	6c2f2e2e 	stcvs	14, cr2, [pc], #-184	; 10 <_start-0x7ff0>
  c4:	672f6269 	strvs	r6, [pc, -r9, ror #4]!
  c8:	612f6363 	teqvs	pc, r3, ror #6
  cc:	6e2d6d72 	mcrvs	13, 1, r6, cr13, cr2, {3}
  d0:	2d656e6f 	stclcs	14, cr6, [r5, #-444]!	; 0xfffffe44
  d4:	69626165 	stmdbvs	r2!, {r0, r2, r5, r6, r8, sp, lr}^
  d8:	372e342f 	strcc	r3, [lr, -pc, lsr #8]!
  dc:	692f322e 	stmdbvs	pc!, {r1, r2, r3, r5, r9, ip, sp}	; <UNPREDICTABLE>
  e0:	756c636e 	strbvc	r6, [ip, #-878]!	; 0x36e
  e4:	00006564 	andeq	r6, r0, r4, ror #10
  e8:	636d656d 	cmnvs	sp, #457179136	; 0x1b400000
  ec:	632e7970 	teqvs	lr, #112, 18	; 0x1c0000
  f0:	00000100 	andeq	r0, r0, r0, lsl #2
  f4:	69727473 	ldmdbvs	r2!, {r0, r1, r4, r5, r6, sl, ip, sp, lr}^
  f8:	682e676e 	stmdavs	lr!, {r1, r2, r3, r5, r6, r8, r9, sl, sp, lr}
  fc:	00000200 	andeq	r0, r0, r0, lsl #4
 100:	64647473 	strbtvs	r7, [r4], #-1139	; 0x473
 104:	682e6665 	stmdavs	lr!, {r0, r2, r5, r6, r9, sl, sp, lr}
 108:	00000300 	andeq	r0, r0, r0, lsl #6
 10c:	02050000 	andeq	r0, r5, #0
 110:	00019860 	andeq	r9, r1, r0, ror #16
 114:	03013803 	movweq	r3, #6147	; 0x1803
 118:	6b030115 	blvs	c0574 <__bss_end+0x9bd24>
 11c:	2e15032e 	cdpcs	3, 1, cr0, cr5, cr14, {1}
 120:	01040200 	mrseq	r0, R12_usr
 124:	06662e06 	strbteq	r2, [r6], -r6, lsl #28
 128:	4c4b4b6e 	mcrrmi	11, 6, r4, fp, cr14
 12c:	0433292d 	ldrteq	r2, [r3], #-2349	; 0x92d
 130:	2e400302 	cdpcs	3, 4, cr0, cr0, cr2, {0}
 134:	3b030104 	blcc	c054c <__bss_end+0x9bcfc>
 138:	0002044a 	andeq	r0, r2, sl, asr #8
 13c:	03010402 	movweq	r0, #5122	; 0x1402
 140:	01042e45 	tsteq	r4, r5, asr #28
 144:	01040200 	mrseq	r0, R12_usr
 148:	8200c503 	andhi	ip, r0, #12582912	; 0xc00000
 14c:	bb030204 	bllt	c0964 <__bss_end+0x9c114>
 150:	0104827f 	tsteq	r4, pc, ror r2
 154:	9e00c003 	cdpls	0, 0, cr12, cr0, cr3, {0}
 158:	2c302c35 	ldccs	12, cr2, [r0], #-212	; 0xffffff2c
 15c:	bb030204 	bllt	c0974 <__bss_end+0x9c124>
 160:	01042e7f 	tsteq	r4, pc, ror lr
 164:	6600c703 	strvs	ip, [r0], -r3, lsl #14
 168:	00666703 	rsbeq	r6, r6, r3, lsl #14
 16c:	03010402 	movweq	r0, #5122	; 0x1402
 170:	02042e22 	andeq	r2, r4, #544	; 0x220
 174:	4a7fb003 	bmi	1fec188 <_estack+0x1ddc188>
 178:	d1030104 	tstle	r3, r4, lsl #2
 17c:	4f494a00 	svcmi	0x00494a00
 180:	034a5903 	movteq	r5, #43267	; 0xa903
 184:	04024a17 	streq	r4, [r2], #-2583	; 0xa17
 188:	75010100 	strvc	r0, [r1, #-256]	; 0x100
 18c:	02000001 	andeq	r0, r0, #1
 190:	0000ee00 	andeq	lr, r0, r0, lsl #28
 194:	fb010200 	blx	4099e <__bss_end+0x1c14e>
 198:	01000d0e 	tsteq	r0, lr, lsl #26
 19c:	00010101 	andeq	r0, r1, r1, lsl #2
 1a0:	00010000 	andeq	r0, r1, r0
 1a4:	2e2e0100 	sufcse	f0, f6, f0
 1a8:	2f2e2e2f 	svccs	0x002e2e2f
 1ac:	2e2f2e2e 	cdpcs	14, 2, cr2, cr15, cr14, {1}
 1b0:	2e2e2f2e 	cdpcs	15, 2, cr2, cr14, cr14, {1}
 1b4:	77656e2f 	strbvc	r6, [r5, -pc, lsr #28]!
 1b8:	2d62696c 	stclcs	9, cr6, [r2, #-432]!	; 0xfffffe50
 1bc:	30322e31 	eorscc	r2, r2, r1, lsr lr
 1c0:	6e2f302e 	cdpvs	0, 2, cr3, cr15, cr14, {1}
 1c4:	696c7765 	stmdbvs	ip!, {r0, r2, r5, r6, r8, r9, sl, ip, sp, lr}^
 1c8:	696c2f62 	stmdbvs	ip!, {r1, r5, r6, r8, r9, sl, fp, sp}^
 1cc:	732f6362 	teqvc	pc, #-2013265919	; 0x88000001
 1d0:	6e697274 	mcrvs	2, 3, r7, cr9, cr4, {3}
 1d4:	3a430067 	bcc	10c0378 <_estack+0xeb0378>
 1d8:	79736d2f 	ldmdbvc	r3!, {r0, r1, r2, r3, r5, r8, sl, fp, sp, lr}^
 1dc:	2e312f73 	mrccs	15, 1, r2, cr1, cr3, {3}
 1e0:	6f682f30 	svcvs	0x00682f30
 1e4:	792f656d 	stmdbvc	pc!, {r0, r2, r3, r5, r6, r8, sl, sp, lr}	; <UNPREDICTABLE>
 1e8:	72616761 	rsbvc	r6, r1, #25427968	; 0x1840000
 1ec:	6e2f6f74 	mcrvs	15, 1, r6, cr15, cr4, {3}
 1f0:	696c7765 	stmdbvs	ip!, {r0, r2, r5, r6, r8, r9, sl, ip, sp, lr}^
 1f4:	2e312d62 	cdpcs	13, 3, cr2, cr1, cr2, {3}
 1f8:	302e3032 	eorcc	r3, lr, r2, lsr r0
 1fc:	77656e2f 	strbvc	r6, [r5, -pc, lsr #28]!
 200:	2f62696c 	svccs	0x0062696c
 204:	6362696c 	cmnvs	r2, #108, 18	; 0x1b0000
 208:	636e692f 	cmnvs	lr, #770048	; 0xbc000
 20c:	6564756c 	strbvs	r7, [r4, #-1388]!	; 0x56c
 210:	5c3a6300 	ldcpl	3, cr6, [sl], #-0
 214:	7379736d 	cmnvc	r9, #-1275068415	; 0xb4000001
 218:	302e315c 	eorcc	r3, lr, ip, asr r1
 21c:	6d6f685c 	stclvs	8, cr6, [pc, #-368]!	; b4 <_start-0x7f4c>
 220:	61795c65 	cmnvs	r9, r5, ror #24
 224:	74726167 	ldrbtvc	r6, [r2], #-359	; 0x167
 228:	6e695c6f 	cdpvs	12, 6, cr5, cr9, cr15, {3}
 22c:	6c617473 	cfstrdvs	mvd7, [r1], #-460	; 0xfffffe34
 230:	69625c6c 	stmdbvs	r2!, {r2, r3, r5, r6, sl, fp, ip, lr}^
 234:	2e2e5c6e 	cdpcs	12, 2, cr5, cr14, cr14, {3}
 238:	62696c2f 	rsbvs	r6, r9, #12032	; 0x2f00
 23c:	6363672f 	cmnvs	r3, #12320768	; 0xbc0000
 240:	6d72612f 	ldfvse	f6, [r2, #-188]!	; 0xffffff44
 244:	6e6f6e2d 	cdpvs	14, 6, cr6, cr15, cr13, {1}
 248:	61652d65 	cmnvs	r5, r5, ror #26
 24c:	342f6962 	strtcc	r6, [pc], #-2402	; 254 <_start-0x7dac>
 250:	322e372e 	eorcc	r3, lr, #12058624	; 0xb80000
 254:	636e692f 	cmnvs	lr, #770048	; 0xbc000
 258:	6564756c 	strbvs	r7, [r4, #-1388]!	; 0x56c
 25c:	656d0000 	strbvs	r0, [sp, #-0]!
 260:	7465736d 	strbtvc	r7, [r5], #-877	; 0x36d
 264:	0100632e 	tsteq	r0, lr, lsr #6
 268:	74730000 	ldrbtvc	r0, [r3], #-0
 26c:	676e6972 			; <UNDEFINED> instruction: 0x676e6972
 270:	0200682e 	andeq	r6, r0, #3014656	; 0x2e0000
 274:	74730000 	ldrbtvc	r0, [r3], #-0
 278:	66656464 	strbtvs	r6, [r5], -r4, ror #8
 27c:	0300682e 	movweq	r6, #2094	; 0x82e
 280:	00000000 	andeq	r0, r0, r0
 284:	99540205 	ldmdbls	r4, {r0, r2, r9}^
 288:	2e030001 	cdpcs	0, 0, cr0, cr3, cr1, {0}
 28c:	010a0301 	tsteq	sl, r1, lsl #6
 290:	032e7603 	teqeq	lr, #3145728	; 0x300000
 294:	f34c2e0a 	vcge.f32	d18, d12, d10
 298:	362b312b 	strtcc	r3, [fp], -fp, lsr #2
 29c:	034a7503 	movteq	r7, #42243	; 0xa503
 2a0:	7a032e18 	bvc	cbb08 <__bss_end+0xa72b8>
 2a4:	6c332f2e 	ldcvs	15, cr2, [r3], #-184	; 0xffffff48
 2a8:	302e7a03 	eorcc	r7, lr, r3, lsl #20
 2ac:	042f2f2f 	strteq	r2, [pc], #-3887	; 2b4 <_start-0x7d4c>
 2b0:	2e480302 	cdpcs	3, 4, cr0, cr8, cr2, {0}
 2b4:	33030104 	movwcc	r0, #12548	; 0x3104
 2b8:	0002042e 	andeq	r0, r2, lr, lsr #8
 2bc:	03010402 	movweq	r0, #5122	; 0x1402
 2c0:	01042e4d 	tsteq	r4, sp, asr #28
 2c4:	01040200 	mrseq	r0, R12_usr
 2c8:	03823c03 	orreq	r3, r2, #768	; 0x300
 2cc:	0c036677 	stceq	6, cr6, [r3], {119}	; 0x77
 2d0:	2c302b4a 	ldccs	11, cr2, [r0], #-296	; 0xfffffed8
 2d4:	44030204 	strmi	r0, [r3], #-516	; 0x204
 2d8:	0301042e 	movweq	r0, #5166	; 0x142e
 2dc:	0200823e 	andeq	r8, r0, #-536870909	; 0xe0000003
 2e0:	09030104 	stmdbeq	r3, {r2, r8}
 2e4:	0002042e 	andeq	r0, r2, lr, lsr #8
 2e8:	03010402 	movweq	r0, #5122	; 0x1402
 2ec:	044a7fb9 	strbeq	r7, [sl], #-4025	; 0xfb9
 2f0:	04020001 	streq	r0, [r2], #-1
 2f4:	00c70301 	sbceq	r0, r7, r1, lsl #6
 2f8:	4e2d2f2e 	cdpmi	15, 2, cr2, cr13, cr14, {1}
 2fc:	024a5303 	subeq	r5, sl, #201326592	; 0xc000000
 300:	01010004 	tsteq	r1, r4
 304:	000000c0 	andeq	r0, r0, r0, asr #1
 308:	009e0002 	addseq	r0, lr, r2
 30c:	01020000 	mrseq	r0, (UNDEF: 2)
 310:	000d0efb 	strdeq	r0, [sp], -fp
 314:	01010101 	tsteq	r1, r1, lsl #2
 318:	01000000 	mrseq	r0, (UNDEF: 0)
 31c:	2e010000 	cdpcs	0, 0, cr0, cr1, cr0, {0}
 320:	2e2e2f2e 	cdpcs	15, 2, cr2, cr14, cr14, {1}
 324:	2f2e2e2f 	svccs	0x002e2e2f
 328:	2e2f2e2e 	cdpcs	14, 2, cr2, cr15, cr14, {1}
 32c:	2e2e2f2e 	cdpcs	15, 2, cr2, cr14, cr14, {1}
 330:	77656e2f 	strbvc	r6, [r5, -pc, lsr #28]!
 334:	2d62696c 	stclcs	9, cr6, [r2, #-432]!	; 0xfffffe50
 338:	30322e31 	eorscc	r2, r2, r1, lsr lr
 33c:	6e2f302e 	cdpvs	0, 2, cr3, cr15, cr14, {1}
 340:	696c7765 	stmdbvs	ip!, {r0, r2, r5, r6, r8, r9, sl, ip, sp, lr}^
 344:	696c2f62 	stmdbvs	ip!, {r1, r5, r6, r8, r9, sl, fp, sp}^
 348:	6d2f6362 	stcvs	3, cr6, [pc, #-392]!	; 1c8 <_start-0x7e38>
 34c:	69686361 	stmdbvs	r8!, {r0, r5, r6, r8, r9, sp, lr}^
 350:	612f656e 	teqvs	pc, lr, ror #10
 354:	43006d72 	movwmi	r6, #3442	; 0xd72
 358:	736d2f3a 	cmnvc	sp, #58, 30	; 0xe8
 35c:	312f7379 	teqcc	pc, r9, ror r3	; <UNPREDICTABLE>
 360:	682f302e 	stmdavs	pc!, {r1, r2, r3, r5, ip, sp}	; <UNPREDICTABLE>
 364:	2f656d6f 	svccs	0x00656d6f
 368:	61676179 	smcvs	30233	; 0x7619
 36c:	2f6f7472 	svccs	0x006f7472
 370:	6c77656e 	cfldr64vs	mvdx6, [r7], #-440	; 0xfffffe48
 374:	312d6269 	teqcc	sp, r9, ror #4
 378:	2e30322e 	cdpcs	2, 3, cr3, cr0, cr14, {1}
 37c:	656e2f30 	strbvs	r2, [lr, #-3888]!	; 0xf30
 380:	62696c77 	rsbvs	r6, r9, #30464	; 0x7700
 384:	62696c2f 	rsbvs	r6, r9, #12032	; 0x2f00
 388:	6e692f63 	cdpvs	15, 6, cr2, cr9, cr3, {3}
 38c:	64756c63 	ldrbtvs	r6, [r5], #-3171	; 0xc63
 390:	73000065 	movwvc	r0, #101	; 0x65
 394:	6d637274 	sfmvs	f7, 2, [r3, #-464]!	; 0xfffffe30
 398:	00632e70 	rsbeq	r2, r3, r0, ror lr
 39c:	73000001 	movwvc	r0, #1
 3a0:	6e697274 	mcrvs	2, 3, r7, cr9, cr4, {3}
 3a4:	00682e67 	rsbeq	r2, r8, r7, ror #28
 3a8:	00000002 	andeq	r0, r0, r2
 3ac:	4c020500 	cfstr32mi	mvfx0, [r2], {-0}
 3b0:	0300019a 	movweq	r0, #410	; 0x19a
 3b4:	03130136 	tsteq	r3, #-2147483635	; 0x8000000d
 3b8:	4a0200ec 	bmi	80770 <__bss_end+0x5bf20>
 3bc:	de031801 	cdple	8, 0, cr1, cr3, cr1, {0}
 3c0:	ce020100 	adfgts	f0, f2, f0
 3c4:	01010001 	tsteq	r1, r1
 3c8:	00000086 	andeq	r0, r0, r6, lsl #1
 3cc:	00470002 	subeq	r0, r7, r2
 3d0:	01020000 	mrseq	r0, (UNDEF: 2)
 3d4:	000d0efb 	strdeq	r0, [sp], -fp
 3d8:	01010101 	tsteq	r1, r1, lsl #2
 3dc:	01000000 	mrseq	r0, (UNDEF: 0)
 3e0:	2e010000 	cdpcs	0, 0, cr0, cr1, cr0, {0}
 3e4:	2e2e2f2e 	cdpcs	15, 2, cr2, cr14, cr14, {1}
 3e8:	2f2e2e2f 	svccs	0x002e2e2f
 3ec:	2d636367 	stclcs	3, cr6, [r3, #-412]!	; 0xfffffe64
 3f0:	2e372e34 	mrccs	14, 1, r2, cr7, cr4, {1}
 3f4:	696c2f32 	stmdbvs	ip!, {r1, r4, r5, r8, r9, sl, fp, sp}^
 3f8:	63636762 	cmnvs	r3, #25690112	; 0x1880000
 3fc:	6e6f632f 	cdpvs	3, 6, cr6, cr15, cr15, {1}
 400:	2f676966 	svccs	0x00676966
 404:	006d7261 	rsbeq	r7, sp, r1, ror #4
 408:	62696c00 	rsbvs	r6, r9, #0, 24
 40c:	6e756631 	mrcvs	6, 3, r6, cr5, cr1, {1}
 410:	532e7363 	teqpl	lr, #-1946157055	; 0x8c000001
 414:	00000100 	andeq	r0, r0, r0, lsl #2
 418:	02050000 	andeq	r0, r5, #0
 41c:	00019c7c 	andeq	r9, r1, ip, ror ip
 420:	0107cc03 	tsteq	r7, r3, lsl #24
 424:	2f2f2f30 	svccs	0x002f2f30
 428:	fe032f2f 	cdp2	15, 0, cr2, cr3, cr15, {1}
 42c:	86032e7c 			; <UNDEFINED> instruction: 0x86032e7c
 430:	013e0203 	teqeq	lr, r3, lsl #4
 434:	2f2f312f 	svccs	0x002f312f
 438:	2e7db703 	cdpcs	7, 7, cr11, cr13, cr3, {0}
 43c:	0802cd03 	stmdaeq	r2, {r0, r1, r8, sl, fp, lr, pc}
 440:	03322f90 	teqeq	r2, #144, 30	; 0x240
 444:	2f2f6616 	svccs	0x002f6616
 448:	2f2f2f2f 	svccs	0x002f2f2f
 44c:	0002022f 	andeq	r0, r2, pc, lsr #4
 450:	005d0101 	subseq	r0, sp, r1, lsl #2
 454:	00020000 	andeq	r0, r2, r0
 458:	00000047 	andeq	r0, r0, r7, asr #32
 45c:	0efb0102 	cdpeq	1, 15, cr0, cr11, cr2, {0}
 460:	0101000d 	tsteq	r1, sp
 464:	00000101 	andeq	r0, r0, r1, lsl #2
 468:	00000100 	andeq	r0, r0, r0, lsl #2
 46c:	2f2e2e01 	svccs	0x002e2e01
 470:	2e2f2e2e 	cdpcs	14, 2, cr2, cr15, cr14, {1}
 474:	63672f2e 	cmnvs	r7, #46, 30	; 0xb8
 478:	2e342d63 	cdpcs	13, 3, cr2, cr4, cr3, {3}
 47c:	2f322e37 	svccs	0x00322e37
 480:	6762696c 	strbvs	r6, [r2, -ip, ror #18]!
 484:	632f6363 	teqvs	pc, #-1946157055	; 0x8c000001
 488:	69666e6f 	stmdbvs	r6!, {r0, r1, r2, r3, r5, r6, r9, sl, fp, sp, lr}^
 48c:	72612f67 	rsbvc	r2, r1, #412	; 0x19c
 490:	6c00006d 	stcvs	0, cr0, [r0], {109}	; 0x6d
 494:	66316269 	ldrtvs	r6, [r1], -r9, ror #4
 498:	73636e75 	cmnvc	r3, #1872	; 0x750
 49c:	0100532e 	tsteq	r0, lr, lsr #6
 4a0:	00000000 	andeq	r0, r0, r0
 4a4:	9d900205 	lfmls	f0, 4, [r0, #20]
 4a8:	93030001 	movwls	r0, #12289	; 0x3001
 4ac:	0202010a 	andeq	r0, r2, #-2147483646	; 0x80000002
 4b0:	Address 0x000004b0 is out of bounds.


Disassembly of section .debug_str:

00000000 <.debug_str>:
   0:	676e6f6c 	strbvs	r6, [lr, -ip, ror #30]!
   4:	6e6f6c20 	cdpvs	12, 6, cr6, cr15, cr0, {1}
   8:	6e692067 	cdpvs	0, 6, cr2, cr9, cr7, {3}
   c:	6c610074 	stclvs	0, cr0, [r1], #-464	; 0xfffffe30
  10:	656e6769 	strbvs	r6, [lr, #-1897]!	; 0x769
  14:	73645f64 	cmnvc	r4, #100, 30	; 0x190
  18:	69730074 	ldmdbvs	r3!, {r2, r4, r5, r6}^
  1c:	745f657a 	ldrbvc	r6, [pc], #-1402	; 24 <_start-0x7fdc>
  20:	554e4700 	strbpl	r4, [lr, #-1792]	; 0x700
  24:	34204320 	strtcc	r4, [r0], #-800	; 0x320
  28:	322e372e 	eorcc	r3, lr, #12058624	; 0xb80000
  2c:	63727300 	cmnvs	r2, #0, 6
  30:	6f6c0030 	svcvs	0x006c0030
  34:	6c20676e 	stcvs	7, cr6, [r0], #-440	; 0xfffffe48
  38:	20676e6f 	rsbcs	r6, r7, pc, ror #28
  3c:	69736e75 	ldmdbvs	r3!, {r0, r2, r4, r5, r6, r9, sl, fp, sp, lr}^
  40:	64656e67 	strbtvs	r6, [r5], #-3687	; 0xe67
  44:	746e6920 	strbtvc	r6, [lr], #-2336	; 0x920
  48:	74736400 	ldrbtvc	r6, [r3], #-1024	; 0x400
  4c:	6e750030 	mrcvs	0, 3, r0, cr5, cr0, {1}
  50:	6e676973 	mcrvs	9, 3, r6, cr7, cr3, {3}
  54:	63206465 	teqvs	r0, #1694498816	; 0x65000000
  58:	00726168 	rsbseq	r6, r2, r8, ror #2
  5c:	67696c61 	strbvs	r6, [r9, -r1, ror #24]!
  60:	5f64656e 	svcpl	0x0064656e
  64:	00637273 	rsbeq	r7, r3, r3, ror r2
  68:	636d656d 	cmnvs	sp, #457179136	; 0x1b400000
  6c:	43007970 	movwmi	r7, #2416	; 0x970
  70:	736d5c3a 	cmnvc	sp, #14848	; 0x3a00
  74:	315c7379 	cmpcc	ip, r9, ror r3
  78:	685c302e 	ldmdavs	ip, {r1, r2, r3, r5, ip, sp}^
  7c:	5c656d6f 	stclpl	13, cr6, [r5], #-444	; 0xfffffe44
  80:	61676179 	smcvs	30233	; 0x7619
  84:	5c6f7472 	cfstrdpl	mvd7, [pc], #-456	; fffffec4 <_estack+0xffdefec4>
  88:	6c77656e 	cfldr64vs	mvdx6, [r7], #-440	; 0xfffffe48
  8c:	622d6269 	eorvs	r6, sp, #-1879048186	; 0x90000006
  90:	646c6975 	strbtvs	r6, [ip], #-2421	; 0x975
  94:	6d72615c 	ldfvse	f6, [r2, #-368]!	; 0xfffffe90
  98:	6e6f6e2d 	cdpvs	14, 6, cr6, cr15, cr13, {1}
  9c:	61652d65 	cmnvs	r5, r5, ror #26
  a0:	6e5c6962 	cdpvs	9, 5, cr6, cr12, cr2, {3}
  a4:	696c7765 	stmdbvs	ip!, {r0, r2, r5, r6, r8, r9, sl, ip, sp, lr}^
  a8:	696c5c62 	stmdbvs	ip!, {r1, r5, r6, sl, fp, ip, lr}^
  ac:	6d5c6362 	ldclvs	3, cr6, [ip, #-392]	; 0xfffffe78
  b0:	69686361 	stmdbvs	r8!, {r0, r5, r6, r8, r9, sp, lr}^
  b4:	615c656e 	cmpvs	ip, lr, ror #10
  b8:	73006d72 	movwvc	r6, #3442	; 0xd72
  bc:	74726f68 	ldrbtvc	r6, [r2], #-3944	; 0xf68
  c0:	736e7520 	cmnvc	lr, #32, 10	; 0x8000000
  c4:	656e6769 	strbvs	r6, [lr, #-1897]!	; 0x769
  c8:	6e692064 	cdpvs	0, 6, cr2, cr9, cr4, {3}
  cc:	2e2e0074 	mcrcs	0, 1, r0, cr14, cr4, {3}
  d0:	2f2e2e2f 	svccs	0x002e2e2f
  d4:	2e2f2e2e 	cdpcs	14, 2, cr2, cr15, cr14, {1}
  d8:	2e2e2f2e 	cdpcs	15, 2, cr2, cr14, cr14, {1}
  dc:	2f2e2e2f 	svccs	0x002e2e2f
  e0:	6c77656e 	cfldr64vs	mvdx6, [r7], #-440	; 0xfffffe48
  e4:	312d6269 	teqcc	sp, r9, ror #4
  e8:	2e30322e 	cdpcs	2, 3, cr3, cr0, cr14, {1}
  ec:	656e2f30 	strbvs	r2, [lr, #-3888]!	; 0xf30
  f0:	62696c77 	rsbvs	r6, r9, #30464	; 0x7700
  f4:	62696c2f 	rsbvs	r6, r9, #12032	; 0x2f00
  f8:	616d2f63 	cmnvs	sp, r3, ror #30
  fc:	6e696863 	cdpvs	8, 6, cr6, cr9, cr3, {3}
 100:	72612f65 	rsbvc	r2, r1, #404	; 0x194
 104:	656d2f6d 	strbvs	r2, [sp, #-3949]!	; 0xf6d
 108:	7970636d 	ldmdbvc	r0!, {r0, r2, r3, r5, r6, r8, r9, sp, lr}^
 10c:	7574732d 	ldrbvc	r7, [r4, #-813]!	; 0x32d
 110:	00632e62 	rsbeq	r2, r3, r2, ror #28
 114:	306e656c 	rsbcc	r6, lr, ip, ror #10
 118:	6f687300 	svcvs	0x00687300
 11c:	69207472 	stmdbvs	r0!, {r1, r4, r5, r6, sl, ip, sp, lr}
 120:	7300746e 	movwvc	r7, #1134	; 0x46e
 124:	74657a69 	strbtvc	r7, [r5], #-2665	; 0xa69
 128:	00657079 	rsbeq	r7, r5, r9, ror r0
 12c:	6d5c3a43 	vldrvs	s7, [ip, #-268]	; 0xfffffef4
 130:	5c737973 	ldclpl	9, cr7, [r3], #-460	; 0xfffffe34
 134:	5c302e31 	ldcpl	14, cr2, [r0], #-196	; 0xffffff3c
 138:	656d6f68 	strbvs	r6, [sp, #-3944]!	; 0xf68
 13c:	6761795c 			; <UNDEFINED> instruction: 0x6761795c
 140:	6f747261 	svcvs	0x00747261
 144:	77656e5c 			; <UNDEFINED> instruction: 0x77656e5c
 148:	2d62696c 	stclcs	9, cr6, [r2, #-432]!	; 0xfffffe50
 14c:	6c697562 	cfstr64vs	mvdx7, [r9], #-392	; 0xfffffe78
 150:	72615c64 	rsbvc	r5, r1, #100, 24	; 0x6400
 154:	6f6e2d6d 	svcvs	0x006e2d6d
 158:	652d656e 	strvs	r6, [sp, #-1390]!	; 0x56e
 15c:	5c696261 	sfmpl	f6, 2, [r9], #-388	; 0xfffffe7c
 160:	6c77656e 	cfldr64vs	mvdx6, [r7], #-440	; 0xfffffe48
 164:	6c5c6269 	lfmvs	f6, 2, [ip], {105}	; 0x69
 168:	5c636269 	sfmpl	f6, 2, [r3], #-420	; 0xfffffe5c
 16c:	69727473 	ldmdbvs	r2!, {r0, r1, r4, r5, r6, sl, ip, sp, lr}^
 170:	6100676e 	tstvs	r0, lr, ror #14
 174:	6e67696c 	cdpvs	9, 6, cr6, cr7, cr12, {3}
 178:	615f6465 	cmpvs	pc, r5, ror #8
 17c:	00726464 	rsbseq	r6, r2, r4, ror #8
 180:	2e2f2e2e 	cdpcs	14, 2, cr2, cr15, cr14, {1}
 184:	2e2e2f2e 	cdpcs	15, 2, cr2, cr14, cr14, {1}
 188:	2f2e2e2f 	svccs	0x002e2e2f
 18c:	6e2f2e2e 	cdpvs	14, 2, cr2, cr15, cr14, {1}
 190:	696c7765 	stmdbvs	ip!, {r0, r2, r5, r6, r8, r9, sl, ip, sp, lr}^
 194:	2e312d62 	cdpcs	13, 3, cr2, cr1, cr2, {3}
 198:	302e3032 	eorcc	r3, lr, r2, lsr r0
 19c:	77656e2f 	strbvc	r6, [r5, -pc, lsr #28]!
 1a0:	2f62696c 	svccs	0x0062696c
 1a4:	6362696c 	cmnvs	r2, #108, 18	; 0x1b0000
 1a8:	7274732f 	rsbsvc	r7, r4, #-1140850688	; 0xbc000000
 1ac:	2f676e69 	svccs	0x00676e69
 1b0:	736d656d 	cmnvc	sp, #457179136	; 0x1b400000
 1b4:	632e7465 	teqvs	lr, #1694498816	; 0x65000000
 1b8:	6d656d00 	stclvs	13, cr6, [r5, #-0]
 1bc:	00746573 	rsbseq	r6, r4, r3, ror r5
 1c0:	66667562 	strbtvs	r7, [r6], -r2, ror #10
 1c4:	73007265 	movwvc	r7, #613	; 0x265
 1c8:	6d637274 	sfmvs	f7, 2, [r3, #-464]!	; 0xfffffe30
 1cc:	6e755f70 	mrcvs	15, 3, r5, cr5, cr0, {3}
 1d0:	67696c61 	strbvs	r6, [r9, -r1, ror #24]!
 1d4:	0064656e 	rsbeq	r6, r4, lr, ror #10
 1d8:	63727473 	cmnvs	r2, #1929379840	; 0x73000000
 1dc:	2e00706d 	cdpcs	0, 0, cr7, cr0, cr13, {3}
 1e0:	2e2e2f2e 	cdpcs	15, 2, cr2, cr14, cr14, {1}
 1e4:	2f2e2e2f 	svccs	0x002e2e2f
 1e8:	2e2f2e2e 	cdpcs	14, 2, cr2, cr15, cr14, {1}
 1ec:	2e2e2f2e 	cdpcs	15, 2, cr2, cr14, cr14, {1}
 1f0:	77656e2f 	strbvc	r6, [r5, -pc, lsr #28]!
 1f4:	2d62696c 	stclcs	9, cr6, [r2, #-432]!	; 0xfffffe50
 1f8:	30322e31 	eorscc	r2, r2, r1, lsr lr
 1fc:	6e2f302e 	cdpvs	0, 2, cr3, cr15, cr14, {1}
 200:	696c7765 	stmdbvs	ip!, {r0, r2, r5, r6, r8, r9, sl, ip, sp, lr}^
 204:	696c2f62 	stmdbvs	ip!, {r1, r5, r6, r8, r9, sl, fp, sp}^
 208:	6d2f6362 	stcvs	3, cr6, [pc, #-392]!	; 88 <_start-0x7f78>
 20c:	69686361 	stmdbvs	r8!, {r0, r5, r6, r8, r9, sp, lr}^
 210:	612f656e 	teqvs	pc, lr, ror #10
 214:	732f6d72 	teqvc	pc, #7296	; 0x1c80
 218:	6d637274 	sfmvs	f7, 2, [r3, #-464]!	; 0xfffffe30
 21c:	00632e70 	rsbeq	r2, r3, r0, ror lr

Disassembly of section .debug_frame:

00000000 <.debug_frame>:
   0:	0000000c 	andeq	r0, r0, ip
   4:	ffffffff 			; <UNDEFINED> instruction: 0xffffffff
   8:	7c020001 	stcvc	0, cr0, [r2], {1}
   c:	000d0c0e 	andeq	r0, sp, lr, lsl #24
  10:	00000018 	andeq	r0, r0, r8, lsl r0
  14:	00000000 	andeq	r0, r0, r0
  18:	00019860 	andeq	r9, r1, r0, ror #16
  1c:	000000f4 	strdeq	r0, [r0], -r4
  20:	84100e44 	ldrhi	r0, [r0], #-3652	; 0xe44
  24:	86038504 	strhi	r8, [r3], -r4, lsl #10
  28:	00018702 	andeq	r8, r1, r2, lsl #14
  2c:	0000000c 	andeq	r0, r0, ip
  30:	ffffffff 			; <UNDEFINED> instruction: 0xffffffff
  34:	7c020001 	stcvc	0, cr0, [r2], {1}
  38:	000d0c0e 	andeq	r0, sp, lr, lsl #24
  3c:	00000014 	andeq	r0, r0, r4, lsl r0
  40:	0000002c 	andeq	r0, r0, ip, lsr #32
  44:	00019954 	andeq	r9, r1, r4, asr r9
  48:	000000f8 	strdeq	r0, [r0], -r8
  4c:	84080e44 	strhi	r0, [r8], #-3652	; 0xe44
  50:	00018502 	andeq	r8, r1, r2, lsl #10
  54:	0000000c 	andeq	r0, r0, ip
  58:	ffffffff 			; <UNDEFINED> instruction: 0xffffffff
  5c:	7c020001 	stcvc	0, cr0, [r2], {1}
  60:	000d0c0e 	andeq	r0, sp, lr, lsl #24
  64:	0000000c 	andeq	r0, r0, ip
  68:	00000054 	andeq	r0, r0, r4, asr r0
  6c:	00019a4c 	andeq	r9, r1, ip, asr #20
  70:	00000094 	muleq	r0, r4, r0
  74:	0000000c 	andeq	r0, r0, ip
  78:	00000054 	andeq	r0, r0, r4, asr r0
  7c:	00019ae0 	andeq	r9, r1, r0, ror #21
  80:	0000019c 	muleq	r0, ip, r1
  84:	0000000c 	andeq	r0, r0, ip
  88:	ffffffff 			; <UNDEFINED> instruction: 0xffffffff
  8c:	7c010001 	stcvc	0, cr0, [r1], {1}
  90:	000d0c0e 	andeq	r0, sp, lr, lsl #24
  94:	0000000c 	andeq	r0, r0, ip
  98:	00000084 	andeq	r0, r0, r4, lsl #1
  9c:	00019c7c 	andeq	r9, r1, ip, ror ip
  a0:	000000f4 	strdeq	r0, [r0], -r4
