
ucos_bcm2835.elf:     file format elf32-littlearm


Disassembly of section .init:

00008000 <_start>:
    8000:	e59ff018 	ldr	pc, [pc, #24]	; 8020 <reset_handler>
    8004:	e59ff018 	ldr	pc, [pc, #24]	; 8024 <undefined_handler>
    8008:	e59ff018 	ldr	pc, [pc, #24]	; 8028 <swi_handler>
    800c:	e59ff018 	ldr	pc, [pc, #24]	; 802c <prefetch_handler>
    8010:	e59ff018 	ldr	pc, [pc, #24]	; 8030 <data_handler>
    8014:	e59ff018 	ldr	pc, [pc, #24]	; 8034 <unused_handler>
    8018:	e59ff018 	ldr	pc, [pc, #24]	; 8038 <irq_handler>
    801c:	e59ff018 	ldr	pc, [pc, #24]	; 803c <fiq_handler>

00008020 <reset_handler>:
    8020:	00008040 	andeq	r8, r0, r0, asr #32

00008024 <undefined_handler>:
    8024:	00010a48 	andeq	r0, r1, r8, asr #20

00008028 <swi_handler>:
    8028:	00010a5c 	andeq	r0, r1, ip, asr sl

0000802c <prefetch_handler>:
    802c:	00010a70 	andeq	r0, r1, r0, ror sl

00008030 <data_handler>:
    8030:	00010a84 	andeq	r0, r1, r4, lsl #21

00008034 <unused_handler>:
    8034:	00010a20 	andeq	r0, r1, r0, lsr #20

00008038 <irq_handler>:
    8038:	00010c4c 	andeq	r0, r1, ip, asr #24

0000803c <fiq_handler>:
    803c:	00010a34 	andeq	r0, r1, r4, lsr sl

00008040 <reset>:
    8040:	e3a00902 	mov	r0, #32768	; 0x8000
    8044:	e3a01000 	mov	r1, #0
    8048:	e8b003fc 	ldm	r0!, {r2, r3, r4, r5, r6, r7, r8, r9}
    804c:	e8a103fc 	stmia	r1!, {r2, r3, r4, r5, r6, r7, r8, r9}
    8050:	e8b003fc 	ldm	r0!, {r2, r3, r4, r5, r6, r7, r8, r9}
    8054:	e8a103fc 	stmia	r1!, {r2, r3, r4, r5, r6, r7, r8, r9}
    8058:	e3a000d2 	mov	r0, #210	; 0xd2
    805c:	e121f000 	msr	CPSR_c, r0
    8060:	e3a0d902 	mov	sp, #32768	; 0x8000
    8064:	e3a0d901 	mov	sp, #16384	; 0x4000
    8068:	e3a000df 	mov	r0, #223	; 0xdf
    806c:	e121f000 	msr	CPSR_c, r0
    8070:	e3a0d901 	mov	sp, #16384	; 0x4000
    8074:	e59f0018 	ldr	r0, [pc, #24]	; 8094 <zero_loop+0x14>
    8078:	e59f1018 	ldr	r1, [pc, #24]	; 8098 <zero_loop+0x18>
    807c:	e3a02000 	mov	r2, #0

00008080 <zero_loop>:
    8080:	e1500001 	cmp	r0, r1
    8084:	b4802004 	strlt	r2, [r0], #4
    8088:	bafffffc 	blt	8080 <zero_loop>
    808c:	eb002208 	bl	108b4 <DisableInterrupts>
    8090:	ea003394 	b	14ee8 <main>
    8094:	00014f40 	andeq	r4, r1, r0, asr #30
    8098:	0001f184 	andeq	pc, r1, r4, lsl #3

Disassembly of section .text:

00010000 <hang>:
   10000:	eafffffe 	b	10000 <hang>

00010004 <PUT32>:
   10004:	e5801000 	str	r1, [r0]
   10008:	e12fff1e 	bx	lr

0001000c <GET32>:
   1000c:	e5900000 	ldr	r0, [r0]
   10010:	e12fff1e 	bx	lr

00010014 <GET_SP>:
   10014:	e1a0000d 	mov	r0, sp
   10018:	e12fff1e 	bx	lr

0001001c <GET_PC>:
   1001c:	e1a0000f 	mov	r0, pc
   10020:	e12fff1e 	bx	lr

00010024 <dummy>:
   10024:	e12fff1e 	bx	lr

00010028 <aux_uart_isr>:
   10028:	e92d4070 	push	{r4, r5, r6, lr}
   1002c:	e3a0001d 	mov	r0, #29
   10030:	eb000209 	bl	1085c <DisableInterrupt>
   10034:	e59f009c 	ldr	r0, [pc, #156]	; 100d8 <aux_uart_isr+0xb0>
   10038:	e3a01001 	mov	r1, #1
   1003c:	ebfffff0 	bl	10004 <PUT32>
   10040:	e59f5094 	ldr	r5, [pc, #148]	; 100dc <aux_uart_isr+0xb4>
   10044:	e59f008c 	ldr	r0, [pc, #140]	; 100d8 <aux_uart_isr+0xb0>
   10048:	ebffffef 	bl	1000c <GET32>
   1004c:	e2104001 	ands	r4, r0, #1
   10050:	e2003006 	and	r3, r0, #6
   10054:	1a000017 	bne	100b8 <aux_uart_isr+0x90>
   10058:	e3530004 	cmp	r3, #4
   1005c:	0a00000d 	beq	10098 <aux_uart_isr+0x70>
   10060:	e3530002 	cmp	r3, #2
   10064:	1afffff6 	bne	10044 <aux_uart_isr+0x1c>
   10068:	e59f0070 	ldr	r0, [pc, #112]	; 100e0 <aux_uart_isr+0xb8>
   1006c:	e3a02001 	mov	r2, #1
   10070:	e2801010 	add	r1, r0, #16
   10074:	eb000221 	bl	10900 <fifoGet>
   10078:	e3500001 	cmp	r0, #1
   1007c:	e1a06000 	mov	r6, r0
   10080:	0a00000f 	beq	100c4 <aux_uart_isr+0x9c>
   10084:	e59f0058 	ldr	r0, [pc, #88]	; 100e4 <aux_uart_isr+0xbc>
   10088:	e3a01001 	mov	r1, #1
   1008c:	ebffffdc 	bl	10004 <PUT32>
   10090:	e5854028 	str	r4, [r5, #40]	; 0x28
   10094:	eaffffea 	b	10044 <aux_uart_isr+0x1c>
   10098:	e59f0048 	ldr	r0, [pc, #72]	; 100e8 <aux_uart_isr+0xc0>
   1009c:	ebffffda 	bl	1000c <GET32>
   100a0:	e5c50000 	strb	r0, [r5]
   100a4:	e59f0040 	ldr	r0, [pc, #64]	; 100ec <aux_uart_isr+0xc4>
   100a8:	e3a02001 	mov	r2, #1
   100ac:	e2401004 	sub	r1, r0, #4
   100b0:	eb000232 	bl	10980 <fifoPut>
   100b4:	eaffffe2 	b	10044 <aux_uart_isr+0x1c>
   100b8:	e3a0001d 	mov	r0, #29
   100bc:	e8bd4070 	pop	{r4, r5, r6, lr}
   100c0:	ea0001d3 	b	10814 <EnableInterrupt>
   100c4:	e59f001c 	ldr	r0, [pc, #28]	; 100e8 <aux_uart_isr+0xc0>
   100c8:	e5d51024 	ldrb	r1, [r5, #36]	; 0x24
   100cc:	ebffffcc 	bl	10004 <PUT32>
   100d0:	e5856028 	str	r6, [r5, #40]	; 0x28
   100d4:	eaffffda 	b	10044 <aux_uart_isr+0x1c>
   100d8:	20215048 	eorcs	r5, r1, r8, asr #32
   100dc:	00014f40 	andeq	r4, r1, r0, asr #30
   100e0:	00014f54 	andeq	r4, r1, r4, asr pc
   100e4:	20215044 	eorcs	r5, r1, r4, asr #32
   100e8:	20215040 	eorcs	r5, r1, r0, asr #32
   100ec:	00014f44 	andeq	r4, r1, r4, asr #30

000100f0 <uart_lcr>:
   100f0:	e59f0000 	ldr	r0, [pc]	; 100f8 <uart_lcr+0x8>
   100f4:	eaffffc4 	b	1000c <GET32>
   100f8:	20215054 	eorcs	r5, r1, r4, asr r0

000100fc <uart_recv>:
   100fc:	e92d4008 	push	{r3, lr}
   10100:	e59f0018 	ldr	r0, [pc, #24]	; 10120 <uart_recv+0x24>
   10104:	ebffffc0 	bl	1000c <GET32>
   10108:	e3100001 	tst	r0, #1
   1010c:	0afffffb 	beq	10100 <uart_recv+0x4>
   10110:	e59f000c 	ldr	r0, [pc, #12]	; 10124 <uart_recv+0x28>
   10114:	ebffffbc 	bl	1000c <GET32>
   10118:	e6ef0070 	uxtb	r0, r0
   1011c:	e8bd8008 	pop	{r3, pc}
   10120:	20215054 	eorcs	r5, r1, r4, asr r0
   10124:	20215040 	eorcs	r5, r1, r0, asr #32

00010128 <uart_send>:
   10128:	e92d4010 	push	{r4, lr}
   1012c:	e1a04000 	mov	r4, r0
   10130:	e59f0018 	ldr	r0, [pc, #24]	; 10150 <uart_send+0x28>
   10134:	ebffffb4 	bl	1000c <GET32>
   10138:	e3100020 	tst	r0, #32
   1013c:	0afffffb 	beq	10130 <uart_send+0x8>
   10140:	e1a01004 	mov	r1, r4
   10144:	e59f0008 	ldr	r0, [pc, #8]	; 10154 <uart_send+0x2c>
   10148:	e8bd4010 	pop	{r4, lr}
   1014c:	eaffffac 	b	10004 <PUT32>
   10150:	20215054 	eorcs	r5, r1, r4, asr r0
   10154:	20215040 	eorcs	r5, r1, r0, asr #32

00010158 <uart_flush>:
   10158:	e92d4008 	push	{r3, lr}
   1015c:	e59f000c 	ldr	r0, [pc, #12]	; 10170 <uart_flush+0x18>
   10160:	ebffffa9 	bl	1000c <GET32>
   10164:	e3100c01 	tst	r0, #256	; 0x100
   10168:	1afffffb 	bne	1015c <uart_flush+0x4>
   1016c:	e8bd8008 	pop	{r3, pc}
   10170:	20215054 	eorcs	r5, r1, r4, asr r0

00010174 <hexstrings>:
   10174:	e92d4038 	push	{r3, r4, r5, lr}
   10178:	e1a05000 	mov	r5, r0
   1017c:	e3a04020 	mov	r4, #32
   10180:	e2444004 	sub	r4, r4, #4
   10184:	e1a03435 	lsr	r3, r5, r4
   10188:	e203300f 	and	r3, r3, #15
   1018c:	e3530009 	cmp	r3, #9
   10190:	82830037 	addhi	r0, r3, #55	; 0x37
   10194:	92830030 	addls	r0, r3, #48	; 0x30
   10198:	ebffffe2 	bl	10128 <uart_send>
   1019c:	e3540000 	cmp	r4, #0
   101a0:	1afffff6 	bne	10180 <hexstrings+0xc>
   101a4:	e8bd4038 	pop	{r3, r4, r5, lr}
   101a8:	e3a00020 	mov	r0, #32
   101ac:	eaffffdd 	b	10128 <uart_send>

000101b0 <hexstring>:
   101b0:	e12fff1e 	bx	lr

000101b4 <uart_init>:
   101b4:	e92d4070 	push	{r4, r5, r6, lr}
   101b8:	e59f0190 	ldr	r0, [pc, #400]	; 10350 <uart_init+0x19c>
   101bc:	e24dd008 	sub	sp, sp, #8
   101c0:	e3a01001 	mov	r1, #1
   101c4:	ebffff8e 	bl	10004 <PUT32>
   101c8:	e59f0184 	ldr	r0, [pc, #388]	; 10354 <uart_init+0x1a0>
   101cc:	e3a01000 	mov	r1, #0
   101d0:	ebffff8b 	bl	10004 <PUT32>
   101d4:	e59f017c 	ldr	r0, [pc, #380]	; 10358 <uart_init+0x1a4>
   101d8:	e3a01000 	mov	r1, #0
   101dc:	ebffff88 	bl	10004 <PUT32>
   101e0:	e59f0174 	ldr	r0, [pc, #372]	; 1035c <uart_init+0x1a8>
   101e4:	e3a01003 	mov	r1, #3
   101e8:	ebffff85 	bl	10004 <PUT32>
   101ec:	e59f016c 	ldr	r0, [pc, #364]	; 10360 <uart_init+0x1ac>
   101f0:	e3a01000 	mov	r1, #0
   101f4:	ebffff82 	bl	10004 <PUT32>
   101f8:	e59f0154 	ldr	r0, [pc, #340]	; 10354 <uart_init+0x1a0>
   101fc:	e3a01001 	mov	r1, #1
   10200:	ebffff7f 	bl	10004 <PUT32>
   10204:	e59f0158 	ldr	r0, [pc, #344]	; 10364 <uart_init+0x1b0>
   10208:	e3a010c6 	mov	r1, #198	; 0xc6
   1020c:	ebffff7c 	bl	10004 <PUT32>
   10210:	e59f1150 	ldr	r1, [pc, #336]	; 10368 <uart_init+0x1b4>
   10214:	e59f0150 	ldr	r0, [pc, #336]	; 1036c <uart_init+0x1b8>
   10218:	ebffff79 	bl	10004 <PUT32>
   1021c:	e59f014c 	ldr	r0, [pc, #332]	; 10370 <uart_init+0x1bc>
   10220:	ebffff79 	bl	1000c <GET32>
   10224:	e3c01a3f 	bic	r1, r0, #258048	; 0x3f000
   10228:	e3811a12 	orr	r1, r1, #73728	; 0x12000
   1022c:	e59f013c 	ldr	r0, [pc, #316]	; 10370 <uart_init+0x1bc>
   10230:	ebffff73 	bl	10004 <PUT32>
   10234:	e59f0138 	ldr	r0, [pc, #312]	; 10374 <uart_init+0x1c0>
   10238:	e3a01000 	mov	r1, #0
   1023c:	ebffff70 	bl	10004 <PUT32>
   10240:	e3a04000 	mov	r4, #0
   10244:	e1a00004 	mov	r0, r4
   10248:	e2844001 	add	r4, r4, #1
   1024c:	ebffff74 	bl	10024 <dummy>
   10250:	e3540096 	cmp	r4, #150	; 0x96
   10254:	1afffffa 	bne	10244 <uart_init+0x90>
   10258:	e59f0118 	ldr	r0, [pc, #280]	; 10378 <uart_init+0x1c4>
   1025c:	e3a01903 	mov	r1, #49152	; 0xc000
   10260:	ebffff67 	bl	10004 <PUT32>
   10264:	e3a04000 	mov	r4, #0
   10268:	e1a00004 	mov	r0, r4
   1026c:	e2844001 	add	r4, r4, #1
   10270:	ebffff6b 	bl	10024 <dummy>
   10274:	e3540096 	cmp	r4, #150	; 0x96
   10278:	1afffffa 	bne	10268 <uart_init+0xb4>
   1027c:	e59f00f4 	ldr	r0, [pc, #244]	; 10378 <uart_init+0x1c4>
   10280:	e3a01000 	mov	r1, #0
   10284:	ebffff5e 	bl	10004 <PUT32>
   10288:	e59f00c8 	ldr	r0, [pc, #200]	; 10358 <uart_init+0x1a4>
   1028c:	e3a01003 	mov	r1, #3
   10290:	ebffff5b 	bl	10004 <PUT32>
   10294:	e59f10e0 	ldr	r1, [pc, #224]	; 1037c <uart_init+0x1c8>
   10298:	e3a02000 	mov	r2, #0
   1029c:	e3a0001d 	mov	r0, #29
   102a0:	eb000147 	bl	107c4 <RegisterInterrupt>
   102a4:	e3a0001d 	mov	r0, #29
   102a8:	eb000159 	bl	10814 <EnableInterrupt>
   102ac:	e28d4008 	add	r4, sp, #8
   102b0:	e3a03000 	mov	r3, #0
   102b4:	e59f50c4 	ldr	r5, [pc, #196]	; 10380 <uart_init+0x1cc>
   102b8:	e5643001 	strb	r3, [r4, #-1]!
   102bc:	e1a03004 	mov	r3, r4
   102c0:	e285002c 	add	r0, r5, #44	; 0x2c
   102c4:	e3a01002 	mov	r1, #2
   102c8:	e3a02901 	mov	r2, #16384	; 0x4000
   102cc:	eb0008f2 	bl	1269c <OSMemCreate>
   102d0:	e5dd3007 	ldrb	r3, [sp, #7]
   102d4:	e585082c 	str	r0, [r5, #2092]	; 0x82c
   102d8:	e3530000 	cmp	r3, #0
   102dc:	1a000014 	bne	10334 <uart_init+0x180>
   102e0:	e1a01004 	mov	r1, r4
   102e4:	eb000929 	bl	12790 <OSMemGet>
   102e8:	e2506000 	subs	r6, r0, #0
   102ec:	0a000015 	beq	10348 <uart_init+0x194>
   102f0:	e1a01004 	mov	r1, r4
   102f4:	e595082c 	ldr	r0, [r5, #2092]	; 0x82c
   102f8:	eb000924 	bl	12790 <OSMemGet>
   102fc:	e2504000 	subs	r4, r0, #0
   10300:	0a00000e 	beq	10340 <uart_init+0x18c>
   10304:	e1a01006 	mov	r1, r6
   10308:	e3a02b01 	mov	r2, #1024	; 0x400
   1030c:	e59f0070 	ldr	r0, [pc, #112]	; 10384 <uart_init+0x1d0>
   10310:	eb00016c 	bl	108c8 <fifoCreate>
   10314:	e1a01004 	mov	r1, r4
   10318:	e3a02b01 	mov	r2, #1024	; 0x400
   1031c:	e59f0064 	ldr	r0, [pc, #100]	; 10388 <uart_init+0x1d4>
   10320:	eb000168 	bl	108c8 <fifoCreate>
   10324:	e3a03000 	mov	r3, #0
   10328:	e5853028 	str	r3, [r5, #40]	; 0x28
   1032c:	e28dd008 	add	sp, sp, #8
   10330:	e8bd8070 	pop	{r4, r5, r6, pc}
   10334:	eb0001b6 	bl	10a14 <showstop>
   10338:	e595082c 	ldr	r0, [r5, #2092]	; 0x82c
   1033c:	eaffffe7 	b	102e0 <uart_init+0x12c>
   10340:	eb0001b3 	bl	10a14 <showstop>
   10344:	eaffffee 	b	10304 <uart_init+0x150>
   10348:	eb0001b1 	bl	10a14 <showstop>
   1034c:	eaffffe7 	b	102f0 <uart_init+0x13c>
   10350:	20215004 	eorcs	r5, r1, r4
   10354:	20215044 	eorcs	r5, r1, r4, asr #32
   10358:	20215060 	eorcs	r5, r1, r0, rrx
   1035c:	2021504c 	eorcs	r5, r1, ip, asr #32
   10360:	20215050 	eorcs	r5, r1, r0, asr r0
   10364:	20215048 	eorcs	r5, r1, r8, asr #32
   10368:	0000010e 	andeq	r0, r0, lr, lsl #2
   1036c:	20215068 	eorcs	r5, r1, r8, rrx
   10370:	20200004 	eorcs	r0, r0, r4
   10374:	20200094 	mlacs	r0, r4, r0, r0
   10378:	20200098 	mlacs	r0, r8, r0, r0
   1037c:	00010028 	andeq	r0, r1, r8, lsr #32
   10380:	00014f40 	andeq	r4, r1, r0, asr #30
   10384:	00014f44 	andeq	r4, r1, r4, asr #30
   10388:	00014f54 	andeq	r4, r1, r4, asr pc

0001038c <uart_string>:
   1038c:	e12fff1e 	bx	lr

00010390 <uart_string_dma>:
   10390:	e92d4010 	push	{r4, lr}
   10394:	e59f4060 	ldr	r4, [pc, #96]	; 103fc <uart_string_dma+0x6c>
   10398:	eb0000b9 	bl	10684 <dma_init>
   1039c:	e3a00021 	mov	r0, #33	; 0x21
   103a0:	ebffff60 	bl	10128 <uart_send>
   103a4:	e1a00004 	mov	r0, r4
   103a8:	e3a01025 	mov	r1, #37	; 0x25
   103ac:	e3a02c01 	mov	r2, #256	; 0x100
   103b0:	eb0011e4 	bl	14b48 <memset>
   103b4:	e3a01000 	mov	r1, #0
   103b8:	e3a02008 	mov	r2, #8
   103bc:	e3a00a12 	mov	r0, #73728	; 0x12000
   103c0:	eb0011e0 	bl	14b48 <memset>
   103c4:	e59f2034 	ldr	r2, [pc, #52]	; 10400 <uart_string_dma+0x70>
   103c8:	e59fc034 	ldr	ip, [pc, #52]	; 10404 <uart_string_dma+0x74>
   103cc:	e3a01101 	mov	r1, #1073741824	; 0x40000000
   103d0:	e3a00000 	mov	r0, #0
   103d4:	e3a030f0 	mov	r3, #240	; 0xf0
   103d8:	e5814004 	str	r4, [r1, #4]
   103dc:	e5812008 	str	r2, [r1, #8]
   103e0:	e581c000 	str	ip, [r1]
   103e4:	e581300c 	str	r3, [r1, #12]
   103e8:	e5810010 	str	r0, [r1, #16]
   103ec:	e5810014 	str	r0, [r1, #20]
   103f0:	e3a02001 	mov	r2, #1
   103f4:	e8bd4010 	pop	{r4, lr}
   103f8:	ea000064 	b	10590 <dma_transfer>
   103fc:	40011000 	andmi	r1, r1, r0
   10400:	7e215040 	cdpvc	0, 2, cr5, cr1, cr0, {2}
   10404:	03ee0100 	mvneq	r0, #0, 2

00010408 <uart_open>:
   10408:	e12fff1e 	bx	lr

0001040c <uart_close>:
   1040c:	e12fff1e 	bx	lr

00010410 <uartRecv>:
   10410:	e92d4038 	push	{r3, r4, r5, lr}
   10414:	e3a0001d 	mov	r0, #29
   10418:	e1a05001 	mov	r5, r1
   1041c:	e1a04002 	mov	r4, r2
   10420:	eb00010d 	bl	1085c <DisableInterrupt>
   10424:	e1a02004 	mov	r2, r4
   10428:	e1a01005 	mov	r1, r5
   1042c:	e59f0014 	ldr	r0, [pc, #20]	; 10448 <uartRecv+0x38>
   10430:	eb000132 	bl	10900 <fifoGet>
   10434:	e1a04000 	mov	r4, r0
   10438:	e3a0001d 	mov	r0, #29
   1043c:	eb0000f4 	bl	10814 <EnableInterrupt>
   10440:	e1a00004 	mov	r0, r4
   10444:	e8bd8038 	pop	{r3, r4, r5, pc}
   10448:	00014f44 	andeq	r4, r1, r4, asr #30

0001044c <uartTransmit>:
   1044c:	e92d4070 	push	{r4, r5, r6, lr}
   10450:	e59f40a4 	ldr	r4, [pc, #164]	; 104fc <uartTransmit+0xb0>
   10454:	e24dd008 	sub	sp, sp, #8
   10458:	e5943028 	ldr	r3, [r4, #40]	; 0x28
   1045c:	e3a06000 	mov	r6, #0
   10460:	e3530001 	cmp	r3, #1
   10464:	e5cd6007 	strb	r6, [sp, #7]
   10468:	e1a05002 	mov	r5, r2
   1046c:	0a00001e 	beq	104ec <uartTransmit+0xa0>
   10470:	e3530000 	cmp	r3, #0
   10474:	0a000004 	beq	1048c <uartTransmit+0x40>
   10478:	eb000165 	bl	10a14 <showstop>
   1047c:	e1a05006 	mov	r5, r6
   10480:	e1a00005 	mov	r0, r5
   10484:	e28dd008 	add	sp, sp, #8
   10488:	e8bd8070 	pop	{r4, r5, r6, pc}
   1048c:	e2840014 	add	r0, r4, #20
   10490:	eb00013a 	bl	10980 <fifoPut>
   10494:	e3500000 	cmp	r0, #0
   10498:	01a05000 	moveq	r5, r0
   1049c:	0afffff7 	beq	10480 <uartTransmit+0x34>
   104a0:	e3a03001 	mov	r3, #1
   104a4:	e1a02003 	mov	r2, r3
   104a8:	e2840014 	add	r0, r4, #20
   104ac:	e28d1007 	add	r1, sp, #7
   104b0:	e5843028 	str	r3, [r4, #40]	; 0x28
   104b4:	eb000111 	bl	10900 <fifoGet>
   104b8:	e59f0040 	ldr	r0, [pc, #64]	; 10500 <uartTransmit+0xb4>
   104bc:	ebfffed2 	bl	1000c <GET32>
   104c0:	e3100020 	tst	r0, #32
   104c4:	0afffffb 	beq	104b8 <uartTransmit+0x6c>
   104c8:	e5dd1007 	ldrb	r1, [sp, #7]
   104cc:	e59f0030 	ldr	r0, [pc, #48]	; 10504 <uartTransmit+0xb8>
   104d0:	ebfffecb 	bl	10004 <PUT32>
   104d4:	e59f002c 	ldr	r0, [pc, #44]	; 10508 <uartTransmit+0xbc>
   104d8:	e3a01003 	mov	r1, #3
   104dc:	ebfffec8 	bl	10004 <PUT32>
   104e0:	e1a00005 	mov	r0, r5
   104e4:	e28dd008 	add	sp, sp, #8
   104e8:	e8bd8070 	pop	{r4, r5, r6, pc}
   104ec:	e2840014 	add	r0, r4, #20
   104f0:	eb000122 	bl	10980 <fifoPut>
   104f4:	e1a05000 	mov	r5, r0
   104f8:	eaffffe0 	b	10480 <uartTransmit+0x34>
   104fc:	00014f40 	andeq	r4, r1, r0, asr #30
   10500:	20215054 	eorcs	r5, r1, r4, asr r0
   10504:	20215040 	eorcs	r5, r1, r0, asr #32
   10508:	20215044 	eorcs	r5, r1, r4, asr #32

0001050c <tickISR>:
   1050c:	e92d4008 	push	{r3, lr}
   10510:	eb000321 	bl	1119c <OSTimeTick>
   10514:	e59f3008 	ldr	r3, [pc, #8]	; 10524 <tickISR+0x18>
   10518:	e3a02000 	mov	r2, #0
   1051c:	e583240c 	str	r2, [r3, #1036]	; 0x40c
   10520:	e8bd8008 	pop	{r3, pc}
   10524:	2000b000 	andcs	fp, r0, r0

00010528 <timer_init>:
   10528:	e92d4070 	push	{r4, r5, r6, lr}
   1052c:	e3a00040 	mov	r0, #64	; 0x40
   10530:	eb0000c9 	bl	1085c <DisableInterrupt>
   10534:	e59f4040 	ldr	r4, [pc, #64]	; 1057c <timer_init+0x54>
   10538:	e59f3040 	ldr	r3, [pc, #64]	; 10580 <timer_init+0x58>
   1053c:	e59f2040 	ldr	r2, [pc, #64]	; 10584 <timer_init+0x5c>
   10540:	e59f1040 	ldr	r1, [pc, #64]	; 10588 <timer_init+0x60>
   10544:	e59fc040 	ldr	ip, [pc, #64]	; 1058c <timer_init+0x64>
   10548:	e3a0083e 	mov	r0, #4063232	; 0x3e0000
   1054c:	e3a060f9 	mov	r6, #249	; 0xf9
   10550:	e3a05000 	mov	r5, #0
   10554:	e5830408 	str	r0, [r3, #1032]	; 0x408
   10558:	e5832400 	str	r2, [r3, #1024]	; 0x400
   1055c:	e3a00040 	mov	r0, #64	; 0x40
   10560:	e5832418 	str	r2, [r3, #1048]	; 0x418
   10564:	e583641c 	str	r6, [r3, #1052]	; 0x41c
   10568:	e583540c 	str	r5, [r3, #1036]	; 0x40c
   1056c:	e5834408 	str	r4, [r3, #1032]	; 0x408
   10570:	e581c200 	str	ip, [r1, #512]	; 0x200
   10574:	e8bd4070 	pop	{r4, r5, r6, lr}
   10578:	ea0000a5 	b	10814 <EnableInterrupt>
   1057c:	003e00a2 	eorseq	r0, lr, r2, lsr #1
   10580:	2000b000 	andcs	fp, r0, r0
   10584:	0000270f 	andeq	r2, r0, pc, lsl #14
   10588:	00015b70 	andeq	r5, r1, r0, ror fp
   1058c:	0001050c 	andeq	r0, r1, ip, lsl #10

00010590 <dma_transfer>:
   10590:	e92d4070 	push	{r4, r5, r6, lr}
   10594:	e1a04000 	mov	r4, r0
   10598:	e2844602 	add	r4, r4, #2097152	; 0x200000
   1059c:	e1a05001 	mov	r5, r1
   105a0:	e59f00bc 	ldr	r0, [pc, #188]	; 10664 <dma_transfer+0xd4>
   105a4:	e3a01001 	mov	r1, #1
   105a8:	e2844070 	add	r4, r4, #112	; 0x70
   105ac:	e1a06002 	mov	r6, r2
   105b0:	e1a04404 	lsl	r4, r4, #8
   105b4:	ebfffe92 	bl	10004 <PUT32>
   105b8:	e3a00005 	mov	r0, #5
   105bc:	eb00109b 	bl	14830 <OSTimeDly>
   105c0:	e1a01005 	mov	r1, r5
   105c4:	e2840004 	add	r0, r4, #4
   105c8:	ebfffe8d 	bl	10004 <PUT32>
   105cc:	e1a01006 	mov	r1, r6
   105d0:	e1a00004 	mov	r0, r4
   105d4:	ebfffe8a 	bl	10004 <PUT32>
   105d8:	e59f0088 	ldr	r0, [pc, #136]	; 10668 <dma_transfer+0xd8>
   105dc:	ebfffe8a 	bl	1000c <GET32>
   105e0:	ebfffef2 	bl	101b0 <hexstring>
   105e4:	ea000008 	b	1060c <dma_transfer+0x7c>
   105e8:	ebfffe87 	bl	1000c <GET32>
   105ec:	e3100001 	tst	r0, #1
   105f0:	0a00000a 	beq	10620 <dma_transfer+0x90>
   105f4:	e3a00032 	mov	r0, #50	; 0x32
   105f8:	eb00108c 	bl	14830 <OSTimeDly>
   105fc:	e59f0068 	ldr	r0, [pc, #104]	; 1066c <dma_transfer+0xdc>
   10600:	ebfffe81 	bl	1000c <GET32>
   10604:	e59f005c 	ldr	r0, [pc, #92]	; 10668 <dma_transfer+0xd8>
   10608:	ebfffe7f 	bl	1000c <GET32>
   1060c:	e59f0058 	ldr	r0, [pc, #88]	; 1066c <dma_transfer+0xdc>
   10610:	ebfffe7d 	bl	1000c <GET32>
   10614:	e3100002 	tst	r0, #2
   10618:	e59f004c 	ldr	r0, [pc, #76]	; 1066c <dma_transfer+0xdc>
   1061c:	0afffff1 	beq	105e8 <dma_transfer+0x58>
   10620:	e59f0048 	ldr	r0, [pc, #72]	; 10670 <dma_transfer+0xe0>
   10624:	ebffff58 	bl	1038c <uart_string>
   10628:	e59f003c 	ldr	r0, [pc, #60]	; 1066c <dma_transfer+0xdc>
   1062c:	ebfffe76 	bl	1000c <GET32>
   10630:	e3801002 	orr	r1, r0, #2
   10634:	e59f0030 	ldr	r0, [pc, #48]	; 1066c <dma_transfer+0xdc>
   10638:	ebfffe71 	bl	10004 <PUT32>
   1063c:	e59f0024 	ldr	r0, [pc, #36]	; 10668 <dma_transfer+0xd8>
   10640:	ebfffe71 	bl	1000c <GET32>
   10644:	ebfffed9 	bl	101b0 <hexstring>
   10648:	e3a00a12 	mov	r0, #73728	; 0x12000
   1064c:	ebfffe6e 	bl	1000c <GET32>
   10650:	ebfffed6 	bl	101b0 <hexstring>
   10654:	e59f0010 	ldr	r0, [pc, #16]	; 1066c <dma_transfer+0xdc>
   10658:	ebfffe6b 	bl	1000c <GET32>
   1065c:	e8bd4070 	pop	{r4, r5, r6, lr}
   10660:	eafffed2 	b	101b0 <hexstring>
   10664:	20007ff0 	strdcs	r7, [r0], -r0
   10668:	20007014 	andcs	r7, r0, r4, lsl r0
   1066c:	20007000 	andcs	r7, r0, r0
   10670:	00014d58 	andeq	r4, r1, r8, asr sp

00010674 <dma_isr>:
   10674:	e59f0004 	ldr	r0, [pc, #4]	; 10680 <dma_isr+0xc>
   10678:	e3a0100c 	mov	r1, #12
   1067c:	eafffe60 	b	10004 <PUT32>
   10680:	20007000 	andcs	r7, r0, r0

00010684 <dma_init>:
   10684:	e59f0004 	ldr	r0, [pc, #4]	; 10690 <dma_init+0xc>
   10688:	e3a01001 	mov	r1, #1
   1068c:	eafffe5c 	b	10004 <PUT32>
   10690:	20007ff0 	strdcs	r7, [r0], -r0

00010694 <stubHandler>:
   10694:	e59f0000 	ldr	r0, [pc]	; 1069c <stubHandler+0x8>
   10698:	eaffff3b 	b	1038c <uart_string>
   1069c:	00014d64 	andeq	r4, r1, r4, ror #26

000106a0 <OS_CPU_IRQ_ISR_Handler>:
   106a0:	e92d4008 	push	{r3, lr}
   106a4:	eb00015e 	bl	10c24 <OS_CPU_SR_Save>
   106a8:	eb000239 	bl	10f94 <OSIntEnter>
   106ac:	eb00015c 	bl	10c24 <OS_CPU_SR_Save>
   106b0:	e59f30c8 	ldr	r3, [pc, #200]	; 10780 <OS_CPU_IRQ_ISR_Handler+0xe0>
   106b4:	e5932204 	ldr	r2, [r3, #516]	; 0x204
   106b8:	e3120202 	tst	r2, #536870912	; 0x20000000
   106bc:	0a000008 	beq	106e4 <OS_CPU_IRQ_ISR_Handler+0x44>
   106c0:	e59f20bc 	ldr	r2, [pc, #188]	; 10784 <OS_CPU_IRQ_ISR_Handler+0xe4>
   106c4:	e59230e8 	ldr	r3, [r2, #232]	; 0xe8
   106c8:	e3530000 	cmp	r3, #0
   106cc:	0a000002 	beq	106dc <OS_CPU_IRQ_ISR_Handler+0x3c>
   106d0:	e59210ec 	ldr	r1, [r2, #236]	; 0xec
   106d4:	e3a0001d 	mov	r0, #29
   106d8:	e12fff33 	blx	r3
   106dc:	e8bd4008 	pop	{r3, lr}
   106e0:	ea000237 	b	10fc4 <OSIntExit>
   106e4:	e5932200 	ldr	r2, [r3, #512]	; 0x200
   106e8:	e59f1098 	ldr	r1, [pc, #152]	; 10788 <OS_CPU_IRQ_ISR_Handler+0xe8>
   106ec:	e0021001 	and	r1, r2, r1
   106f0:	e3510000 	cmp	r1, #0
   106f4:	0a00000d 	beq	10730 <OS_CPU_IRQ_ISR_Handler+0x90>
   106f8:	e3a0005f 	mov	r0, #95	; 0x5f
   106fc:	e2423001 	sub	r3, r2, #1
   10700:	e59f107c 	ldr	r1, [pc, #124]	; 10784 <OS_CPU_IRQ_ISR_Handler+0xe4>
   10704:	e0232002 	eor	r2, r3, r2
   10708:	e16f2f12 	clz	r2, r2
   1070c:	e0622000 	rsb	r2, r2, r0
   10710:	e7913182 	ldr	r3, [r1, r2, lsl #3]
   10714:	e3530000 	cmp	r3, #0
   10718:	0affffef 	beq	106dc <OS_CPU_IRQ_ISR_Handler+0x3c>
   1071c:	e0811180 	add	r1, r1, r0, lsl #3
   10720:	e5911004 	ldr	r1, [r1, #4]
   10724:	e12fff33 	blx	r3
   10728:	e8bd4008 	pop	{r3, lr}
   1072c:	ea000224 	b	10fc4 <OSIntExit>
   10730:	e3120c01 	tst	r2, #256	; 0x100
   10734:	1a00000b 	bne	10768 <OS_CPU_IRQ_ISR_Handler+0xc8>
   10738:	e1a03002 	mov	r3, r2
   1073c:	e3120c02 	tst	r2, #512	; 0x200
   10740:	0a000005 	beq	1075c <OS_CPU_IRQ_ISR_Handler+0xbc>
   10744:	e59f2034 	ldr	r2, [pc, #52]	; 10780 <OS_CPU_IRQ_ISR_Handler+0xe0>
   10748:	e3530000 	cmp	r3, #0
   1074c:	e5922208 	ldr	r2, [r2, #520]	; 0x208
   10750:	13a0003f 	movne	r0, #63	; 0x3f
   10754:	11a02003 	movne	r2, r3
   10758:	1affffe7 	bne	106fc <OS_CPU_IRQ_ISR_Handler+0x5c>
   1075c:	e3a0003f 	mov	r0, #63	; 0x3f
   10760:	ebfffe70 	bl	10128 <uart_send>
   10764:	eaffffdc 	b	106dc <OS_CPU_IRQ_ISR_Handler+0x3c>
   10768:	e5933204 	ldr	r3, [r3, #516]	; 0x204
   1076c:	e3530000 	cmp	r3, #0
   10770:	0afffff1 	beq	1073c <OS_CPU_IRQ_ISR_Handler+0x9c>
   10774:	e1a02003 	mov	r2, r3
   10778:	e3a0001f 	mov	r0, #31
   1077c:	eaffffde 	b	106fc <OS_CPU_IRQ_ISR_Handler+0x5c>
   10780:	2000b000 	andcs	fp, r0, r0
   10784:	00015b70 	andeq	r5, r1, r0, ror fp
   10788:	00000cff 	strdeq	r0, [r0], -pc	; <UNPREDICTABLE>

0001078c <InitInterruptController>:
   1078c:	e3a03000 	mov	r3, #0
   10790:	e59f2024 	ldr	r2, [pc, #36]	; 107bc <InitInterruptController+0x30>
   10794:	e59fc024 	ldr	ip, [pc, #36]	; 107c0 <InitInterruptController+0x34>
   10798:	e1a00003 	mov	r0, r3
   1079c:	e782c003 	str	ip, [r2, r3]
   107a0:	e0821003 	add	r1, r2, r3
   107a4:	e2833008 	add	r3, r3, #8
   107a8:	e3530d09 	cmp	r3, #576	; 0x240
   107ac:	e5810004 	str	r0, [r1, #4]
   107b0:	1afffff9 	bne	1079c <InitInterruptController+0x10>
   107b4:	e3a00000 	mov	r0, #0
   107b8:	e12fff1e 	bx	lr
   107bc:	00015b70 	andeq	r5, r1, r0, ror fp
   107c0:	00010694 	muleq	r1, r4, r6

000107c4 <RegisterInterrupt>:
   107c4:	e92d4070 	push	{r4, r5, r6, lr}
   107c8:	e1a04000 	mov	r4, r0
   107cc:	e1a05001 	mov	r5, r1
   107d0:	e1a06002 	mov	r6, r2
   107d4:	e10f0000 	mrs	r0, CPSR
   107d8:	e3800080 	orr	r0, r0, #128	; 0x80
   107dc:	e121f000 	msr	CPSR_c, r0
   107e0:	e59f0024 	ldr	r0, [pc, #36]	; 1080c <RegisterInterrupt+0x48>
   107e4:	ebfffee8 	bl	1038c <uart_string>
   107e8:	e59f3020 	ldr	r3, [pc, #32]	; 10810 <RegisterInterrupt+0x4c>
   107ec:	e0832184 	add	r2, r3, r4, lsl #3
   107f0:	e7835184 	str	r5, [r3, r4, lsl #3]
   107f4:	e5826004 	str	r6, [r2, #4]
   107f8:	e10f0000 	mrs	r0, CPSR
   107fc:	e3c00080 	bic	r0, r0, #128	; 0x80
   10800:	e121f000 	msr	CPSR_c, r0
   10804:	e3a00000 	mov	r0, #0
   10808:	e8bd8070 	pop	{r4, r5, r6, pc}
   1080c:	00014d70 	andeq	r4, r1, r0, ror sp
   10810:	00015b70 	andeq	r5, r1, r0, ror fp

00010814 <EnableInterrupt>:
   10814:	e2402040 	sub	r2, r0, #64	; 0x40
   10818:	e59f3038 	ldr	r3, [pc, #56]	; 10858 <EnableInterrupt+0x44>
   1081c:	e3520008 	cmp	r2, #8
   10820:	e5931218 	ldr	r1, [r3, #536]	; 0x218
   10824:	8a000006 	bhi	10844 <EnableInterrupt+0x30>
   10828:	e3a01001 	mov	r1, #1
   1082c:	e1a02211 	lsl	r2, r1, r2
   10830:	e5832218 	str	r2, [r3, #536]	; 0x218
   10834:	e59f301c 	ldr	r3, [pc, #28]	; 10858 <EnableInterrupt+0x44>
   10838:	e3a00000 	mov	r0, #0
   1083c:	e5933218 	ldr	r3, [r3, #536]	; 0x218
   10840:	e12fff1e 	bx	lr
   10844:	e350001f 	cmp	r0, #31
   10848:	93a02001 	movls	r2, #1
   1084c:	91a00012 	lslls	r0, r2, r0
   10850:	95830210 	strls	r0, [r3, #528]	; 0x210
   10854:	eafffff6 	b	10834 <EnableInterrupt+0x20>
   10858:	2000b000 	andcs	fp, r0, r0

0001085c <DisableInterrupt>:
   1085c:	e2403040 	sub	r3, r0, #64	; 0x40
   10860:	e3530008 	cmp	r3, #8
   10864:	8a000005 	bhi	10880 <DisableInterrupt+0x24>
   10868:	e3a02001 	mov	r2, #1
   1086c:	e1a03312 	lsl	r3, r2, r3
   10870:	e59f2024 	ldr	r2, [pc, #36]	; 1089c <DisableInterrupt+0x40>
   10874:	e3a00000 	mov	r0, #0
   10878:	e5823224 	str	r3, [r2, #548]	; 0x224
   1087c:	e12fff1e 	bx	lr
   10880:	e350001f 	cmp	r0, #31
   10884:	93a03001 	movls	r3, #1
   10888:	91a00013 	lslls	r0, r3, r0
   1088c:	959f3008 	ldrls	r3, [pc, #8]	; 1089c <DisableInterrupt+0x40>
   10890:	9583021c 	strls	r0, [r3, #540]	; 0x21c
   10894:	e3a00000 	mov	r0, #0
   10898:	e12fff1e 	bx	lr
   1089c:	2000b000 	andcs	fp, r0, r0

000108a0 <EnableInterrupts>:
   108a0:	e10f0000 	mrs	r0, CPSR
   108a4:	e3c00080 	bic	r0, r0, #128	; 0x80
   108a8:	e121f000 	msr	CPSR_c, r0
   108ac:	e3a00000 	mov	r0, #0
   108b0:	e12fff1e 	bx	lr

000108b4 <DisableInterrupts>:
   108b4:	e10f0000 	mrs	r0, CPSR
   108b8:	e3800080 	orr	r0, r0, #128	; 0x80
   108bc:	e121f000 	msr	CPSR_c, r0
   108c0:	e3a00000 	mov	r0, #0
   108c4:	e12fff1e 	bx	lr

000108c8 <fifoCreate>:
   108c8:	e92d4070 	push	{r4, r5, r6, lr}
   108cc:	e1a04000 	mov	r4, r0
   108d0:	e1a06002 	mov	r6, r2
   108d4:	e1a00001 	mov	r0, r1
   108d8:	e1a05001 	mov	r5, r1
   108dc:	e2466001 	sub	r6, r6, #1
   108e0:	ebfffe32 	bl	101b0 <hexstring>
   108e4:	e3a03000 	mov	r3, #0
   108e8:	e584600c 	str	r6, [r4, #12]
   108ec:	e5845000 	str	r5, [r4]
   108f0:	e5843004 	str	r3, [r4, #4]
   108f4:	e5843008 	str	r3, [r4, #8]
   108f8:	e1a00004 	mov	r0, r4
   108fc:	e8bd8070 	pop	{r4, r5, r6, pc}

00010900 <fifoGet>:
   10900:	e92d40f8 	push	{r3, r4, r5, r6, r7, lr}
   10904:	e590300c 	ldr	r3, [r0, #12]
   10908:	e1a04000 	mov	r4, r0
   1090c:	e9900041 	ldmib	r0, {r0, r6}
   10910:	e0830000 	add	r0, r3, r0
   10914:	e2800001 	add	r0, r0, #1
   10918:	e1a05001 	mov	r5, r1
   1091c:	e0660000 	rsb	r0, r6, r0
   10920:	e2831001 	add	r1, r3, #1
   10924:	e1a07002 	mov	r7, r2
   10928:	eb001101 	bl	14d34 <__aeabi_uidivmod>
   1092c:	e1510007 	cmp	r1, r7
   10930:	3a000010 	bcc	10978 <fifoGet+0x78>
   10934:	e3570000 	cmp	r7, #0
   10938:	11a01006 	movne	r1, r6
   1093c:	10856007 	addne	r6, r5, r7
   10940:	0a00000a 	beq	10970 <fifoGet+0x70>
   10944:	e5943000 	ldr	r3, [r4]
   10948:	e7d33001 	ldrb	r3, [r3, r1]
   1094c:	e4c53001 	strb	r3, [r5], #1
   10950:	e5940008 	ldr	r0, [r4, #8]
   10954:	e594100c 	ldr	r1, [r4, #12]
   10958:	e2800001 	add	r0, r0, #1
   1095c:	e2811001 	add	r1, r1, #1
   10960:	eb0010f3 	bl	14d34 <__aeabi_uidivmod>
   10964:	e1550006 	cmp	r5, r6
   10968:	e5841008 	str	r1, [r4, #8]
   1096c:	1afffff4 	bne	10944 <fifoGet+0x44>
   10970:	e1a00007 	mov	r0, r7
   10974:	e8bd80f8 	pop	{r3, r4, r5, r6, r7, pc}
   10978:	e3a00000 	mov	r0, #0
   1097c:	e8bd80f8 	pop	{r3, r4, r5, r6, r7, pc}

00010980 <fifoPut>:
   10980:	e92d41f0 	push	{r4, r5, r6, r7, r8, lr}
   10984:	e590600c 	ldr	r6, [r0, #12]
   10988:	e5908004 	ldr	r8, [r0, #4]
   1098c:	e5903008 	ldr	r3, [r0, #8]
   10990:	e1a04000 	mov	r4, r0
   10994:	e0880006 	add	r0, r8, r6
   10998:	e2800001 	add	r0, r0, #1
   1099c:	e1a05001 	mov	r5, r1
   109a0:	e0630000 	rsb	r0, r3, r0
   109a4:	e2861001 	add	r1, r6, #1
   109a8:	e1a07002 	mov	r7, r2
   109ac:	eb0010e0 	bl	14d34 <__aeabi_uidivmod>
   109b0:	e0611006 	rsb	r1, r1, r6
   109b4:	e1510007 	cmp	r1, r7
   109b8:	3a000010 	bcc	10a00 <fifoPut+0x80>
   109bc:	e3570000 	cmp	r7, #0
   109c0:	11a01008 	movne	r1, r8
   109c4:	10856007 	addne	r6, r5, r7
   109c8:	0a00000a 	beq	109f8 <fifoPut+0x78>
   109cc:	e4d52001 	ldrb	r2, [r5], #1
   109d0:	e5943000 	ldr	r3, [r4]
   109d4:	e7c32001 	strb	r2, [r3, r1]
   109d8:	e5940004 	ldr	r0, [r4, #4]
   109dc:	e594100c 	ldr	r1, [r4, #12]
   109e0:	e2800001 	add	r0, r0, #1
   109e4:	e2811001 	add	r1, r1, #1
   109e8:	eb0010d1 	bl	14d34 <__aeabi_uidivmod>
   109ec:	e1550006 	cmp	r5, r6
   109f0:	e5841004 	str	r1, [r4, #4]
   109f4:	1afffff4 	bne	109cc <fifoPut+0x4c>
   109f8:	e1a00007 	mov	r0, r7
   109fc:	e8bd81f0 	pop	{r4, r5, r6, r7, r8, pc}
   10a00:	e3a00000 	mov	r0, #0
   10a04:	e8bd81f0 	pop	{r4, r5, r6, r7, r8, pc}

00010a08 <fifoEmpty>:
   10a08:	e5903004 	ldr	r3, [r0, #4]
   10a0c:	e5803008 	str	r3, [r0, #8]
   10a10:	e12fff1e 	bx	lr

00010a14 <showstop>:
   10a14:	e59f0000 	ldr	r0, [pc]	; 10a1c <showstop+0x8>
   10a18:	eafffe5b 	b	1038c <uart_string>
   10a1c:	00014d80 	andeq	r4, r1, r0, lsl #27

00010a20 <unused>:
   10a20:	e92d4008 	push	{r3, lr}
   10a24:	e59f0004 	ldr	r0, [pc, #4]	; 10a30 <unused+0x10>
   10a28:	ebfffe57 	bl	1038c <uart_string>
   10a2c:	eafffffe 	b	10a2c <unused+0xc>
   10a30:	00014d8c 	andeq	r4, r1, ip, lsl #27

00010a34 <fiq>:
   10a34:	e92d4008 	push	{r3, lr}
   10a38:	e59f0004 	ldr	r0, [pc, #4]	; 10a44 <fiq+0x10>
   10a3c:	ebfffe52 	bl	1038c <uart_string>
   10a40:	eafffffe 	b	10a40 <fiq+0xc>
   10a44:	00014d94 	muleq	r1, r4, sp

00010a48 <undefined_instruction>:
   10a48:	e92d4008 	push	{r3, lr}
   10a4c:	e59f0004 	ldr	r0, [pc, #4]	; 10a58 <undefined_instruction+0x10>
   10a50:	ebfffe4d 	bl	1038c <uart_string>
   10a54:	eafffffe 	b	10a54 <undefined_instruction+0xc>
   10a58:	00014d98 	muleq	r1, r8, sp

00010a5c <swi>:
   10a5c:	e92d4008 	push	{r3, lr}
   10a60:	e59f0004 	ldr	r0, [pc, #4]	; 10a6c <swi+0x10>
   10a64:	ebfffe48 	bl	1038c <uart_string>
   10a68:	eafffffe 	b	10a68 <swi+0xc>
   10a6c:	00014db0 			; <UNDEFINED> instruction: 0x00014db0

00010a70 <prefetch_abort>:
   10a70:	e92d4008 	push	{r3, lr}
   10a74:	e59f0004 	ldr	r0, [pc, #4]	; 10a80 <prefetch_abort+0x10>
   10a78:	ebfffe43 	bl	1038c <uart_string>
   10a7c:	eafffffe 	b	10a7c <prefetch_abort+0xc>
   10a80:	00014db4 			; <UNDEFINED> instruction: 0x00014db4

00010a84 <data_abort>:
   10a84:	e92d4008 	push	{r3, lr}
   10a88:	e59f0004 	ldr	r0, [pc, #4]	; 10a94 <data_abort+0x10>
   10a8c:	ebfffe3e 	bl	1038c <uart_string>
   10a90:	eafffffe 	b	10a90 <data_abort+0xc>
   10a94:	00014dc4 	andeq	r4, r1, r4, asr #27

00010a98 <OSCtxSw>:
   10a98:	e52de004 	push	{lr}		; (str lr, [sp, #-4]!)
   10a9c:	e52de004 	push	{lr}		; (str lr, [sp, #-4]!)
   10aa0:	e52dc004 	push	{ip}		; (str ip, [sp, #-4]!)
   10aa4:	e52db004 	push	{fp}		; (str fp, [sp, #-4]!)
   10aa8:	e52da004 	push	{sl}		; (str sl, [sp, #-4]!)
   10aac:	e52d9004 	push	{r9}		; (str r9, [sp, #-4]!)
   10ab0:	e52d8004 	push	{r8}		; (str r8, [sp, #-4]!)
   10ab4:	e52d7004 	push	{r7}		; (str r7, [sp, #-4]!)
   10ab8:	e52d6004 	push	{r6}		; (str r6, [sp, #-4]!)
   10abc:	e52d5004 	push	{r5}		; (str r5, [sp, #-4]!)
   10ac0:	e52d4004 	push	{r4}		; (str r4, [sp, #-4]!)
   10ac4:	e52d3004 	push	{r3}		; (str r3, [sp, #-4]!)
   10ac8:	e52d2004 	push	{r2}		; (str r2, [sp, #-4]!)
   10acc:	e52d1004 	push	{r1}		; (str r1, [sp, #-4]!)
   10ad0:	e52d0004 	push	{r0}		; (str r0, [sp, #-4]!)
   10ad4:	e10f4000 	mrs	r4, CPSR
   10ad8:	e52d4004 	push	{r4}		; (str r4, [sp, #-4]!)
   10adc:	e59f424c 	ldr	r4, [pc, #588]	; 10d30 <OS_CPU_IRQ_ISR_1+0x54>
   10ae0:	e5945000 	ldr	r5, [r4]
   10ae4:	e585d000 	str	sp, [r5]
   10ae8:	eb0000c8 	bl	10e10 <OSTaskSwHook>
   10aec:	e59f4240 	ldr	r4, [pc, #576]	; 10d34 <OS_CPU_IRQ_ISR_1+0x58>
   10af0:	e59f5240 	ldr	r5, [pc, #576]	; 10d38 <OS_CPU_IRQ_ISR_1+0x5c>
   10af4:	e5d56000 	ldrb	r6, [r5]
   10af8:	e5c46000 	strb	r6, [r4]
   10afc:	e59f422c 	ldr	r4, [pc, #556]	; 10d30 <OS_CPU_IRQ_ISR_1+0x54>
   10b00:	e59f6234 	ldr	r6, [pc, #564]	; 10d3c <OS_CPU_IRQ_ISR_1+0x60>
   10b04:	e5966000 	ldr	r6, [r6]
   10b08:	e5846000 	str	r6, [r4]
   10b0c:	e596d000 	ldr	sp, [r6]
   10b10:	e49d4004 	pop	{r4}		; (ldr r4, [sp], #4)
   10b14:	e12ff004 	msr	CPSR_fsxc, r4
   10b18:	e49d0004 	pop	{r0}		; (ldr r0, [sp], #4)
   10b1c:	e49d1004 	pop	{r1}		; (ldr r1, [sp], #4)
   10b20:	e49d2004 	pop	{r2}		; (ldr r2, [sp], #4)
   10b24:	e49d3004 	pop	{r3}		; (ldr r3, [sp], #4)
   10b28:	e49d4004 	pop	{r4}		; (ldr r4, [sp], #4)
   10b2c:	e49d5004 	pop	{r5}		; (ldr r5, [sp], #4)
   10b30:	e49d6004 	pop	{r6}		; (ldr r6, [sp], #4)
   10b34:	e49d7004 	pop	{r7}		; (ldr r7, [sp], #4)
   10b38:	e49d8004 	pop	{r8}		; (ldr r8, [sp], #4)
   10b3c:	e49d9004 	pop	{r9}		; (ldr r9, [sp], #4)
   10b40:	e49da004 	pop	{sl}		; (ldr sl, [sp], #4)
   10b44:	e49db004 	pop	{fp}		; (ldr fp, [sp], #4)
   10b48:	e49dc004 	pop	{ip}		; (ldr ip, [sp], #4)
   10b4c:	e49de004 	pop	{lr}		; (ldr lr, [sp], #4)
   10b50:	e49df004 	pop	{pc}		; (ldr pc, [sp], #4)

00010b54 <OSIntCtxSw>:
   10b54:	eb0000ad 	bl	10e10 <OSTaskSwHook>
   10b58:	e59f41d4 	ldr	r4, [pc, #468]	; 10d34 <OS_CPU_IRQ_ISR_1+0x58>
   10b5c:	e59f51d4 	ldr	r5, [pc, #468]	; 10d38 <OS_CPU_IRQ_ISR_1+0x5c>
   10b60:	e5d56000 	ldrb	r6, [r5]
   10b64:	e5c46000 	strb	r6, [r4]
   10b68:	e59f41c0 	ldr	r4, [pc, #448]	; 10d30 <OS_CPU_IRQ_ISR_1+0x54>
   10b6c:	e59f61c8 	ldr	r6, [pc, #456]	; 10d3c <OS_CPU_IRQ_ISR_1+0x60>
   10b70:	e5966000 	ldr	r6, [r6]
   10b74:	e5846000 	str	r6, [r4]
   10b78:	e596d000 	ldr	sp, [r6]
   10b7c:	e49d4004 	pop	{r4}		; (ldr r4, [sp], #4)
   10b80:	e12ff004 	msr	CPSR_fsxc, r4
   10b84:	e49d0004 	pop	{r0}		; (ldr r0, [sp], #4)
   10b88:	e49d1004 	pop	{r1}		; (ldr r1, [sp], #4)
   10b8c:	e49d2004 	pop	{r2}		; (ldr r2, [sp], #4)
   10b90:	e49d3004 	pop	{r3}		; (ldr r3, [sp], #4)
   10b94:	e49d4004 	pop	{r4}		; (ldr r4, [sp], #4)
   10b98:	e49d5004 	pop	{r5}		; (ldr r5, [sp], #4)
   10b9c:	e49d6004 	pop	{r6}		; (ldr r6, [sp], #4)
   10ba0:	e49d7004 	pop	{r7}		; (ldr r7, [sp], #4)
   10ba4:	e49d8004 	pop	{r8}		; (ldr r8, [sp], #4)
   10ba8:	e49d9004 	pop	{r9}		; (ldr r9, [sp], #4)
   10bac:	e49da004 	pop	{sl}		; (ldr sl, [sp], #4)
   10bb0:	e49db004 	pop	{fp}		; (ldr fp, [sp], #4)
   10bb4:	e49dc004 	pop	{ip}		; (ldr ip, [sp], #4)
   10bb8:	e49de004 	pop	{lr}		; (ldr lr, [sp], #4)
   10bbc:	e49df004 	pop	{pc}		; (ldr pc, [sp], #4)

00010bc0 <OSStartHighRdy>:
   10bc0:	e32ff0df 	msr	CPSR_fsxc, #223	; 0xdf
   10bc4:	eb000091 	bl	10e10 <OSTaskSwHook>
   10bc8:	e59f4170 	ldr	r4, [pc, #368]	; 10d40 <OS_CPU_IRQ_ISR_1+0x64>
   10bcc:	e3a05001 	mov	r5, #1
   10bd0:	e5c45000 	strb	r5, [r4]
   10bd4:	e59f4160 	ldr	r4, [pc, #352]	; 10d3c <OS_CPU_IRQ_ISR_1+0x60>
   10bd8:	e5944000 	ldr	r4, [r4]
   10bdc:	e594d000 	ldr	sp, [r4]
   10be0:	e49d4004 	pop	{r4}		; (ldr r4, [sp], #4)
   10be4:	e12ff004 	msr	CPSR_fsxc, r4
   10be8:	e49d0004 	pop	{r0}		; (ldr r0, [sp], #4)
   10bec:	e49d1004 	pop	{r1}		; (ldr r1, [sp], #4)
   10bf0:	e49d2004 	pop	{r2}		; (ldr r2, [sp], #4)
   10bf4:	e49d3004 	pop	{r3}		; (ldr r3, [sp], #4)
   10bf8:	e49d4004 	pop	{r4}		; (ldr r4, [sp], #4)
   10bfc:	e49d5004 	pop	{r5}		; (ldr r5, [sp], #4)
   10c00:	e49d6004 	pop	{r6}		; (ldr r6, [sp], #4)
   10c04:	e49d7004 	pop	{r7}		; (ldr r7, [sp], #4)
   10c08:	e49d8004 	pop	{r8}		; (ldr r8, [sp], #4)
   10c0c:	e49d9004 	pop	{r9}		; (ldr r9, [sp], #4)
   10c10:	e49da004 	pop	{sl}		; (ldr sl, [sp], #4)
   10c14:	e49db004 	pop	{fp}		; (ldr fp, [sp], #4)
   10c18:	e49dc004 	pop	{ip}		; (ldr ip, [sp], #4)
   10c1c:	e49de004 	pop	{lr}		; (ldr lr, [sp], #4)
   10c20:	e49df004 	pop	{pc}		; (ldr pc, [sp], #4)

00010c24 <OS_CPU_SR_Save>:
   10c24:	e10f0000 	mrs	r0, CPSR
   10c28:	e38010c0 	orr	r1, r0, #192	; 0xc0
   10c2c:	e121f001 	msr	CPSR_c, r1
   10c30:	e10f1000 	mrs	r1, CPSR
   10c34:	e20110c0 	and	r1, r1, #192	; 0xc0
   10c38:	e35100c0 	cmp	r1, #192	; 0xc0
   10c3c:	1afffff8 	bne	10c24 <OS_CPU_SR_Save>
   10c40:	e1a0f00e 	mov	pc, lr

00010c44 <OS_CPU_SR_Restore>:
   10c44:	e121f000 	msr	CPSR_c, r0
   10c48:	e1a0f00e 	mov	pc, lr

00010c4c <OS_CPU_IRQ_ISR>:
   10c4c:	e52d3004 	push	{r3}		; (str r3, [sp, #-4]!)
   10c50:	e52d2004 	push	{r2}		; (str r2, [sp, #-4]!)
   10c54:	e52d1004 	push	{r1}		; (str r1, [sp, #-4]!)
   10c58:	e1a0100d 	mov	r1, sp
   10c5c:	e28dd00c 	add	sp, sp, #12
   10c60:	e24e2004 	sub	r2, lr, #4
   10c64:	e14f3000 	mrs	r3, SPSR
   10c68:	e321f0df 	msr	CPSR_c, #223	; 0xdf
   10c6c:	e52d2004 	push	{r2}		; (str r2, [sp, #-4]!)
   10c70:	e52de004 	push	{lr}		; (str lr, [sp, #-4]!)
   10c74:	e52dc004 	push	{ip}		; (str ip, [sp, #-4]!)
   10c78:	e52db004 	push	{fp}		; (str fp, [sp, #-4]!)
   10c7c:	e52da004 	push	{sl}		; (str sl, [sp, #-4]!)
   10c80:	e52d9004 	push	{r9}		; (str r9, [sp, #-4]!)
   10c84:	e52d8004 	push	{r8}		; (str r8, [sp, #-4]!)
   10c88:	e52d7004 	push	{r7}		; (str r7, [sp, #-4]!)
   10c8c:	e52d6004 	push	{r6}		; (str r6, [sp, #-4]!)
   10c90:	e52d5004 	push	{r5}		; (str r5, [sp, #-4]!)
   10c94:	e52d4004 	push	{r4}		; (str r4, [sp, #-4]!)
   10c98:	e4914004 	ldr	r4, [r1], #4
   10c9c:	e4915004 	ldr	r5, [r1], #4
   10ca0:	e4916004 	ldr	r6, [r1], #4
   10ca4:	e52d6004 	push	{r6}		; (str r6, [sp, #-4]!)
   10ca8:	e52d5004 	push	{r5}		; (str r5, [sp, #-4]!)
   10cac:	e52d4004 	push	{r4}		; (str r4, [sp, #-4]!)
   10cb0:	e52d0004 	push	{r0}		; (str r0, [sp, #-4]!)
   10cb4:	e52d3004 	push	{r3}		; (str r3, [sp, #-4]!)
   10cb8:	e59f0084 	ldr	r0, [pc, #132]	; 10d44 <OS_CPU_IRQ_ISR_1+0x68>
   10cbc:	e5d01000 	ldrb	r1, [r0]
   10cc0:	e2811001 	add	r1, r1, #1
   10cc4:	e5c01000 	strb	r1, [r0]
   10cc8:	e3510001 	cmp	r1, #1
   10ccc:	1a000002 	bne	10cdc <OS_CPU_IRQ_ISR_1>
   10cd0:	e59f4058 	ldr	r4, [pc, #88]	; 10d30 <OS_CPU_IRQ_ISR_1+0x54>
   10cd4:	e5945000 	ldr	r5, [r4]
   10cd8:	e585d000 	str	sp, [r5]

00010cdc <OS_CPU_IRQ_ISR_1>:
   10cdc:	e321f0d2 	msr	CPSR_c, #210	; 0xd2
   10ce0:	ebfffe6e 	bl	106a0 <OS_CPU_IRQ_ISR_Handler>
   10ce4:	e321f0df 	msr	CPSR_c, #223	; 0xdf
   10ce8:	eb0000b5 	bl	10fc4 <OSIntExit>
   10cec:	e49d4004 	pop	{r4}		; (ldr r4, [sp], #4)
   10cf0:	e12ff004 	msr	CPSR_fsxc, r4
   10cf4:	e49d0004 	pop	{r0}		; (ldr r0, [sp], #4)
   10cf8:	e49d1004 	pop	{r1}		; (ldr r1, [sp], #4)
   10cfc:	e49d2004 	pop	{r2}		; (ldr r2, [sp], #4)
   10d00:	e49d3004 	pop	{r3}		; (ldr r3, [sp], #4)
   10d04:	e49d4004 	pop	{r4}		; (ldr r4, [sp], #4)
   10d08:	e49d5004 	pop	{r5}		; (ldr r5, [sp], #4)
   10d0c:	e49d6004 	pop	{r6}		; (ldr r6, [sp], #4)
   10d10:	e49d7004 	pop	{r7}		; (ldr r7, [sp], #4)
   10d14:	e49d8004 	pop	{r8}		; (ldr r8, [sp], #4)
   10d18:	e49d9004 	pop	{r9}		; (ldr r9, [sp], #4)
   10d1c:	e49da004 	pop	{sl}		; (ldr sl, [sp], #4)
   10d20:	e49db004 	pop	{fp}		; (ldr fp, [sp], #4)
   10d24:	e49dc004 	pop	{ip}		; (ldr ip, [sp], #4)
   10d28:	e49de004 	pop	{lr}		; (ldr lr, [sp], #4)
   10d2c:	e49df004 	pop	{pc}		; (ldr pc, [sp], #4)
   10d30:	0001670c 	andeq	r6, r1, ip, lsl #14
   10d34:	00015df8 	strdeq	r5, [r1], -r8
   10d38:	00015db8 			; <UNDEFINED> instruction: 0x00015db8
   10d3c:	000166f0 	strdeq	r6, [r1], -r0
   10d40:	00015db1 			; <UNDEFINED> instruction: 0x00015db1
   10d44:	00016709 	andeq	r6, r1, r9, lsl #14

00010d48 <OSTaskStkInit>:
   10d48:	e92d0ff0 	push	{r4, r5, r6, r7, r8, r9, sl, fp}
   10d4c:	e59fb080 	ldr	fp, [pc, #128]	; 10dd4 <OSTaskStkInit+0x8c>
   10d50:	e59fa080 	ldr	sl, [pc, #128]	; 10dd8 <OSTaskStkInit+0x90>
   10d54:	e59f9080 	ldr	r9, [pc, #128]	; 10ddc <OSTaskStkInit+0x94>
   10d58:	e59f8080 	ldr	r8, [pc, #128]	; 10de0 <OSTaskStkInit+0x98>
   10d5c:	e59f7080 	ldr	r7, [pc, #128]	; 10de4 <OSTaskStkInit+0x9c>
   10d60:	e59f6080 	ldr	r6, [pc, #128]	; 10de8 <OSTaskStkInit+0xa0>
   10d64:	e59f5080 	ldr	r5, [pc, #128]	; 10dec <OSTaskStkInit+0xa4>
   10d68:	e59f4080 	ldr	r4, [pc, #128]	; 10df0 <OSTaskStkInit+0xa8>
   10d6c:	e5820000 	str	r0, [r2]
   10d70:	e5021038 	str	r1, [r2, #-56]	; 0xffffffc8
   10d74:	e59f0078 	ldr	r0, [pc, #120]	; 10df4 <OSTaskStkInit+0xac>
   10d78:	e502b004 	str	fp, [r2, #-4]
   10d7c:	e59fc074 	ldr	ip, [pc, #116]	; 10df8 <OSTaskStkInit+0xb0>
   10d80:	e59fb074 	ldr	fp, [pc, #116]	; 10dfc <OSTaskStkInit+0xb4>
   10d84:	e59f3074 	ldr	r3, [pc, #116]	; 10e00 <OSTaskStkInit+0xb8>
   10d88:	e59f1074 	ldr	r1, [pc, #116]	; 10e04 <OSTaskStkInit+0xbc>
   10d8c:	e502a008 	str	sl, [r2, #-8]
   10d90:	e502900c 	str	r9, [r2, #-12]
   10d94:	e1a0a002 	mov	sl, r2
   10d98:	e3a0901f 	mov	r9, #31
   10d9c:	e5028010 	str	r8, [r2, #-16]
   10da0:	e5027014 	str	r7, [r2, #-20]	; 0xffffffec
   10da4:	e5026018 	str	r6, [r2, #-24]	; 0xffffffe8
   10da8:	e502501c 	str	r5, [r2, #-28]	; 0xffffffe4
   10dac:	e5024020 	str	r4, [r2, #-32]	; 0xffffffe0
   10db0:	e502002c 	str	r0, [r2, #-44]	; 0xffffffd4
   10db4:	e502b034 	str	fp, [r2, #-52]	; 0xffffffcc
   10db8:	e502c024 	str	ip, [r2, #-36]	; 0xffffffdc
   10dbc:	e5023028 	str	r3, [r2, #-40]	; 0xffffffd8
   10dc0:	e5021030 	str	r1, [r2, #-48]	; 0xffffffd0
   10dc4:	e52a903c 	str	r9, [sl, #-60]!	; 0xffffffc4
   10dc8:	e1a0000a 	mov	r0, sl
   10dcc:	e8bd0ff0 	pop	{r4, r5, r6, r7, r8, r9, sl, fp}
   10dd0:	e12fff1e 	bx	lr
   10dd4:	14141414 	ldrne	r1, [r4], #-1044	; 0xfffffbec
   10dd8:	12121212 	andsne	r1, r2, #536870913	; 0x20000001
   10ddc:	11111111 	tstne	r1, r1, lsl r1
   10de0:	10101010 	andsne	r1, r0, r0, lsl r0
   10de4:	09090909 	stmdbeq	r9, {r0, r3, r8, fp}
   10de8:	08080808 	stmdaeq	r8, {r3, fp}
   10dec:	07070707 	streq	r0, [r7, -r7, lsl #14]
   10df0:	06060606 	streq	r0, [r6], -r6, lsl #12
   10df4:	03030303 	movweq	r0, #13059	; 0x3303
   10df8:	05050505 	streq	r0, [r5, #-1285]	; 0xfffffafb
   10dfc:	01010101 	tsteq	r1, r1, lsl #2
   10e00:	04040404 	streq	r0, [r4], #-1028	; 0xfffffbfc
   10e04:	02020202 	andeq	r0, r2, #536870912	; 0x20000000

00010e08 <OSTaskCreateHook>:
   10e08:	e12fff1e 	bx	lr

00010e0c <OSTaskDelHook>:
   10e0c:	e12fff1e 	bx	lr

00010e10 <OSTaskSwHook>:
   10e10:	e12fff1e 	bx	lr

00010e14 <OSTaskStatHook>:
   10e14:	e12fff1e 	bx	lr

00010e18 <OSTimeTickHook>:
   10e18:	e12fff1e 	bx	lr

00010e1c <OSInitHookBegin>:
   10e1c:	e12fff1e 	bx	lr

00010e20 <OSInitHookEnd>:
   10e20:	e12fff1e 	bx	lr

00010e24 <OSTaskIdleHook>:
   10e24:	e12fff1e 	bx	lr

00010e28 <OSTCBInitHook>:
   10e28:	e12fff1e 	bx	lr

00010e2c <OS_FlagBlock>:
   10e2c:	e92d0030 	push	{r4, r5}
   10e30:	e59fc07c 	ldr	ip, [pc, #124]	; 10eb4 <OS_FlagBlock+0x88>
   10e34:	e1dd40b8 	ldrh	r4, [sp, #8]
   10e38:	e59cc000 	ldr	ip, [ip]
   10e3c:	e5dc502c 	ldrb	r5, [ip, #44]	; 0x2c
   10e40:	e58c1024 	str	r1, [ip, #36]	; 0x24
   10e44:	e3855020 	orr	r5, r5, #32
   10e48:	e5cc502c 	strb	r5, [ip, #44]	; 0x2c
   10e4c:	e1cc42ba 	strh	r4, [ip, #42]	; 0x2a
   10e50:	e5c13012 	strb	r3, [r1, #18]
   10e54:	e5903004 	ldr	r3, [r0, #4]
   10e58:	e3a04000 	mov	r4, #0
   10e5c:	e1530004 	cmp	r3, r4
   10e60:	e5813000 	str	r3, [r1]
   10e64:	e5814004 	str	r4, [r1, #4]
   10e68:	e1c121b0 	strh	r2, [r1, #16]
   10e6c:	e581c008 	str	ip, [r1, #8]
   10e70:	e581000c 	str	r0, [r1, #12]
   10e74:	15831004 	strne	r1, [r3, #4]
   10e78:	e5801004 	str	r1, [r0, #4]
   10e7c:	e5dc302f 	ldrb	r3, [ip, #47]	; 0x2f
   10e80:	e59f2030 	ldr	r2, [pc, #48]	; 10eb8 <OS_FlagBlock+0x8c>
   10e84:	e5dc0030 	ldrb	r0, [ip, #48]	; 0x30
   10e88:	e7d21003 	ldrb	r1, [r2, r3]
   10e8c:	e1c11000 	bic	r1, r1, r0
   10e90:	e3510000 	cmp	r1, #0
   10e94:	e7c21003 	strb	r1, [r2, r3]
   10e98:	059f301c 	ldreq	r3, [pc, #28]	; 10ebc <OS_FlagBlock+0x90>
   10e9c:	05dc1031 	ldrbeq	r1, [ip, #49]	; 0x31
   10ea0:	05d32000 	ldrbeq	r2, [r3]
   10ea4:	01c22001 	biceq	r2, r2, r1
   10ea8:	05c32000 	strbeq	r2, [r3]
   10eac:	e8bd0030 	pop	{r4, r5}
   10eb0:	e12fff1e 	bx	lr
   10eb4:	0001670c 	andeq	r6, r1, ip, lsl #14
   10eb8:	000166fc 	strdeq	r6, [r1], -ip
   10ebc:	000166f8 	strdeq	r6, [r1], -r8

00010ec0 <OS_FlagTaskRdy>:
   10ec0:	e92d0070 	push	{r4, r5, r6}
   10ec4:	e5903008 	ldr	r3, [r0, #8]
   10ec8:	e1a02000 	mov	r2, r0
   10ecc:	e5d3c02c 	ldrb	ip, [r3, #44]	; 0x2c
   10ed0:	e3a00000 	mov	r0, #0
   10ed4:	e1c312b8 	strh	r1, [r3, #40]	; 0x28
   10ed8:	e20c10df 	and	r1, ip, #223	; 0xdf
   10edc:	e1510000 	cmp	r1, r0
   10ee0:	e5c3102c 	strb	r1, [r3, #44]	; 0x2c
   10ee4:	e1c302ba 	strh	r0, [r3, #42]	; 0x2a
   10ee8:	1a00000b 	bne	10f1c <OS_FlagTaskRdy+0x5c>
   10eec:	e5d3102f 	ldrb	r1, [r3, #47]	; 0x2f
   10ef0:	e59f006c 	ldr	r0, [pc, #108]	; 10f64 <OS_FlagTaskRdy+0xa4>
   10ef4:	e59fc06c 	ldr	ip, [pc, #108]	; 10f68 <OS_FlagTaskRdy+0xa8>
   10ef8:	e7d05001 	ldrb	r5, [r0, r1]
   10efc:	e5dc6000 	ldrb	r6, [ip]
   10f00:	e5d34031 	ldrb	r4, [r3, #49]	; 0x31
   10f04:	e5d33030 	ldrb	r3, [r3, #48]	; 0x30
   10f08:	e1864004 	orr	r4, r6, r4
   10f0c:	e1853003 	orr	r3, r5, r3
   10f10:	e7c03001 	strb	r3, [r0, r1]
   10f14:	e5cc4000 	strb	r4, [ip]
   10f18:	e3a00001 	mov	r0, #1
   10f1c:	e5921004 	ldr	r1, [r2, #4]
   10f20:	e5923000 	ldr	r3, [r2]
   10f24:	e3510000 	cmp	r1, #0
   10f28:	0a000008 	beq	10f50 <OS_FlagTaskRdy+0x90>
   10f2c:	e3530000 	cmp	r3, #0
   10f30:	e5813000 	str	r3, [r1]
   10f34:	0a000000 	beq	10f3c <OS_FlagTaskRdy+0x7c>
   10f38:	e5831004 	str	r1, [r3, #4]
   10f3c:	e5923008 	ldr	r3, [r2, #8]
   10f40:	e3a02000 	mov	r2, #0
   10f44:	e5832024 	str	r2, [r3, #36]	; 0x24
   10f48:	e8bd0070 	pop	{r4, r5, r6}
   10f4c:	e12fff1e 	bx	lr
   10f50:	e592c00c 	ldr	ip, [r2, #12]
   10f54:	e3530000 	cmp	r3, #0
   10f58:	e58c3004 	str	r3, [ip, #4]
   10f5c:	1afffff5 	bne	10f38 <OS_FlagTaskRdy+0x78>
   10f60:	eafffff5 	b	10f3c <OS_FlagTaskRdy+0x7c>
   10f64:	000166fc 	strdeq	r6, [r1], -ip
   10f68:	000166f8 	strdeq	r6, [r1], -r8

00010f6c <OS_TaskIdle>:
   10f6c:	e92d4010 	push	{r4, lr}
   10f70:	e59f4018 	ldr	r4, [pc, #24]	; 10f90 <OS_TaskIdle+0x24>
   10f74:	ebffff2a 	bl	10c24 <OS_CPU_SR_Save>
   10f78:	e5943000 	ldr	r3, [r4]
   10f7c:	e2833001 	add	r3, r3, #1
   10f80:	e5843000 	str	r3, [r4]
   10f84:	ebffff2e 	bl	10c44 <OS_CPU_SR_Restore>
   10f88:	ebffffa5 	bl	10e24 <OSTaskIdleHook>
   10f8c:	eafffff8 	b	10f74 <OS_TaskIdle+0x8>
   10f90:	00015db4 			; <UNDEFINED> instruction: 0x00015db4

00010f94 <OSIntEnter>:
   10f94:	e59f3020 	ldr	r3, [pc, #32]	; 10fbc <OSIntEnter+0x28>
   10f98:	e5d33000 	ldrb	r3, [r3]
   10f9c:	e3530001 	cmp	r3, #1
   10fa0:	112fff1e 	bxne	lr
   10fa4:	e59f3014 	ldr	r3, [pc, #20]	; 10fc0 <OSIntEnter+0x2c>
   10fa8:	e5d32000 	ldrb	r2, [r3]
   10fac:	e35200ff 	cmp	r2, #255	; 0xff
   10fb0:	12822001 	addne	r2, r2, #1
   10fb4:	15c32000 	strbne	r2, [r3]
   10fb8:	e12fff1e 	bx	lr
   10fbc:	00015db1 			; <UNDEFINED> instruction: 0x00015db1
   10fc0:	00016709 	andeq	r6, r1, r9, lsl #14

00010fc4 <OSIntExit>:
   10fc4:	e92d4010 	push	{r4, lr}
   10fc8:	e59f30cc 	ldr	r3, [pc, #204]	; 1109c <OSIntExit+0xd8>
   10fcc:	e24dd008 	sub	sp, sp, #8
   10fd0:	e5d33000 	ldrb	r3, [r3]
   10fd4:	e3530001 	cmp	r3, #1
   10fd8:	0a000001 	beq	10fe4 <OSIntExit+0x20>
   10fdc:	e28dd008 	add	sp, sp, #8
   10fe0:	e8bd8010 	pop	{r4, pc}
   10fe4:	ebffff0e 	bl	10c24 <OS_CPU_SR_Save>
   10fe8:	e59f30b0 	ldr	r3, [pc, #176]	; 110a0 <OSIntExit+0xdc>
   10fec:	e5d32000 	ldrb	r2, [r3]
   10ff0:	e3520000 	cmp	r2, #0
   10ff4:	1a000022 	bne	11084 <OSIntExit+0xc0>
   10ff8:	e59f30a4 	ldr	r3, [pc, #164]	; 110a4 <OSIntExit+0xe0>
   10ffc:	e5d33000 	ldrb	r3, [r3]
   11000:	e3530000 	cmp	r3, #0
   11004:	1a00001b 	bne	11078 <OSIntExit+0xb4>
   11008:	e59f3098 	ldr	r3, [pc, #152]	; 110a8 <OSIntExit+0xe4>
   1100c:	e59f2098 	ldr	r2, [pc, #152]	; 110ac <OSIntExit+0xe8>
   11010:	e5d33000 	ldrb	r3, [r3]
   11014:	e59f1094 	ldr	r1, [pc, #148]	; 110b0 <OSIntExit+0xec>
   11018:	e7d23003 	ldrb	r3, [r2, r3]
   1101c:	e59fc090 	ldr	ip, [pc, #144]	; 110b4 <OSIntExit+0xf0>
   11020:	e7d11003 	ldrb	r1, [r1, r3]
   11024:	e5dc4000 	ldrb	r4, [ip]
   11028:	e7d22001 	ldrb	r2, [r2, r1]
   1102c:	e59fc084 	ldr	ip, [pc, #132]	; 110b8 <OSIntExit+0xf4>
   11030:	e0822183 	add	r2, r2, r3, lsl #3
   11034:	e6ef2072 	uxtb	r2, r2
   11038:	e59f107c 	ldr	r1, [pc, #124]	; 110bc <OSIntExit+0xf8>
   1103c:	e1540002 	cmp	r4, r2
   11040:	e5cc2000 	strb	r2, [ip]
   11044:	e5c13000 	strb	r3, [r1]
   11048:	0a00000a 	beq	11078 <OSIntExit+0xb4>
   1104c:	e59f306c 	ldr	r3, [pc, #108]	; 110c0 <OSIntExit+0xfc>
   11050:	e59f106c 	ldr	r1, [pc, #108]	; 110c4 <OSIntExit+0x100>
   11054:	e593c000 	ldr	ip, [r3]
   11058:	e7911102 	ldr	r1, [r1, r2, lsl #2]
   1105c:	e59f2064 	ldr	r2, [pc, #100]	; 110c8 <OSIntExit+0x104>
   11060:	e28cc001 	add	ip, ip, #1
   11064:	e583c000 	str	ip, [r3]
   11068:	e5821000 	str	r1, [r2]
   1106c:	e58d0004 	str	r0, [sp, #4]
   11070:	ebfffeb7 	bl	10b54 <OSIntCtxSw>
   11074:	e59d0004 	ldr	r0, [sp, #4]
   11078:	e28dd008 	add	sp, sp, #8
   1107c:	e8bd4010 	pop	{r4, lr}
   11080:	eafffeef 	b	10c44 <OS_CPU_SR_Restore>
   11084:	e2422001 	sub	r2, r2, #1
   11088:	e6ef2072 	uxtb	r2, r2
   1108c:	e3520000 	cmp	r2, #0
   11090:	e5c32000 	strb	r2, [r3]
   11094:	1afffff7 	bne	11078 <OSIntExit+0xb4>
   11098:	eaffffd6 	b	10ff8 <OSIntExit+0x34>
   1109c:	00015db1 			; <UNDEFINED> instruction: 0x00015db1
   110a0:	00016709 	andeq	r6, r1, r9, lsl #14
   110a4:	00015db0 			; <UNDEFINED> instruction: 0x00015db0
   110a8:	000166f8 	strdeq	r6, [r1], -r8
   110ac:	00014de0 	andeq	r4, r1, r0, ror #27
   110b0:	000166fc 	strdeq	r6, [r1], -ip
   110b4:	00015df8 	strdeq	r5, [r1], -r8
   110b8:	00015db8 			; <UNDEFINED> instruction: 0x00015db8
   110bc:	00016708 	andeq	r6, r1, r8, lsl #14
   110c0:	00016664 	andeq	r6, r1, r4, ror #12
   110c4:	00017380 	andeq	r7, r1, r0, lsl #7
   110c8:	000166f0 	strdeq	r6, [r1], -r0

000110cc <OSSchedLock>:
   110cc:	e92d4008 	push	{r3, lr}
   110d0:	e59f3028 	ldr	r3, [pc, #40]	; 11100 <OSSchedLock+0x34>
   110d4:	e5d33000 	ldrb	r3, [r3]
   110d8:	e3530001 	cmp	r3, #1
   110dc:	18bd8008 	popne	{r3, pc}
   110e0:	ebfffecf 	bl	10c24 <OS_CPU_SR_Save>
   110e4:	e59f3018 	ldr	r3, [pc, #24]	; 11104 <OSSchedLock+0x38>
   110e8:	e5d32000 	ldrb	r2, [r3]
   110ec:	e35200ff 	cmp	r2, #255	; 0xff
   110f0:	12822001 	addne	r2, r2, #1
   110f4:	15c32000 	strbne	r2, [r3]
   110f8:	e8bd4008 	pop	{r3, lr}
   110fc:	eafffed0 	b	10c44 <OS_CPU_SR_Restore>
   11100:	00015db1 			; <UNDEFINED> instruction: 0x00015db1
   11104:	00015db0 			; <UNDEFINED> instruction: 0x00015db0

00011108 <OSStart>:
   11108:	e52d4004 	push	{r4}		; (str r4, [sp, #-4]!)
   1110c:	e59f3064 	ldr	r3, [pc, #100]	; 11178 <OSStart+0x70>
   11110:	e5d33000 	ldrb	r3, [r3]
   11114:	e3530000 	cmp	r3, #0
   11118:	0a000001 	beq	11124 <OSStart+0x1c>
   1111c:	e49d4004 	pop	{r4}		; (ldr r4, [sp], #4)
   11120:	e12fff1e 	bx	lr
   11124:	e59f3050 	ldr	r3, [pc, #80]	; 1117c <OSStart+0x74>
   11128:	e59f2050 	ldr	r2, [pc, #80]	; 11180 <OSStart+0x78>
   1112c:	e5d33000 	ldrb	r3, [r3]
   11130:	e59f004c 	ldr	r0, [pc, #76]	; 11184 <OSStart+0x7c>
   11134:	e7d23003 	ldrb	r3, [r2, r3]
   11138:	e59f1048 	ldr	r1, [pc, #72]	; 11188 <OSStart+0x80>
   1113c:	e7d00003 	ldrb	r0, [r0, r3]
   11140:	e59f4044 	ldr	r4, [pc, #68]	; 1118c <OSStart+0x84>
   11144:	e7d22000 	ldrb	r2, [r2, r0]
   11148:	e59fc040 	ldr	ip, [pc, #64]	; 11190 <OSStart+0x88>
   1114c:	e0823183 	add	r3, r2, r3, lsl #3
   11150:	e6ef3073 	uxtb	r3, r3
   11154:	e7912103 	ldr	r2, [r1, r3, lsl #2]
   11158:	e59f0034 	ldr	r0, [pc, #52]	; 11194 <OSStart+0x8c>
   1115c:	e59f1034 	ldr	r1, [pc, #52]	; 11198 <OSStart+0x90>
   11160:	e5c43000 	strb	r3, [r4]
   11164:	e49d4004 	pop	{r4}		; (ldr r4, [sp], #4)
   11168:	e5cc3000 	strb	r3, [ip]
   1116c:	e5802000 	str	r2, [r0]
   11170:	e5812000 	str	r2, [r1]
   11174:	eafffe91 	b	10bc0 <OSStartHighRdy>
   11178:	00015db1 			; <UNDEFINED> instruction: 0x00015db1
   1117c:	000166f8 	strdeq	r6, [r1], -r8
   11180:	00014de0 	andeq	r4, r1, r0, ror #27
   11184:	000166fc 	strdeq	r6, [r1], -ip
   11188:	00017380 	andeq	r7, r1, r0, lsl #7
   1118c:	00015db8 			; <UNDEFINED> instruction: 0x00015db8
   11190:	00015df8 	strdeq	r5, [r1], -r8
   11194:	000166f0 	strdeq	r6, [r1], -r0
   11198:	0001670c 	andeq	r6, r1, ip, lsl #14

0001119c <OSTimeTick>:
   1119c:	e92d40f8 	push	{r3, r4, r5, r6, r7, lr}
   111a0:	ebffff1c 	bl	10e18 <OSTimeTickHook>
   111a4:	ebfffe9e 	bl	10c24 <OS_CPU_SR_Save>
   111a8:	e59f30a4 	ldr	r3, [pc, #164]	; 11254 <OSTimeTick+0xb8>
   111ac:	e5932000 	ldr	r2, [r3]
   111b0:	e2822001 	add	r2, r2, #1
   111b4:	e5832000 	str	r2, [r3]
   111b8:	ebfffea1 	bl	10c44 <OS_CPU_SR_Restore>
   111bc:	e59f3094 	ldr	r3, [pc, #148]	; 11258 <OSTimeTick+0xbc>
   111c0:	e5d37000 	ldrb	r7, [r3]
   111c4:	e3570001 	cmp	r7, #1
   111c8:	18bd80f8 	popne	{r3, r4, r5, r6, r7, pc}
   111cc:	e59f3088 	ldr	r3, [pc, #136]	; 1125c <OSTimeTick+0xc0>
   111d0:	e5934000 	ldr	r4, [r3]
   111d4:	e5d4302d 	ldrb	r3, [r4, #45]	; 0x2d
   111d8:	e353003f 	cmp	r3, #63	; 0x3f
   111dc:	08bd80f8 	popeq	{r3, r4, r5, r6, r7, pc}
   111e0:	e59f6078 	ldr	r6, [pc, #120]	; 11260 <OSTimeTick+0xc4>
   111e4:	e59f5078 	ldr	r5, [pc, #120]	; 11264 <OSTimeTick+0xc8>
   111e8:	ebfffe8d 	bl	10c24 <OS_CPU_SR_Save>
   111ec:	e1d432ba 	ldrh	r3, [r4, #42]	; 0x2a
   111f0:	e2432001 	sub	r2, r3, #1
   111f4:	e3530000 	cmp	r3, #0
   111f8:	e6ff2072 	uxth	r2, r2
   111fc:	0a00000e 	beq	1123c <OSTimeTick+0xa0>
   11200:	e3520000 	cmp	r2, #0
   11204:	e1c422ba 	strh	r2, [r4, #42]	; 0x2a
   11208:	1a00000b 	bne	1123c <OSTimeTick+0xa0>
   1120c:	e5d4302c 	ldrb	r3, [r4, #44]	; 0x2c
   11210:	e3130008 	tst	r3, #8
   11214:	05d4302f 	ldrbeq	r3, [r4, #47]	; 0x2f
   11218:	05d41030 	ldrbeq	r1, [r4, #48]	; 0x30
   1121c:	07d5e003 	ldrbeq	lr, [r5, r3]
   11220:	05d6c000 	ldrbeq	ip, [r6]
   11224:	05d42031 	ldrbeq	r2, [r4, #49]	; 0x31
   11228:	018e1001 	orreq	r1, lr, r1
   1122c:	018c2002 	orreq	r2, ip, r2
   11230:	07c51003 	strbeq	r1, [r5, r3]
   11234:	05c62000 	strbeq	r2, [r6]
   11238:	11c472ba 	strhne	r7, [r4, #42]	; 0x2a
   1123c:	e5944014 	ldr	r4, [r4, #20]
   11240:	ebfffe7f 	bl	10c44 <OS_CPU_SR_Restore>
   11244:	e5d4302d 	ldrb	r3, [r4, #45]	; 0x2d
   11248:	e353003f 	cmp	r3, #63	; 0x3f
   1124c:	1affffe5 	bne	111e8 <OSTimeTick+0x4c>
   11250:	e8bd80f8 	pop	{r3, r4, r5, r6, r7, pc}
   11254:	00016710 	andeq	r6, r1, r0, lsl r7
   11258:	00015db1 			; <UNDEFINED> instruction: 0x00015db1
   1125c:	00015dfc 	strdeq	r5, [r1], -ip
   11260:	000166f8 	strdeq	r6, [r1], -r8
   11264:	000166fc 	strdeq	r6, [r1], -ip

00011268 <OSVersion>:
   11268:	e3a000fc 	mov	r0, #252	; 0xfc
   1126c:	e12fff1e 	bx	lr

00011270 <OS_Dummy>:
   11270:	e12fff1e 	bx	lr

00011274 <OS_EventTaskRdy>:
   11274:	e92d03f0 	push	{r4, r5, r6, r7, r8, r9}
   11278:	e59f3094 	ldr	r3, [pc, #148]	; 11314 <OS_EventTaskRdy+0xa0>
   1127c:	e5d07001 	ldrb	r7, [r0, #1]
   11280:	e1a04000 	mov	r4, r0
   11284:	e7d3c007 	ldrb	ip, [r3, r7]
   11288:	e080500c 	add	r5, r0, ip
   1128c:	e5d59008 	ldrb	r9, [r5, #8]
   11290:	e083600c 	add	r6, r3, ip
   11294:	e7d30009 	ldrb	r0, [r3, r9]
   11298:	e5d68100 	ldrb	r8, [r6, #256]	; 0x100
   1129c:	e0833000 	add	r3, r3, r0
   112a0:	e5d36100 	ldrb	r6, [r3, #256]	; 0x100
   112a4:	e080018c 	add	r0, r0, ip, lsl #3
   112a8:	e1c93006 	bic	r3, r9, r6
   112ac:	e3530000 	cmp	r3, #0
   112b0:	e5c53008 	strb	r3, [r5, #8]
   112b4:	01c77008 	biceq	r7, r7, r8
   112b8:	e59f3058 	ldr	r3, [pc, #88]	; 11318 <OS_EventTaskRdy+0xa4>
   112bc:	05c47001 	strbeq	r7, [r4, #1]
   112c0:	e6ef0070 	uxtb	r0, r0
   112c4:	e7933100 	ldr	r3, [r3, r0, lsl #2]
   112c8:	e3a04000 	mov	r4, #0
   112cc:	e5d3502c 	ldrb	r5, [r3, #44]	; 0x2c
   112d0:	e5831020 	str	r1, [r3, #32]
   112d4:	e1c52002 	bic	r2, r5, r2
   112d8:	e1520004 	cmp	r2, r4
   112dc:	e5c3202c 	strb	r2, [r3, #44]	; 0x2c
   112e0:	e1c342ba 	strh	r4, [r3, #42]	; 0x2a
   112e4:	e583401c 	str	r4, [r3, #28]
   112e8:	1a000007 	bne	1130c <OS_EventTaskRdy+0x98>
   112ec:	e59f2028 	ldr	r2, [pc, #40]	; 1131c <OS_EventTaskRdy+0xa8>
   112f0:	e59f3028 	ldr	r3, [pc, #40]	; 11320 <OS_EventTaskRdy+0xac>
   112f4:	e5d24000 	ldrb	r4, [r2]
   112f8:	e7d3100c 	ldrb	r1, [r3, ip]
   112fc:	e1888004 	orr	r8, r8, r4
   11300:	e1866001 	orr	r6, r6, r1
   11304:	e5c28000 	strb	r8, [r2]
   11308:	e7c3600c 	strb	r6, [r3, ip]
   1130c:	e8bd03f0 	pop	{r4, r5, r6, r7, r8, r9}
   11310:	e12fff1e 	bx	lr
   11314:	00014de0 	andeq	r4, r1, r0, ror #27
   11318:	00017380 	andeq	r7, r1, r0, lsl #7
   1131c:	000166f8 	strdeq	r6, [r1], -r8
   11320:	000166fc 	strdeq	r6, [r1], -ip

00011324 <OS_EventTaskWait>:
   11324:	e92d0030 	push	{r4, r5}
   11328:	e59f305c 	ldr	r3, [pc, #92]	; 1138c <OS_EventTaskWait+0x68>
   1132c:	e59f105c 	ldr	r1, [pc, #92]	; 11390 <OS_EventTaskWait+0x6c>
   11330:	e5933000 	ldr	r3, [r3]
   11334:	e5d3202f 	ldrb	r2, [r3, #47]	; 0x2f
   11338:	e5d3c030 	ldrb	ip, [r3, #48]	; 0x30
   1133c:	e7d14002 	ldrb	r4, [r1, r2]
   11340:	e583001c 	str	r0, [r3, #28]
   11344:	e1c4400c 	bic	r4, r4, ip
   11348:	e3540000 	cmp	r4, #0
   1134c:	e7c14002 	strb	r4, [r1, r2]
   11350:	059f103c 	ldreq	r1, [pc, #60]	; 11394 <OS_EventTaskWait+0x70>
   11354:	05d35031 	ldrbeq	r5, [r3, #49]	; 0x31
   11358:	05d14000 	ldrbeq	r4, [r1]
   1135c:	e0802002 	add	r2, r0, r2
   11360:	01c44005 	biceq	r4, r4, r5
   11364:	05c14000 	strbeq	r4, [r1]
   11368:	e5d24008 	ldrb	r4, [r2, #8]
   1136c:	e5d01001 	ldrb	r1, [r0, #1]
   11370:	e18cc004 	orr	ip, ip, r4
   11374:	e5c2c008 	strb	ip, [r2, #8]
   11378:	e5d33031 	ldrb	r3, [r3, #49]	; 0x31
   1137c:	e8bd0030 	pop	{r4, r5}
   11380:	e1833001 	orr	r3, r3, r1
   11384:	e5c03001 	strb	r3, [r0, #1]
   11388:	e12fff1e 	bx	lr
   1138c:	0001670c 	andeq	r6, r1, ip, lsl #14
   11390:	000166fc 	strdeq	r6, [r1], -ip
   11394:	000166f8 	strdeq	r6, [r1], -r8

00011398 <OS_EventTO>:
   11398:	e59f303c 	ldr	r3, [pc, #60]	; 113dc <OS_EventTO+0x44>
   1139c:	e5933000 	ldr	r3, [r3]
   113a0:	e5d3202f 	ldrb	r2, [r3, #47]	; 0x2f
   113a4:	e5d3c030 	ldrb	ip, [r3, #48]	; 0x30
   113a8:	e0802002 	add	r2, r0, r2
   113ac:	e5d21008 	ldrb	r1, [r2, #8]
   113b0:	e1c1100c 	bic	r1, r1, ip
   113b4:	e5c21008 	strb	r1, [r2, #8]
   113b8:	e3510000 	cmp	r1, #0
   113bc:	05d02001 	ldrbeq	r2, [r0, #1]
   113c0:	05d31031 	ldrbeq	r1, [r3, #49]	; 0x31
   113c4:	01c22001 	biceq	r2, r2, r1
   113c8:	05c02001 	strbeq	r2, [r0, #1]
   113cc:	e3a02000 	mov	r2, #0
   113d0:	e5c3202c 	strb	r2, [r3, #44]	; 0x2c
   113d4:	e583201c 	str	r2, [r3, #28]
   113d8:	e12fff1e 	bx	lr
   113dc:	0001670c 	andeq	r6, r1, ip, lsl #14

000113e0 <OS_EventWaitListInit>:
   113e0:	e3a03000 	mov	r3, #0
   113e4:	e5c03001 	strb	r3, [r0, #1]
   113e8:	e5c03008 	strb	r3, [r0, #8]
   113ec:	e5c03009 	strb	r3, [r0, #9]
   113f0:	e5c0300a 	strb	r3, [r0, #10]
   113f4:	e5c0300b 	strb	r3, [r0, #11]
   113f8:	e5c0300c 	strb	r3, [r0, #12]
   113fc:	e5c0300d 	strb	r3, [r0, #13]
   11400:	e5c0300e 	strb	r3, [r0, #14]
   11404:	e5c0300f 	strb	r3, [r0, #15]
   11408:	e12fff1e 	bx	lr

0001140c <OS_Sched>:
   1140c:	e52de004 	push	{lr}		; (str lr, [sp, #-4]!)
   11410:	e24dd00c 	sub	sp, sp, #12
   11414:	ebfffe02 	bl	10c24 <OS_CPU_SR_Save>
   11418:	e59f308c 	ldr	r3, [pc, #140]	; 114ac <OS_Sched+0xa0>
   1141c:	e5d33000 	ldrb	r3, [r3]
   11420:	e3530000 	cmp	r3, #0
   11424:	1a00001d 	bne	114a0 <OS_Sched+0x94>
   11428:	e59f3080 	ldr	r3, [pc, #128]	; 114b0 <OS_Sched+0xa4>
   1142c:	e5d33000 	ldrb	r3, [r3]
   11430:	e3530000 	cmp	r3, #0
   11434:	1a000019 	bne	114a0 <OS_Sched+0x94>
   11438:	e59f3074 	ldr	r3, [pc, #116]	; 114b4 <OS_Sched+0xa8>
   1143c:	e59f2074 	ldr	r2, [pc, #116]	; 114b8 <OS_Sched+0xac>
   11440:	e5d33000 	ldrb	r3, [r3]
   11444:	e59fc070 	ldr	ip, [pc, #112]	; 114bc <OS_Sched+0xb0>
   11448:	e7d23003 	ldrb	r3, [r2, r3]
   1144c:	e59f106c 	ldr	r1, [pc, #108]	; 114c0 <OS_Sched+0xb4>
   11450:	e7dcc003 	ldrb	ip, [ip, r3]
   11454:	e5d11000 	ldrb	r1, [r1]
   11458:	e7d2c00c 	ldrb	ip, [r2, ip]
   1145c:	e59f2060 	ldr	r2, [pc, #96]	; 114c4 <OS_Sched+0xb8>
   11460:	e08c3183 	add	r3, ip, r3, lsl #3
   11464:	e6ef3073 	uxtb	r3, r3
   11468:	e1510003 	cmp	r1, r3
   1146c:	e5c23000 	strb	r3, [r2]
   11470:	0a00000a 	beq	114a0 <OS_Sched+0x94>
   11474:	e59f204c 	ldr	r2, [pc, #76]	; 114c8 <OS_Sched+0xbc>
   11478:	e59f104c 	ldr	r1, [pc, #76]	; 114cc <OS_Sched+0xc0>
   1147c:	e592c000 	ldr	ip, [r2]
   11480:	e7911103 	ldr	r1, [r1, r3, lsl #2]
   11484:	e59f3044 	ldr	r3, [pc, #68]	; 114d0 <OS_Sched+0xc4>
   11488:	e28cc001 	add	ip, ip, #1
   1148c:	e582c000 	str	ip, [r2]
   11490:	e5831000 	str	r1, [r3]
   11494:	e58d0004 	str	r0, [sp, #4]
   11498:	ebfffd7e 	bl	10a98 <OSCtxSw>
   1149c:	e59d0004 	ldr	r0, [sp, #4]
   114a0:	e28dd00c 	add	sp, sp, #12
   114a4:	e49de004 	pop	{lr}		; (ldr lr, [sp], #4)
   114a8:	eafffde5 	b	10c44 <OS_CPU_SR_Restore>
   114ac:	00016709 	andeq	r6, r1, r9, lsl #14
   114b0:	00015db0 			; <UNDEFINED> instruction: 0x00015db0
   114b4:	000166f8 	strdeq	r6, [r1], -r8
   114b8:	00014de0 	andeq	r4, r1, r0, ror #27
   114bc:	000166fc 	strdeq	r6, [r1], -ip
   114c0:	00015df8 	strdeq	r5, [r1], -r8
   114c4:	00015db8 			; <UNDEFINED> instruction: 0x00015db8
   114c8:	00016664 	andeq	r6, r1, r4, ror #12
   114cc:	00017380 	andeq	r7, r1, r0, lsl #7
   114d0:	000166f0 	strdeq	r6, [r1], -r0

000114d4 <OSSchedUnlock>:
   114d4:	e92d4008 	push	{r3, lr}
   114d8:	e59f3064 	ldr	r3, [pc, #100]	; 11544 <OSSchedUnlock+0x70>
   114dc:	e5d33000 	ldrb	r3, [r3]
   114e0:	e3530001 	cmp	r3, #1
   114e4:	18bd8008 	popne	{r3, pc}
   114e8:	ebfffdcd 	bl	10c24 <OS_CPU_SR_Save>
   114ec:	e59f3054 	ldr	r3, [pc, #84]	; 11548 <OSSchedUnlock+0x74>
   114f0:	e1a01000 	mov	r1, r0
   114f4:	e5d32000 	ldrb	r2, [r3]
   114f8:	e3520000 	cmp	r2, #0
   114fc:	0a00000b 	beq	11530 <OSSchedUnlock+0x5c>
   11500:	e2422001 	sub	r2, r2, #1
   11504:	e6ef2072 	uxtb	r2, r2
   11508:	e3520000 	cmp	r2, #0
   1150c:	e5c32000 	strb	r2, [r3]
   11510:	1a000003 	bne	11524 <OSSchedUnlock+0x50>
   11514:	e59f3030 	ldr	r3, [pc, #48]	; 1154c <OSSchedUnlock+0x78>
   11518:	e5d33000 	ldrb	r3, [r3]
   1151c:	e3530000 	cmp	r3, #0
   11520:	0a000004 	beq	11538 <OSSchedUnlock+0x64>
   11524:	e8bd4008 	pop	{r3, lr}
   11528:	e1a00001 	mov	r0, r1
   1152c:	eafffdc4 	b	10c44 <OS_CPU_SR_Restore>
   11530:	e8bd4008 	pop	{r3, lr}
   11534:	eafffdc2 	b	10c44 <OS_CPU_SR_Restore>
   11538:	ebfffdc1 	bl	10c44 <OS_CPU_SR_Restore>
   1153c:	e8bd4008 	pop	{r3, lr}
   11540:	eaffffb1 	b	1140c <OS_Sched>
   11544:	00015db1 			; <UNDEFINED> instruction: 0x00015db1
   11548:	00015db0 			; <UNDEFINED> instruction: 0x00015db0
   1154c:	00016709 	andeq	r6, r1, r9, lsl #14

00011550 <OSTimeDly.part.1>:
   11550:	e92d4010 	push	{r4, lr}
   11554:	e1a04000 	mov	r4, r0
   11558:	ebfffdb1 	bl	10c24 <OS_CPU_SR_Save>
   1155c:	e59f3040 	ldr	r3, [pc, #64]	; 115a4 <OSTimeDly.part.1+0x54>
   11560:	e59f1040 	ldr	r1, [pc, #64]	; 115a8 <OSTimeDly.part.1+0x58>
   11564:	e5933000 	ldr	r3, [r3]
   11568:	e5d3202f 	ldrb	r2, [r3, #47]	; 0x2f
   1156c:	e5d3e030 	ldrb	lr, [r3, #48]	; 0x30
   11570:	e7d1c002 	ldrb	ip, [r1, r2]
   11574:	e1c342ba 	strh	r4, [r3, #42]	; 0x2a
   11578:	e1ccc00e 	bic	ip, ip, lr
   1157c:	e35c0000 	cmp	ip, #0
   11580:	e7c1c002 	strb	ip, [r1, r2]
   11584:	059f2020 	ldreq	r2, [pc, #32]	; 115ac <OSTimeDly.part.1+0x5c>
   11588:	05d3c031 	ldrbeq	ip, [r3, #49]	; 0x31
   1158c:	05d21000 	ldrbeq	r1, [r2]
   11590:	01c1100c 	biceq	r1, r1, ip
   11594:	05c21000 	strbeq	r1, [r2]
   11598:	ebfffda9 	bl	10c44 <OS_CPU_SR_Restore>
   1159c:	e8bd4010 	pop	{r4, lr}
   115a0:	eaffff99 	b	1140c <OS_Sched>
   115a4:	0001670c 	andeq	r6, r1, ip, lsl #14
   115a8:	000166fc 	strdeq	r6, [r1], -ip
   115ac:	000166f8 	strdeq	r6, [r1], -r8

000115b0 <OSStatInit>:
   115b0:	e92d4010 	push	{r4, lr}
   115b4:	e3a00002 	mov	r0, #2
   115b8:	e59f403c 	ldr	r4, [pc, #60]	; 115fc <OSStatInit+0x4c>
   115bc:	ebffffe3 	bl	11550 <OSTimeDly.part.1>
   115c0:	ebfffd97 	bl	10c24 <OS_CPU_SR_Save>
   115c4:	e3a03000 	mov	r3, #0
   115c8:	e5843000 	str	r3, [r4]
   115cc:	ebfffd9c 	bl	10c44 <OS_CPU_SR_Restore>
   115d0:	e3a00064 	mov	r0, #100	; 0x64
   115d4:	ebffffdd 	bl	11550 <OSTimeDly.part.1>
   115d8:	ebfffd91 	bl	10c24 <OS_CPU_SR_Save>
   115dc:	e59f301c 	ldr	r3, [pc, #28]	; 11600 <OSStatInit+0x50>
   115e0:	e3a02001 	mov	r2, #1
   115e4:	e594c000 	ldr	ip, [r4]
   115e8:	e59f1014 	ldr	r1, [pc, #20]	; 11604 <OSStatInit+0x54>
   115ec:	e5c32000 	strb	r2, [r3]
   115f0:	e8bd4010 	pop	{r4, lr}
   115f4:	e581c000 	str	ip, [r1]
   115f8:	eafffd91 	b	10c44 <OS_CPU_SR_Restore>
   115fc:	00015db4 			; <UNDEFINED> instruction: 0x00015db4
   11600:	0001737c 	andeq	r7, r1, ip, ror r3
   11604:	00016668 	andeq	r6, r1, r8, ror #12

00011608 <OS_TaskStat>:
   11608:	e92d4ff8 	push	{r3, r4, r5, r6, r7, r8, r9, sl, fp, lr}
   1160c:	e59f40a4 	ldr	r4, [pc, #164]	; 116b8 <OS_TaskStat+0xb0>
   11610:	e5d43000 	ldrb	r3, [r4]
   11614:	e3530000 	cmp	r3, #0
   11618:	1a000004 	bne	11630 <OS_TaskStat+0x28>
   1161c:	e3a000c8 	mov	r0, #200	; 0xc8
   11620:	ebffffca 	bl	11550 <OSTimeDly.part.1>
   11624:	e5d43000 	ldrb	r3, [r4]
   11628:	e3530000 	cmp	r3, #0
   1162c:	0afffffa 	beq	1161c <OS_TaskStat+0x14>
   11630:	e59fa084 	ldr	sl, [pc, #132]	; 116bc <OS_TaskStat+0xb4>
   11634:	e59f3084 	ldr	r3, [pc, #132]	; 116c0 <OS_TaskStat+0xb8>
   11638:	e59a2000 	ldr	r2, [sl]
   1163c:	e1a0b003 	mov	fp, r3
   11640:	e0831293 	umull	r1, r3, r3, r2
   11644:	e59f5078 	ldr	r5, [pc, #120]	; 116c4 <OS_TaskStat+0xbc>
   11648:	e1a042a3 	lsr	r4, r3, #5
   1164c:	e59f9074 	ldr	r9, [pc, #116]	; 116c8 <OS_TaskStat+0xc0>
   11650:	e59f8074 	ldr	r8, [pc, #116]	; 116cc <OS_TaskStat+0xc4>
   11654:	e3a07000 	mov	r7, #0
   11658:	ea000008 	b	11680 <OS_TaskStat+0x78>
   1165c:	eb000d77 	bl	14c40 <__aeabi_uidiv>
   11660:	e2600064 	rsb	r0, r0, #100	; 0x64
   11664:	e6ef0070 	uxtb	r0, r0
   11668:	e3100080 	tst	r0, #128	; 0x80
   1166c:	05c80000 	strbeq	r0, [r8]
   11670:	15c87000 	strbne	r7, [r8]
   11674:	ebfffde6 	bl	10e14 <OSTaskStatHook>
   11678:	e3a00064 	mov	r0, #100	; 0x64
   1167c:	ebffffb3 	bl	11550 <OSTimeDly.part.1>
   11680:	ebfffd67 	bl	10c24 <OS_CPU_SR_Save>
   11684:	e5953000 	ldr	r3, [r5]
   11688:	e5956000 	ldr	r6, [r5]
   1168c:	e5893000 	str	r3, [r9]
   11690:	e5857000 	str	r7, [r5]
   11694:	ebfffd6a 	bl	10c44 <OS_CPU_SR_Restore>
   11698:	e2541000 	subs	r1, r4, #0
   1169c:	e1a00006 	mov	r0, r6
   116a0:	1affffed 	bne	1165c <OS_TaskStat+0x54>
   116a4:	e59a3000 	ldr	r3, [sl]
   116a8:	e5c84000 	strb	r4, [r8]
   116ac:	e084239b 	umull	r2, r4, fp, r3
   116b0:	e1a042a4 	lsr	r4, r4, #5
   116b4:	eaffffee 	b	11674 <OS_TaskStat+0x6c>
   116b8:	0001737c 	andeq	r7, r1, ip, ror r3
   116bc:	00016668 	andeq	r6, r1, r8, ror #12
   116c0:	51eb851f 	mvnpl	r8, pc, lsl r5
   116c4:	00015db4 			; <UNDEFINED> instruction: 0x00015db4
   116c8:	00017480 	andeq	r7, r1, r0, lsl #9
   116cc:	00016670 	andeq	r6, r1, r0, ror r6

000116d0 <OS_TCBInit>:
   116d0:	e92d47f0 	push	{r4, r5, r6, r7, r8, r9, sl, lr}
   116d4:	e1a06000 	mov	r6, r0
   116d8:	e1a0a001 	mov	sl, r1
   116dc:	e1a09002 	mov	r9, r2
   116e0:	e1a07003 	mov	r7, r3
   116e4:	e1dd82b8 	ldrh	r8, [sp, #40]	; 0x28
   116e8:	ebfffd4d 	bl	10c24 <OS_CPU_SR_Save>
   116ec:	e59fc0fc 	ldr	ip, [pc, #252]	; 117f0 <OS_TCBInit+0x120>
   116f0:	e59c4000 	ldr	r4, [ip]
   116f4:	e3540000 	cmp	r4, #0
   116f8:	0a000039 	beq	117e4 <OS_TCBInit+0x114>
   116fc:	e5943014 	ldr	r3, [r4, #20]
   11700:	e3a05000 	mov	r5, #0
   11704:	e58c3000 	str	r3, [ip]
   11708:	ebfffd4d 	bl	10c44 <OS_CPU_SR_Restore>
   1170c:	e59f10e0 	ldr	r1, [pc, #224]	; 117f4 <OS_TCBInit+0x124>
   11710:	e1a021a6 	lsr	r2, r6, #3
   11714:	e2063007 	and	r3, r6, #7
   11718:	e59dc024 	ldr	ip, [sp, #36]	; 0x24
   1171c:	e0810002 	add	r0, r1, r2
   11720:	e0811003 	add	r1, r1, r3
   11724:	e5d11100 	ldrb	r1, [r1, #256]	; 0x100
   11728:	e5d00100 	ldrb	r0, [r0, #256]	; 0x100
   1172c:	e584c004 	str	ip, [r4, #4]
   11730:	e59dc020 	ldr	ip, [sp, #32]
   11734:	e5c4202f 	strb	r2, [r4, #47]	; 0x2f
   11738:	e584c00c 	str	ip, [r4, #12]
   1173c:	e5c41030 	strb	r1, [r4, #48]	; 0x30
   11740:	e5c4302e 	strb	r3, [r4, #46]	; 0x2e
   11744:	e5c4602d 	strb	r6, [r4, #45]	; 0x2d
   11748:	e1c471b2 	strh	r7, [r4, #18]
   1174c:	e5c40031 	strb	r0, [r4, #49]	; 0x31
   11750:	e5c4502c 	strb	r5, [r4, #44]	; 0x2c
   11754:	e1c452ba 	strh	r5, [r4, #42]	; 0x2a
   11758:	e5c45032 	strb	r5, [r4, #50]	; 0x32
   1175c:	e584501c 	str	r5, [r4, #28]
   11760:	e5845024 	str	r5, [r4, #36]	; 0x24
   11764:	e5845020 	str	r5, [r4, #32]
   11768:	e1a00004 	mov	r0, r4
   1176c:	e584a000 	str	sl, [r4]
   11770:	e5849008 	str	r9, [r4, #8]
   11774:	e1c481b0 	strh	r8, [r4, #16]
   11778:	ebfffdaa 	bl	10e28 <OSTCBInitHook>
   1177c:	e1a00004 	mov	r0, r4
   11780:	ebfffda0 	bl	10e08 <OSTaskCreateHook>
   11784:	ebfffd26 	bl	10c24 <OS_CPU_SR_Save>
   11788:	e59fc068 	ldr	ip, [pc, #104]	; 117f8 <OS_TCBInit+0x128>
   1178c:	e59f2068 	ldr	r2, [pc, #104]	; 117fc <OS_TCBInit+0x12c>
   11790:	e59c3000 	ldr	r3, [ip]
   11794:	e7824106 	str	r4, [r2, r6, lsl #2]
   11798:	e1530005 	cmp	r3, r5
   1179c:	e5845018 	str	r5, [r4, #24]
   117a0:	e5843014 	str	r3, [r4, #20]
   117a4:	e59f1054 	ldr	r1, [pc, #84]	; 11800 <OS_TCBInit+0x130>
   117a8:	e59f2054 	ldr	r2, [pc, #84]	; 11804 <OS_TCBInit+0x134>
   117ac:	15834018 	strne	r4, [r3, #24]
   117b0:	e5d4302f 	ldrb	r3, [r4, #47]	; 0x2f
   117b4:	e5d17000 	ldrb	r7, [r1]
   117b8:	e7d26003 	ldrb	r6, [r2, r3]
   117bc:	e5d45031 	ldrb	r5, [r4, #49]	; 0x31
   117c0:	e5d4e030 	ldrb	lr, [r4, #48]	; 0x30
   117c4:	e1875005 	orr	r5, r7, r5
   117c8:	e186e00e 	orr	lr, r6, lr
   117cc:	e58c4000 	str	r4, [ip]
   117d0:	e5c15000 	strb	r5, [r1]
   117d4:	e7c2e003 	strb	lr, [r2, r3]
   117d8:	ebfffd19 	bl	10c44 <OS_CPU_SR_Restore>
   117dc:	e3a00000 	mov	r0, #0
   117e0:	e8bd87f0 	pop	{r4, r5, r6, r7, r8, r9, sl, pc}
   117e4:	ebfffd16 	bl	10c44 <OS_CPU_SR_Restore>
   117e8:	e3a00046 	mov	r0, #70	; 0x46
   117ec:	e8bd87f0 	pop	{r4, r5, r6, r7, r8, r9, sl, pc}
   117f0:	0001666c 	andeq	r6, r1, ip, ror #12
   117f4:	00014de0 	andeq	r4, r1, r0, ror #27
   117f8:	00015dfc 	strdeq	r5, [r1], -ip
   117fc:	00017380 	andeq	r7, r1, r0, lsl #7
   11800:	000166f8 	strdeq	r6, [r1], -r8
   11804:	000166fc 	strdeq	r6, [r1], -ip

00011808 <OSTaskCreateExt.part.0>:
   11808:	e92d4ff0 	push	{r4, r5, r6, r7, r8, r9, sl, fp, lr}
   1180c:	e59f50f4 	ldr	r5, [pc, #244]	; 11908 <OSTaskCreateExt.part.0+0x100>
   11810:	e24dd014 	sub	sp, sp, #20
   11814:	e1a04003 	mov	r4, r3
   11818:	e1a0b000 	mov	fp, r0
   1181c:	e1a0a001 	mov	sl, r1
   11820:	e1a09002 	mov	r9, r2
   11824:	e1dd83b8 	ldrh	r8, [sp, #56]	; 0x38
   11828:	e1dd74b8 	ldrh	r7, [sp, #72]	; 0x48
   1182c:	ebfffcfc 	bl	10c24 <OS_CPU_SR_Save>
   11830:	e7956104 	ldr	r6, [r5, r4, lsl #2]
   11834:	e3560000 	cmp	r6, #0
   11838:	0a000003 	beq	1184c <OSTaskCreateExt.part.0+0x44>
   1183c:	ebfffd00 	bl	10c44 <OS_CPU_SR_Restore>
   11840:	e3a00028 	mov	r0, #40	; 0x28
   11844:	e28dd014 	add	sp, sp, #20
   11848:	e8bd8ff0 	pop	{r4, r5, r6, r7, r8, r9, sl, fp, pc}
   1184c:	e3a03001 	mov	r3, #1
   11850:	e7853104 	str	r3, [r5, r4, lsl #2]
   11854:	ebfffcfa 	bl	10c44 <OS_CPU_SR_Restore>
   11858:	e3170003 	tst	r7, #3
   1185c:	1a000023 	bne	118f0 <OSTaskCreateExt.part.0+0xe8>
   11860:	e1a0100a 	mov	r1, sl
   11864:	e1a02009 	mov	r2, r9
   11868:	e1a03007 	mov	r3, r7
   1186c:	e1a0000b 	mov	r0, fp
   11870:	ebfffd34 	bl	10d48 <OSTaskStkInit>
   11874:	e59d3040 	ldr	r3, [sp, #64]	; 0x40
   11878:	e1a01000 	mov	r1, r0
   1187c:	e58d3000 	str	r3, [sp]
   11880:	e59d3044 	ldr	r3, [sp, #68]	; 0x44
   11884:	e1a00004 	mov	r0, r4
   11888:	e98d0088 	stmib	sp, {r3, r7}
   1188c:	e59d203c 	ldr	r2, [sp, #60]	; 0x3c
   11890:	e1a03008 	mov	r3, r8
   11894:	ebffff8d 	bl	116d0 <OS_TCBInit>
   11898:	e2506000 	subs	r6, r0, #0
   1189c:	1a00000d 	bne	118d8 <OSTaskCreateExt.part.0+0xd0>
   118a0:	ebfffcdf 	bl	10c24 <OS_CPU_SR_Save>
   118a4:	e59f3060 	ldr	r3, [pc, #96]	; 1190c <OSTaskCreateExt.part.0+0x104>
   118a8:	e5d32000 	ldrb	r2, [r3]
   118ac:	e2822001 	add	r2, r2, #1
   118b0:	e5c32000 	strb	r2, [r3]
   118b4:	ebfffce2 	bl	10c44 <OS_CPU_SR_Restore>
   118b8:	e59f3050 	ldr	r3, [pc, #80]	; 11910 <OSTaskCreateExt.part.0+0x108>
   118bc:	e5d33000 	ldrb	r3, [r3]
   118c0:	e3530001 	cmp	r3, #1
   118c4:	11a00006 	movne	r0, r6
   118c8:	1affffdd 	bne	11844 <OSTaskCreateExt.part.0+0x3c>
   118cc:	ebfffece 	bl	1140c <OS_Sched>
   118d0:	e1a00006 	mov	r0, r6
   118d4:	eaffffda 	b	11844 <OSTaskCreateExt.part.0+0x3c>
   118d8:	ebfffcd1 	bl	10c24 <OS_CPU_SR_Save>
   118dc:	e3a03000 	mov	r3, #0
   118e0:	e7853104 	str	r3, [r5, r4, lsl #2]
   118e4:	ebfffcd6 	bl	10c44 <OS_CPU_SR_Restore>
   118e8:	e1a00006 	mov	r0, r6
   118ec:	eaffffd4 	b	11844 <OSTaskCreateExt.part.0+0x3c>
   118f0:	e59d3040 	ldr	r3, [sp, #64]	; 0x40
   118f4:	e1a01006 	mov	r1, r6
   118f8:	e59d003c 	ldr	r0, [sp, #60]	; 0x3c
   118fc:	e1a02103 	lsl	r2, r3, #2
   11900:	eb000c90 	bl	14b48 <memset>
   11904:	eaffffd5 	b	11860 <OSTaskCreateExt.part.0+0x58>
   11908:	00017380 	andeq	r7, r1, r0, lsl #7
   1190c:	00016671 	andeq	r6, r1, r1, ror r6
   11910:	00015db1 			; <UNDEFINED> instruction: 0x00015db1

00011914 <OSFlagAccept>:
   11914:	e92d41f0 	push	{r4, r5, r6, r7, r8, lr}
   11918:	e2504000 	subs	r4, r0, #0
   1191c:	e1a05003 	mov	r5, r3
   11920:	03e03069 	mvneq	r3, #105	; 0x69
   11924:	e1a07001 	mov	r7, r1
   11928:	e1a06002 	mov	r6, r2
   1192c:	05c53000 	strbeq	r3, [r5]
   11930:	0a000005 	beq	1194c <OSFlagAccept+0x38>
   11934:	e5d43000 	ldrb	r3, [r4]
   11938:	e3530005 	cmp	r3, #5
   1193c:	0a000004 	beq	11954 <OSFlagAccept+0x40>
   11940:	e3a03001 	mov	r3, #1
   11944:	e5c53000 	strb	r3, [r5]
   11948:	e3a04000 	mov	r4, #0
   1194c:	e1a00004 	mov	r0, r4
   11950:	e8bd81f0 	pop	{r4, r5, r6, r7, r8, pc}
   11954:	e3120080 	tst	r2, #128	; 0x80
   11958:	e3a03000 	mov	r3, #0
   1195c:	1202607f 	andne	r6, r2, #127	; 0x7f
   11960:	e5c53000 	strb	r3, [r5]
   11964:	13a08001 	movne	r8, #1
   11968:	03a08000 	moveq	r8, #0
   1196c:	ebfffcac 	bl	10c24 <OS_CPU_SR_Save>
   11970:	e3560003 	cmp	r6, #3
   11974:	979ff106 	ldrls	pc, [pc, r6, lsl #2]
   11978:	ea000022 	b	11a08 <OSFlagAccept+0xf4>
   1197c:	000119f4 	strdeq	r1, [r1], -r4
   11980:	000119d0 	ldrdeq	r1, [r1], -r0
   11984:	000119b0 			; <UNDEFINED> instruction: 0x000119b0
   11988:	0001198c 	andeq	r1, r1, ip, lsl #19
   1198c:	e1d430b8 	ldrh	r3, [r4, #8]
   11990:	e0177003 	ands	r7, r7, r3
   11994:	1a000009 	bne	119c0 <OSFlagAccept+0xac>
   11998:	e3e03067 	mvn	r3, #103	; 0x67
   1199c:	e5c53000 	strb	r3, [r5]
   119a0:	e1d440b8 	ldrh	r4, [r4, #8]
   119a4:	ebfffca6 	bl	10c44 <OS_CPU_SR_Restore>
   119a8:	e1a00004 	mov	r0, r4
   119ac:	e8bd81f0 	pop	{r4, r5, r6, r7, r8, pc}
   119b0:	e1d430b8 	ldrh	r3, [r4, #8]
   119b4:	e0072003 	and	r2, r7, r3
   119b8:	e1520007 	cmp	r2, r7
   119bc:	1afffff5 	bne	11998 <OSFlagAccept+0x84>
   119c0:	e3580001 	cmp	r8, #1
   119c4:	0a000014 	beq	11a1c <OSFlagAccept+0x108>
   119c8:	e1a04003 	mov	r4, r3
   119cc:	eafffff4 	b	119a4 <OSFlagAccept+0x90>
   119d0:	e1d430b8 	ldrh	r3, [r4, #8]
   119d4:	e1d77003 	bics	r7, r7, r3
   119d8:	0affffee 	beq	11998 <OSFlagAccept+0x84>
   119dc:	e3580001 	cmp	r8, #1
   119e0:	01873003 	orreq	r3, r7, r3
   119e4:	01c430b8 	strheq	r3, [r4, #8]
   119e8:	01a04003 	moveq	r4, r3
   119ec:	1afffff5 	bne	119c8 <OSFlagAccept+0xb4>
   119f0:	eaffffeb 	b	119a4 <OSFlagAccept+0x90>
   119f4:	e1d430b8 	ldrh	r3, [r4, #8]
   119f8:	e1c72003 	bic	r2, r7, r3
   119fc:	e1520007 	cmp	r2, r7
   11a00:	1affffe4 	bne	11998 <OSFlagAccept+0x84>
   11a04:	eafffff4 	b	119dc <OSFlagAccept+0xc8>
   11a08:	ebfffc8d 	bl	10c44 <OS_CPU_SR_Restore>
   11a0c:	e3e03068 	mvn	r3, #104	; 0x68
   11a10:	e5c53000 	strb	r3, [r5]
   11a14:	e3a04000 	mov	r4, #0
   11a18:	eaffffcb 	b	1194c <OSFlagAccept+0x38>
   11a1c:	e1c33007 	bic	r3, r3, r7
   11a20:	e1c430b8 	strh	r3, [r4, #8]
   11a24:	e1a04003 	mov	r4, r3
   11a28:	eaffffdd 	b	119a4 <OSFlagAccept+0x90>

00011a2c <OSFlagCreate>:
   11a2c:	e92d40f8 	push	{r3, r4, r5, r6, r7, lr}
   11a30:	e59f3070 	ldr	r3, [pc, #112]	; 11aa8 <OSFlagCreate+0x7c>
   11a34:	e1a07000 	mov	r7, r0
   11a38:	e5d35000 	ldrb	r5, [r3]
   11a3c:	e1a06001 	mov	r6, r1
   11a40:	e3550000 	cmp	r5, #0
   11a44:	1a00000e 	bne	11a84 <OSFlagCreate+0x58>
   11a48:	ebfffc75 	bl	10c24 <OS_CPU_SR_Save>
   11a4c:	e59f3058 	ldr	r3, [pc, #88]	; 11aac <OSFlagCreate+0x80>
   11a50:	e5934000 	ldr	r4, [r3]
   11a54:	e3540000 	cmp	r4, #0
   11a58:	0a00000d 	beq	11a94 <OSFlagCreate+0x68>
   11a5c:	e5941004 	ldr	r1, [r4, #4]
   11a60:	e3a02005 	mov	r2, #5
   11a64:	e5831000 	str	r1, [r3]
   11a68:	e1c470b8 	strh	r7, [r4, #8]
   11a6c:	e5845004 	str	r5, [r4, #4]
   11a70:	e5c42000 	strb	r2, [r4]
   11a74:	ebfffc72 	bl	10c44 <OS_CPU_SR_Restore>
   11a78:	e5c65000 	strb	r5, [r6]
   11a7c:	e1a00004 	mov	r0, r4
   11a80:	e8bd80f8 	pop	{r3, r4, r5, r6, r7, pc}
   11a84:	e3e03072 	mvn	r3, #114	; 0x72
   11a88:	e5c13000 	strb	r3, [r1]
   11a8c:	e3a00000 	mov	r0, #0
   11a90:	e8bd80f8 	pop	{r3, r4, r5, r6, r7, pc}
   11a94:	ebfffc6a 	bl	10c44 <OS_CPU_SR_Restore>
   11a98:	e3e03065 	mvn	r3, #101	; 0x65
   11a9c:	e1a00004 	mov	r0, r4
   11aa0:	e5c63000 	strb	r3, [r6]
   11aa4:	e8bd80f8 	pop	{r3, r4, r5, r6, r7, pc}
   11aa8:	00016709 	andeq	r6, r1, r9, lsl #14
   11aac:	00017378 	andeq	r7, r1, r8, ror r3

00011ab0 <OSFlagDel>:
   11ab0:	e92d41f0 	push	{r4, r5, r6, r7, r8, lr}
   11ab4:	e59f3134 	ldr	r3, [pc, #308]	; 11bf0 <OSFlagDel+0x140>
   11ab8:	e24dd008 	sub	sp, sp, #8
   11abc:	e5d33000 	ldrb	r3, [r3]
   11ac0:	e1a04000 	mov	r4, r0
   11ac4:	e3530000 	cmp	r3, #0
   11ac8:	e1a05002 	mov	r5, r2
   11acc:	1a00000c 	bne	11b04 <OSFlagDel+0x54>
   11ad0:	e3500000 	cmp	r0, #0
   11ad4:	03e03069 	mvneq	r3, #105	; 0x69
   11ad8:	01a00000 	moveq	r0, r0
   11adc:	05c23000 	strbeq	r3, [r2]
   11ae0:	0a000005 	beq	11afc <OSFlagDel+0x4c>
   11ae4:	e5d43000 	ldrb	r3, [r4]
   11ae8:	e3530005 	cmp	r3, #5
   11aec:	0a000008 	beq	11b14 <OSFlagDel+0x64>
   11af0:	e3a03001 	mov	r3, #1
   11af4:	e1a00004 	mov	r0, r4
   11af8:	e5c23000 	strb	r3, [r2]
   11afc:	e28dd008 	add	sp, sp, #8
   11b00:	e8bd81f0 	pop	{r4, r5, r6, r7, r8, pc}
   11b04:	e3e03073 	mvn	r3, #115	; 0x73
   11b08:	e5c23000 	strb	r3, [r2]
   11b0c:	e28dd008 	add	sp, sp, #8
   11b10:	e8bd81f0 	pop	{r4, r5, r6, r7, r8, pc}
   11b14:	e58d1004 	str	r1, [sp, #4]
   11b18:	ebfffc41 	bl	10c24 <OS_CPU_SR_Save>
   11b1c:	e5946004 	ldr	r6, [r4, #4]
   11b20:	e59d1004 	ldr	r1, [sp, #4]
   11b24:	e2967000 	adds	r7, r6, #0
   11b28:	13a07001 	movne	r7, #1
   11b2c:	e3510000 	cmp	r1, #0
   11b30:	e1a08000 	mov	r8, r0
   11b34:	0a00001b 	beq	11ba8 <OSFlagDel+0xf8>
   11b38:	e3510001 	cmp	r1, #1
   11b3c:	1a000014 	bne	11b94 <OSFlagDel+0xe4>
   11b40:	e3570000 	cmp	r7, #0
   11b44:	0a000005 	beq	11b60 <OSFlagDel+0xb0>
   11b48:	e1a00006 	mov	r0, r6
   11b4c:	e3a01000 	mov	r1, #0
   11b50:	ebfffcda 	bl	10ec0 <OS_FlagTaskRdy>
   11b54:	e5966000 	ldr	r6, [r6]
   11b58:	e3560000 	cmp	r6, #0
   11b5c:	1afffff9 	bne	11b48 <OSFlagDel+0x98>
   11b60:	e59f308c 	ldr	r3, [pc, #140]	; 11bf4 <OSFlagDel+0x144>
   11b64:	e3a02000 	mov	r2, #0
   11b68:	e5c42000 	strb	r2, [r4]
   11b6c:	e5932000 	ldr	r2, [r3]
   11b70:	e1a00008 	mov	r0, r8
   11b74:	e5842004 	str	r2, [r4, #4]
   11b78:	e5834000 	str	r4, [r3]
   11b7c:	ebfffc30 	bl	10c44 <OS_CPU_SR_Restore>
   11b80:	e3570001 	cmp	r7, #1
   11b84:	0a00000e 	beq	11bc4 <OSFlagDel+0x114>
   11b88:	e3a00000 	mov	r0, #0
   11b8c:	e5c50000 	strb	r0, [r5]
   11b90:	eaffffd9 	b	11afc <OSFlagDel+0x4c>
   11b94:	ebfffc2a 	bl	10c44 <OS_CPU_SR_Restore>
   11b98:	e3a03007 	mov	r3, #7
   11b9c:	e1a00004 	mov	r0, r4
   11ba0:	e5c53000 	strb	r3, [r5]
   11ba4:	eaffffd4 	b	11afc <OSFlagDel+0x4c>
   11ba8:	e3570000 	cmp	r7, #0
   11bac:	0a000006 	beq	11bcc <OSFlagDel+0x11c>
   11bb0:	ebfffc23 	bl	10c44 <OS_CPU_SR_Restore>
   11bb4:	e3a03008 	mov	r3, #8
   11bb8:	e1a00004 	mov	r0, r4
   11bbc:	e5c53000 	strb	r3, [r5]
   11bc0:	eaffffcd 	b	11afc <OSFlagDel+0x4c>
   11bc4:	ebfffe10 	bl	1140c <OS_Sched>
   11bc8:	eaffffee 	b	11b88 <OSFlagDel+0xd8>
   11bcc:	e59f3020 	ldr	r3, [pc, #32]	; 11bf4 <OSFlagDel+0x144>
   11bd0:	e5c47000 	strb	r7, [r4]
   11bd4:	e5932000 	ldr	r2, [r3]
   11bd8:	e5834000 	str	r4, [r3]
   11bdc:	e5842004 	str	r2, [r4, #4]
   11be0:	ebfffc17 	bl	10c44 <OS_CPU_SR_Restore>
   11be4:	e5c57000 	strb	r7, [r5]
   11be8:	e1a00007 	mov	r0, r7
   11bec:	eaffffc2 	b	11afc <OSFlagDel+0x4c>
   11bf0:	00016709 	andeq	r6, r1, r9, lsl #14
   11bf4:	00017378 	andeq	r7, r1, r8, ror r3

00011bf8 <OSFlagPend>:
   11bf8:	e92d43f0 	push	{r4, r5, r6, r7, r8, r9, lr}
   11bfc:	e59fc2e4 	ldr	ip, [pc, #740]	; 11ee8 <OSFlagPend+0x2f0>
   11c00:	e1a04000 	mov	r4, r0
   11c04:	e5dc0000 	ldrb	r0, [ip]
   11c08:	e24dd024 	sub	sp, sp, #36	; 0x24
   11c0c:	e3500000 	cmp	r0, #0
   11c10:	e1a06001 	mov	r6, r1
   11c14:	e1a05002 	mov	r5, r2
   11c18:	e1a07003 	mov	r7, r3
   11c1c:	1a000018 	bne	11c84 <OSFlagPend+0x8c>
   11c20:	e3540000 	cmp	r4, #0
   11c24:	0a00001d 	beq	11ca0 <OSFlagPend+0xa8>
   11c28:	e5d42000 	ldrb	r2, [r4]
   11c2c:	e3520005 	cmp	r2, #5
   11c30:	0a000006 	beq	11c50 <OSFlagPend+0x58>
   11c34:	e59d2040 	ldr	r2, [sp, #64]	; 0x40
   11c38:	e3a03001 	mov	r3, #1
   11c3c:	e1a04000 	mov	r4, r0
   11c40:	e5c23000 	strb	r3, [r2]
   11c44:	e1a00004 	mov	r0, r4
   11c48:	e28dd024 	add	sp, sp, #36	; 0x24
   11c4c:	e8bd83f0 	pop	{r4, r5, r6, r7, r8, r9, pc}
   11c50:	e3150080 	tst	r5, #128	; 0x80
   11c54:	1205507f 	andne	r5, r5, #127	; 0x7f
   11c58:	13a09001 	movne	r9, #1
   11c5c:	01a09000 	moveq	r9, r0
   11c60:	ebfffbef 	bl	10c24 <OS_CPU_SR_Save>
   11c64:	e1a08000 	mov	r8, r0
   11c68:	e3550003 	cmp	r5, #3
   11c6c:	979ff105 	ldrls	pc, [pc, r5, lsl #2]
   11c70:	ea000037 	b	11d54 <OSFlagPend+0x15c>
   11c74:	00011ce0 	andeq	r1, r1, r0, ror #25
   11c78:	00011d08 	andeq	r1, r1, r8, lsl #26
   11c7c:	00011d2c 	andeq	r1, r1, ip, lsr #26
   11c80:	00011cb0 			; <UNDEFINED> instruction: 0x00011cb0
   11c84:	e59d2040 	ldr	r2, [sp, #64]	; 0x40
   11c88:	e3a04000 	mov	r4, #0
   11c8c:	e3a03002 	mov	r3, #2
   11c90:	e1a00004 	mov	r0, r4
   11c94:	e5c23000 	strb	r3, [r2]
   11c98:	e28dd024 	add	sp, sp, #36	; 0x24
   11c9c:	e8bd83f0 	pop	{r4, r5, r6, r7, r8, r9, pc}
   11ca0:	e59d2040 	ldr	r2, [sp, #64]	; 0x40
   11ca4:	e3e03069 	mvn	r3, #105	; 0x69
   11ca8:	e5c23000 	strb	r3, [r2]
   11cac:	eaffffe4 	b	11c44 <OSFlagPend+0x4c>
   11cb0:	e1d400b8 	ldrh	r0, [r4, #8]
   11cb4:	e0163000 	ands	r3, r6, r0
   11cb8:	0a00005c 	beq	11e30 <OSFlagPend+0x238>
   11cbc:	e3590001 	cmp	r9, #1
   11cc0:	0a00006c 	beq	11e78 <OSFlagPend+0x280>
   11cc4:	e1a04000 	mov	r4, r0
   11cc8:	e1a00008 	mov	r0, r8
   11ccc:	ebfffbdc 	bl	10c44 <OS_CPU_SR_Restore>
   11cd0:	e59d2040 	ldr	r2, [sp, #64]	; 0x40
   11cd4:	e3a03000 	mov	r3, #0
   11cd8:	e5c23000 	strb	r3, [r2]
   11cdc:	eaffffd8 	b	11c44 <OSFlagPend+0x4c>
   11ce0:	e1d400b8 	ldrh	r0, [r4, #8]
   11ce4:	e1c63000 	bic	r3, r6, r0
   11ce8:	e1530006 	cmp	r3, r6
   11cec:	1a000046 	bne	11e0c <OSFlagPend+0x214>
   11cf0:	e3590001 	cmp	r9, #1
   11cf4:	1afffff2 	bne	11cc4 <OSFlagPend+0xcc>
   11cf8:	e1860000 	orr	r0, r6, r0
   11cfc:	e1c400b8 	strh	r0, [r4, #8]
   11d00:	e1a04000 	mov	r4, r0
   11d04:	eaffffef 	b	11cc8 <OSFlagPend+0xd0>
   11d08:	e1d400b8 	ldrh	r0, [r4, #8]
   11d0c:	e1d63000 	bics	r3, r6, r0
   11d10:	0a00004f 	beq	11e54 <OSFlagPend+0x25c>
   11d14:	e3590001 	cmp	r9, #1
   11d18:	1affffe9 	bne	11cc4 <OSFlagPend+0xcc>
   11d1c:	e1830000 	orr	r0, r3, r0
   11d20:	e1c400b8 	strh	r0, [r4, #8]
   11d24:	e1a04000 	mov	r4, r0
   11d28:	eaffffe6 	b	11cc8 <OSFlagPend+0xd0>
   11d2c:	e1d400b8 	ldrh	r0, [r4, #8]
   11d30:	e0063000 	and	r3, r6, r0
   11d34:	e1530006 	cmp	r3, r6
   11d38:	1a00000b 	bne	11d6c <OSFlagPend+0x174>
   11d3c:	e3590001 	cmp	r9, #1
   11d40:	1affffdf 	bne	11cc4 <OSFlagPend+0xcc>
   11d44:	e1c00006 	bic	r0, r0, r6
   11d48:	e1c400b8 	strh	r0, [r4, #8]
   11d4c:	e1a04000 	mov	r4, r0
   11d50:	eaffffdc 	b	11cc8 <OSFlagPend+0xd0>
   11d54:	ebfffbba 	bl	10c44 <OS_CPU_SR_Restore>
   11d58:	e59d2040 	ldr	r2, [sp, #64]	; 0x40
   11d5c:	e3e03068 	mvn	r3, #104	; 0x68
   11d60:	e5c23000 	strb	r3, [r2]
   11d64:	e3a04000 	mov	r4, #0
   11d68:	eaffffb5 	b	11c44 <OSFlagPend+0x4c>
   11d6c:	e1a00004 	mov	r0, r4
   11d70:	e58d7000 	str	r7, [sp]
   11d74:	e1a02006 	mov	r2, r6
   11d78:	e28d100c 	add	r1, sp, #12
   11d7c:	e3a03002 	mov	r3, #2
   11d80:	ebfffc29 	bl	10e2c <OS_FlagBlock>
   11d84:	e1a00008 	mov	r0, r8
   11d88:	ebfffbad 	bl	10c44 <OS_CPU_SR_Restore>
   11d8c:	ebfffd9e 	bl	1140c <OS_Sched>
   11d90:	ebfffba3 	bl	10c24 <OS_CPU_SR_Save>
   11d94:	e59f3150 	ldr	r3, [pc, #336]	; 11eec <OSFlagPend+0x2f4>
   11d98:	e5933000 	ldr	r3, [r3]
   11d9c:	e5d3202c 	ldrb	r2, [r3, #44]	; 0x2c
   11da0:	e3120020 	tst	r2, #32
   11da4:	0a000010 	beq	11dec <OSFlagPend+0x1f4>
   11da8:	e59d1010 	ldr	r1, [sp, #16]
   11dac:	e59d200c 	ldr	r2, [sp, #12]
   11db0:	e3510000 	cmp	r1, #0
   11db4:	0a000046 	beq	11ed4 <OSFlagPend+0x2dc>
   11db8:	e3520000 	cmp	r2, #0
   11dbc:	e5812000 	str	r2, [r1]
   11dc0:	0a000000 	beq	11dc8 <OSFlagPend+0x1d0>
   11dc4:	e5821004 	str	r1, [r2, #4]
   11dc8:	e59d2014 	ldr	r2, [sp, #20]
   11dcc:	e3a04000 	mov	r4, #0
   11dd0:	e5824024 	str	r4, [r2, #36]	; 0x24
   11dd4:	e5c3402c 	strb	r4, [r3, #44]	; 0x2c
   11dd8:	ebfffb99 	bl	10c44 <OS_CPU_SR_Restore>
   11ddc:	e59d2040 	ldr	r2, [sp, #64]	; 0x40
   11de0:	e3a0300a 	mov	r3, #10
   11de4:	e5c23000 	strb	r3, [r2]
   11de8:	eaffff95 	b	11c44 <OSFlagPend+0x4c>
   11dec:	e3590001 	cmp	r9, #1
   11df0:	0a000024 	beq	11e88 <OSFlagPend+0x290>
   11df4:	e1d440b8 	ldrh	r4, [r4, #8]
   11df8:	ebfffb91 	bl	10c44 <OS_CPU_SR_Restore>
   11dfc:	e59d2040 	ldr	r2, [sp, #64]	; 0x40
   11e00:	e3a03000 	mov	r3, #0
   11e04:	e5c23000 	strb	r3, [r2]
   11e08:	eaffff8d 	b	11c44 <OSFlagPend+0x4c>
   11e0c:	e1a00004 	mov	r0, r4
   11e10:	e58d7000 	str	r7, [sp]
   11e14:	e1a02006 	mov	r2, r6
   11e18:	e28d100c 	add	r1, sp, #12
   11e1c:	e3a03000 	mov	r3, #0
   11e20:	ebfffc01 	bl	10e2c <OS_FlagBlock>
   11e24:	e1a00008 	mov	r0, r8
   11e28:	ebfffb85 	bl	10c44 <OS_CPU_SR_Restore>
   11e2c:	eaffffd6 	b	11d8c <OSFlagPend+0x194>
   11e30:	e1a00004 	mov	r0, r4
   11e34:	e58d7000 	str	r7, [sp]
   11e38:	e1a02006 	mov	r2, r6
   11e3c:	e28d100c 	add	r1, sp, #12
   11e40:	e3a03003 	mov	r3, #3
   11e44:	ebfffbf8 	bl	10e2c <OS_FlagBlock>
   11e48:	e1a00008 	mov	r0, r8
   11e4c:	ebfffb7c 	bl	10c44 <OS_CPU_SR_Restore>
   11e50:	eaffffcd 	b	11d8c <OSFlagPend+0x194>
   11e54:	e1a00004 	mov	r0, r4
   11e58:	e58d7000 	str	r7, [sp]
   11e5c:	e1a02006 	mov	r2, r6
   11e60:	e28d100c 	add	r1, sp, #12
   11e64:	e3a03001 	mov	r3, #1
   11e68:	ebfffbef 	bl	10e2c <OS_FlagBlock>
   11e6c:	e1a00008 	mov	r0, r8
   11e70:	ebfffb73 	bl	10c44 <OS_CPU_SR_Restore>
   11e74:	eaffffc4 	b	11d8c <OSFlagPend+0x194>
   11e78:	e1c00003 	bic	r0, r0, r3
   11e7c:	e1c400b8 	strh	r0, [r4, #8]
   11e80:	e1a04000 	mov	r4, r0
   11e84:	eaffff8f 	b	11cc8 <OSFlagPend+0xd0>
   11e88:	e3550003 	cmp	r5, #3
   11e8c:	979ff105 	ldrls	pc, [pc, r5, lsl #2]
   11e90:	eaffffd7 	b	11df4 <OSFlagPend+0x1fc>
   11e94:	00011ebc 			; <UNDEFINED> instruction: 0x00011ebc
   11e98:	00011ebc 			; <UNDEFINED> instruction: 0x00011ebc
   11e9c:	00011ea4 	andeq	r1, r1, r4, lsr #29
   11ea0:	00011ea4 	andeq	r1, r1, r4, lsr #29
   11ea4:	e1d322b8 	ldrh	r2, [r3, #40]	; 0x28
   11ea8:	e1d430b8 	ldrh	r3, [r4, #8]
   11eac:	e1c33002 	bic	r3, r3, r2
   11eb0:	e1c430b8 	strh	r3, [r4, #8]
   11eb4:	e1a04003 	mov	r4, r3
   11eb8:	eaffffce 	b	11df8 <OSFlagPend+0x200>
   11ebc:	e1d322b8 	ldrh	r2, [r3, #40]	; 0x28
   11ec0:	e1d430b8 	ldrh	r3, [r4, #8]
   11ec4:	e1823003 	orr	r3, r2, r3
   11ec8:	e1c430b8 	strh	r3, [r4, #8]
   11ecc:	e1a04003 	mov	r4, r3
   11ed0:	eaffffc8 	b	11df8 <OSFlagPend+0x200>
   11ed4:	e59dc018 	ldr	ip, [sp, #24]
   11ed8:	e3520000 	cmp	r2, #0
   11edc:	e58c2004 	str	r2, [ip, #4]
   11ee0:	1affffb7 	bne	11dc4 <OSFlagPend+0x1cc>
   11ee4:	eaffffb7 	b	11dc8 <OSFlagPend+0x1d0>
   11ee8:	00016709 	andeq	r6, r1, r9, lsl #14
   11eec:	0001670c 	andeq	r6, r1, ip, lsl #14

00011ef0 <OSFlagPost>:
   11ef0:	e92d41f0 	push	{r4, r5, r6, r7, r8, lr}
   11ef4:	e2505000 	subs	r5, r0, #0
   11ef8:	e1a06003 	mov	r6, r3
   11efc:	03e03069 	mvneq	r3, #105	; 0x69
   11f00:	e24dd008 	sub	sp, sp, #8
   11f04:	01a00005 	moveq	r0, r5
   11f08:	05c63000 	strbeq	r3, [r6]
   11f0c:	0a000005 	beq	11f28 <OSFlagPost+0x38>
   11f10:	e5d53000 	ldrb	r3, [r5]
   11f14:	e3530005 	cmp	r3, #5
   11f18:	0a000004 	beq	11f30 <OSFlagPost+0x40>
   11f1c:	e3a03001 	mov	r3, #1
   11f20:	e5c63000 	strb	r3, [r6]
   11f24:	e3a00000 	mov	r0, #0
   11f28:	e28dd008 	add	sp, sp, #8
   11f2c:	e8bd81f0 	pop	{r4, r5, r6, r7, r8, pc}
   11f30:	e58d1004 	str	r1, [sp, #4]
   11f34:	e58d2000 	str	r2, [sp]
   11f38:	ebfffb39 	bl	10c24 <OS_CPU_SR_Save>
   11f3c:	e59d2000 	ldr	r2, [sp]
   11f40:	e1a07000 	mov	r7, r0
   11f44:	e3520000 	cmp	r2, #0
   11f48:	e59d1004 	ldr	r1, [sp, #4]
   11f4c:	0a00003d 	beq	12048 <OSFlagPost+0x158>
   11f50:	e3520001 	cmp	r2, #1
   11f54:	1a000036 	bne	12034 <OSFlagPost+0x144>
   11f58:	e1d530b8 	ldrh	r3, [r5, #8]
   11f5c:	e1811003 	orr	r1, r1, r3
   11f60:	e1c510b8 	strh	r1, [r5, #8]
   11f64:	e5954004 	ldr	r4, [r5, #4]
   11f68:	e3540000 	cmp	r4, #0
   11f6c:	0a00003b 	beq	12060 <OSFlagPost+0x170>
   11f70:	e3a08000 	mov	r8, #0
   11f74:	e5d42012 	ldrb	r2, [r4, #18]
   11f78:	e3520003 	cmp	r2, #3
   11f7c:	979ff102 	ldrls	pc, [pc, r2, lsl #2]
   11f80:	ea000007 	b	11fa4 <OSFlagPost+0xb4>
   11f84:	00011fe0 	andeq	r1, r1, r0, ror #31
   11f88:	00012010 	andeq	r2, r1, r0, lsl r0
   11f8c:	00011ff8 	strdeq	r1, [r1], -r8
   11f90:	00011f94 	muleq	r1, r4, pc	; <UNPREDICTABLE>
   11f94:	e1d411b0 	ldrh	r1, [r4, #16]
   11f98:	e1d530b8 	ldrh	r3, [r5, #8]
   11f9c:	e0111003 	ands	r1, r1, r3
   11fa0:	1a00001e 	bne	12020 <OSFlagPost+0x130>
   11fa4:	e5944000 	ldr	r4, [r4]
   11fa8:	e3540000 	cmp	r4, #0
   11fac:	1afffff0 	bne	11f74 <OSFlagPost+0x84>
   11fb0:	e1a00007 	mov	r0, r7
   11fb4:	ebfffb22 	bl	10c44 <OS_CPU_SR_Restore>
   11fb8:	e3580001 	cmp	r8, #1
   11fbc:	0a000025 	beq	12058 <OSFlagPost+0x168>
   11fc0:	ebfffb17 	bl	10c24 <OS_CPU_SR_Save>
   11fc4:	e1d550b8 	ldrh	r5, [r5, #8]
   11fc8:	ebfffb1d 	bl	10c44 <OS_CPU_SR_Restore>
   11fcc:	e3a03000 	mov	r3, #0
   11fd0:	e1a00005 	mov	r0, r5
   11fd4:	e5c63000 	strb	r3, [r6]
   11fd8:	e28dd008 	add	sp, sp, #8
   11fdc:	e8bd81f0 	pop	{r4, r5, r6, r7, r8, pc}
   11fe0:	e1d411b0 	ldrh	r1, [r4, #16]
   11fe4:	e1d530b8 	ldrh	r3, [r5, #8]
   11fe8:	e1c13003 	bic	r3, r1, r3
   11fec:	e1510003 	cmp	r1, r3
   11ff0:	1affffeb 	bne	11fa4 <OSFlagPost+0xb4>
   11ff4:	ea000009 	b	12020 <OSFlagPost+0x130>
   11ff8:	e1d411b0 	ldrh	r1, [r4, #16]
   11ffc:	e1d530b8 	ldrh	r3, [r5, #8]
   12000:	e0013003 	and	r3, r1, r3
   12004:	e1510003 	cmp	r1, r3
   12008:	1affffe5 	bne	11fa4 <OSFlagPost+0xb4>
   1200c:	ea000003 	b	12020 <OSFlagPost+0x130>
   12010:	e1d510b8 	ldrh	r1, [r5, #8]
   12014:	e1d431b0 	ldrh	r3, [r4, #16]
   12018:	e1d31001 	bics	r1, r3, r1
   1201c:	0affffe0 	beq	11fa4 <OSFlagPost+0xb4>
   12020:	e1a00004 	mov	r0, r4
   12024:	ebfffba5 	bl	10ec0 <OS_FlagTaskRdy>
   12028:	e3500001 	cmp	r0, #1
   1202c:	03a08001 	moveq	r8, #1
   12030:	eaffffdb 	b	11fa4 <OSFlagPost+0xb4>
   12034:	ebfffb02 	bl	10c44 <OS_CPU_SR_Restore>
   12038:	e3e03066 	mvn	r3, #102	; 0x66
   1203c:	e5c63000 	strb	r3, [r6]
   12040:	e3a00000 	mov	r0, #0
   12044:	eaffffb7 	b	11f28 <OSFlagPost+0x38>
   12048:	e1d530b8 	ldrh	r3, [r5, #8]
   1204c:	e1c31001 	bic	r1, r3, r1
   12050:	e1c510b8 	strh	r1, [r5, #8]
   12054:	eaffffc2 	b	11f64 <OSFlagPost+0x74>
   12058:	ebfffceb 	bl	1140c <OS_Sched>
   1205c:	eaffffd7 	b	11fc0 <OSFlagPost+0xd0>
   12060:	e1a00007 	mov	r0, r7
   12064:	ebfffaf6 	bl	10c44 <OS_CPU_SR_Restore>
   12068:	eaffffd4 	b	11fc0 <OSFlagPost+0xd0>

0001206c <OSFlagQuery>:
   1206c:	e92d4010 	push	{r4, lr}
   12070:	e2504000 	subs	r4, r0, #0
   12074:	03e03069 	mvneq	r3, #105	; 0x69
   12078:	e24dd008 	sub	sp, sp, #8
   1207c:	01a00004 	moveq	r0, r4
   12080:	05c13000 	strbeq	r3, [r1]
   12084:	0a000005 	beq	120a0 <OSFlagQuery+0x34>
   12088:	e5d43000 	ldrb	r3, [r4]
   1208c:	e3530005 	cmp	r3, #5
   12090:	0a000004 	beq	120a8 <OSFlagQuery+0x3c>
   12094:	e3a03001 	mov	r3, #1
   12098:	e5c13000 	strb	r3, [r1]
   1209c:	e3a00000 	mov	r0, #0
   120a0:	e28dd008 	add	sp, sp, #8
   120a4:	e8bd8010 	pop	{r4, pc}
   120a8:	e58d1004 	str	r1, [sp, #4]
   120ac:	ebfffadc 	bl	10c24 <OS_CPU_SR_Save>
   120b0:	e1d440b8 	ldrh	r4, [r4, #8]
   120b4:	ebfffae2 	bl	10c44 <OS_CPU_SR_Restore>
   120b8:	e59d1004 	ldr	r1, [sp, #4]
   120bc:	e3a03000 	mov	r3, #0
   120c0:	e1a00004 	mov	r0, r4
   120c4:	e5c13000 	strb	r3, [r1]
   120c8:	e28dd008 	add	sp, sp, #8
   120cc:	e8bd8010 	pop	{r4, pc}

000120d0 <OS_FlagInit>:
   120d0:	e92d0030 	push	{r4, r5}
   120d4:	e59f3044 	ldr	r3, [pc, #68]	; 12120 <OS_FlagInit+0x50>
   120d8:	e3a02000 	mov	r2, #0
   120dc:	e1a01003 	mov	r1, r3
   120e0:	e59f003c 	ldr	r0, [pc, #60]	; 12124 <OS_FlagInit+0x54>
   120e4:	e2835018 	add	r5, r3, #24
   120e8:	e2834024 	add	r4, r3, #36	; 0x24
   120ec:	e4c1200c 	strb	r2, [r1], #12
   120f0:	e283c030 	add	ip, r3, #48	; 0x30
   120f4:	e5c3200c 	strb	r2, [r3, #12]
   120f8:	e5c32018 	strb	r2, [r3, #24]
   120fc:	e5c32024 	strb	r2, [r3, #36]	; 0x24
   12100:	e5835010 	str	r5, [r3, #16]
   12104:	e583401c 	str	r4, [r3, #28]
   12108:	e583c028 	str	ip, [r3, #40]	; 0x28
   1210c:	e5803000 	str	r3, [r0]
   12110:	e5831004 	str	r1, [r3, #4]
   12114:	e5832034 	str	r2, [r3, #52]	; 0x34
   12118:	e8bd0030 	pop	{r4, r5}
   1211c:	e12fff1e 	bx	lr
   12120:	00015dbc 			; <UNDEFINED> instruction: 0x00015dbc
   12124:	00017378 	andeq	r7, r1, r8, ror r3

00012128 <OS_FlagUnlink>:
   12128:	e5902004 	ldr	r2, [r0, #4]
   1212c:	e5903000 	ldr	r3, [r0]
   12130:	e3520000 	cmp	r2, #0
   12134:	0a000007 	beq	12158 <OS_FlagUnlink+0x30>
   12138:	e3530000 	cmp	r3, #0
   1213c:	e5823000 	str	r3, [r2]
   12140:	0a000000 	beq	12148 <OS_FlagUnlink+0x20>
   12144:	e5832004 	str	r2, [r3, #4]
   12148:	e5903008 	ldr	r3, [r0, #8]
   1214c:	e3a02000 	mov	r2, #0
   12150:	e5832024 	str	r2, [r3, #36]	; 0x24
   12154:	e12fff1e 	bx	lr
   12158:	e590100c 	ldr	r1, [r0, #12]
   1215c:	e3530000 	cmp	r3, #0
   12160:	e5813004 	str	r3, [r1, #4]
   12164:	1afffff6 	bne	12144 <OS_FlagUnlink+0x1c>
   12168:	eafffff6 	b	12148 <OS_FlagUnlink+0x20>

0001216c <OSMboxAccept>:
   1216c:	e92d4038 	push	{r3, r4, r5, lr}
   12170:	e2504000 	subs	r4, r0, #0
   12174:	0a00000b 	beq	121a8 <OSMboxAccept+0x3c>
   12178:	e5d43000 	ldrb	r3, [r4]
   1217c:	e3530001 	cmp	r3, #1
   12180:	1a000006 	bne	121a0 <OSMboxAccept+0x34>
   12184:	ebfffaa6 	bl	10c24 <OS_CPU_SR_Save>
   12188:	e5945004 	ldr	r5, [r4, #4]
   1218c:	e3a03000 	mov	r3, #0
   12190:	e5843004 	str	r3, [r4, #4]
   12194:	ebfffaaa 	bl	10c44 <OS_CPU_SR_Restore>
   12198:	e1a00005 	mov	r0, r5
   1219c:	e8bd8038 	pop	{r3, r4, r5, pc}
   121a0:	e3a00000 	mov	r0, #0
   121a4:	e8bd8038 	pop	{r3, r4, r5, pc}
   121a8:	e1a00004 	mov	r0, r4
   121ac:	e8bd8038 	pop	{r3, r4, r5, pc}

000121b0 <OSMboxCreate>:
   121b0:	e92d4070 	push	{r4, r5, r6, lr}
   121b4:	e59f307c 	ldr	r3, [pc, #124]	; 12238 <OSMboxCreate+0x88>
   121b8:	e1a06000 	mov	r6, r0
   121bc:	e5d35000 	ldrb	r5, [r3]
   121c0:	e3550000 	cmp	r5, #0
   121c4:	1a000016 	bne	12224 <OSMboxCreate+0x74>
   121c8:	ebfffa95 	bl	10c24 <OS_CPU_SR_Save>
   121cc:	e59f3068 	ldr	r3, [pc, #104]	; 1223c <OSMboxCreate+0x8c>
   121d0:	e5934000 	ldr	r4, [r3]
   121d4:	e3540000 	cmp	r4, #0
   121d8:	0a000013 	beq	1222c <OSMboxCreate+0x7c>
   121dc:	e5942004 	ldr	r2, [r4, #4]
   121e0:	e5832000 	str	r2, [r3]
   121e4:	ebfffa96 	bl	10c44 <OS_CPU_SR_Restore>
   121e8:	e3a03001 	mov	r3, #1
   121ec:	e1c450b2 	strh	r5, [r4, #2]
   121f0:	e5846004 	str	r6, [r4, #4]
   121f4:	e5c45001 	strb	r5, [r4, #1]
   121f8:	e5c45008 	strb	r5, [r4, #8]
   121fc:	e5c45009 	strb	r5, [r4, #9]
   12200:	e5c4500a 	strb	r5, [r4, #10]
   12204:	e5c4500b 	strb	r5, [r4, #11]
   12208:	e5c4500c 	strb	r5, [r4, #12]
   1220c:	e5c4500d 	strb	r5, [r4, #13]
   12210:	e5c4500e 	strb	r5, [r4, #14]
   12214:	e5c4500f 	strb	r5, [r4, #15]
   12218:	e5c43000 	strb	r3, [r4]
   1221c:	e1a00004 	mov	r0, r4
   12220:	e8bd8070 	pop	{r4, r5, r6, pc}
   12224:	e3a00000 	mov	r0, #0
   12228:	e8bd8070 	pop	{r4, r5, r6, pc}
   1222c:	ebfffa84 	bl	10c44 <OS_CPU_SR_Restore>
   12230:	e1a00004 	mov	r0, r4
   12234:	e8bd8070 	pop	{r4, r5, r6, pc}
   12238:	00016709 	andeq	r6, r1, r9, lsl #14
   1223c:	00016704 	andeq	r6, r1, r4, lsl #14

00012240 <OSMboxDel>:
   12240:	e92d40f0 	push	{r4, r5, r6, r7, lr}
   12244:	e59f3138 	ldr	r3, [pc, #312]	; 12384 <OSMboxDel+0x144>
   12248:	e24dd00c 	sub	sp, sp, #12
   1224c:	e5d33000 	ldrb	r3, [r3]
   12250:	e1a04000 	mov	r4, r0
   12254:	e3530000 	cmp	r3, #0
   12258:	e1a05002 	mov	r5, r2
   1225c:	1a00000c 	bne	12294 <OSMboxDel+0x54>
   12260:	e3500000 	cmp	r0, #0
   12264:	03a03004 	moveq	r3, #4
   12268:	01a00000 	moveq	r0, r0
   1226c:	05c23000 	strbeq	r3, [r2]
   12270:	0a000005 	beq	1228c <OSMboxDel+0x4c>
   12274:	e5d43000 	ldrb	r3, [r4]
   12278:	e3530001 	cmp	r3, #1
   1227c:	0a000008 	beq	122a4 <OSMboxDel+0x64>
   12280:	e3a03001 	mov	r3, #1
   12284:	e1a00004 	mov	r0, r4
   12288:	e5c23000 	strb	r3, [r2]
   1228c:	e28dd00c 	add	sp, sp, #12
   12290:	e8bd80f0 	pop	{r4, r5, r6, r7, pc}
   12294:	e3e03073 	mvn	r3, #115	; 0x73
   12298:	e5c23000 	strb	r3, [r2]
   1229c:	e28dd00c 	add	sp, sp, #12
   122a0:	e8bd80f0 	pop	{r4, r5, r6, r7, pc}
   122a4:	e58d1004 	str	r1, [sp, #4]
   122a8:	ebfffa5d 	bl	10c24 <OS_CPU_SR_Save>
   122ac:	e5d46001 	ldrb	r6, [r4, #1]
   122b0:	e59d1004 	ldr	r1, [sp, #4]
   122b4:	e2966000 	adds	r6, r6, #0
   122b8:	13a06001 	movne	r6, #1
   122bc:	e3510000 	cmp	r1, #0
   122c0:	e1a07000 	mov	r7, r0
   122c4:	0a00001c 	beq	1233c <OSMboxDel+0xfc>
   122c8:	e3510001 	cmp	r1, #1
   122cc:	1a000015 	bne	12328 <OSMboxDel+0xe8>
   122d0:	e3560000 	cmp	r6, #0
   122d4:	0a000006 	beq	122f4 <OSMboxDel+0xb4>
   122d8:	e1a00004 	mov	r0, r4
   122dc:	e3a01000 	mov	r1, #0
   122e0:	e3a02002 	mov	r2, #2
   122e4:	ebfffbe2 	bl	11274 <OS_EventTaskRdy>
   122e8:	e5d43001 	ldrb	r3, [r4, #1]
   122ec:	e3530000 	cmp	r3, #0
   122f0:	1afffff8 	bne	122d8 <OSMboxDel+0x98>
   122f4:	e59f308c 	ldr	r3, [pc, #140]	; 12388 <OSMboxDel+0x148>
   122f8:	e3a02000 	mov	r2, #0
   122fc:	e5c42000 	strb	r2, [r4]
   12300:	e5932000 	ldr	r2, [r3]
   12304:	e1a00007 	mov	r0, r7
   12308:	e5842004 	str	r2, [r4, #4]
   1230c:	e5834000 	str	r4, [r3]
   12310:	ebfffa4b 	bl	10c44 <OS_CPU_SR_Restore>
   12314:	e3560001 	cmp	r6, #1
   12318:	0a00000e 	beq	12358 <OSMboxDel+0x118>
   1231c:	e3a00000 	mov	r0, #0
   12320:	e5c50000 	strb	r0, [r5]
   12324:	eaffffd8 	b	1228c <OSMboxDel+0x4c>
   12328:	ebfffa45 	bl	10c44 <OS_CPU_SR_Restore>
   1232c:	e3a03007 	mov	r3, #7
   12330:	e1a00004 	mov	r0, r4
   12334:	e5c53000 	strb	r3, [r5]
   12338:	eaffffd3 	b	1228c <OSMboxDel+0x4c>
   1233c:	e3560000 	cmp	r6, #0
   12340:	0a000006 	beq	12360 <OSMboxDel+0x120>
   12344:	ebfffa3e 	bl	10c44 <OS_CPU_SR_Restore>
   12348:	e3a03008 	mov	r3, #8
   1234c:	e1a00004 	mov	r0, r4
   12350:	e5c53000 	strb	r3, [r5]
   12354:	eaffffcc 	b	1228c <OSMboxDel+0x4c>
   12358:	ebfffc2b 	bl	1140c <OS_Sched>
   1235c:	eaffffee 	b	1231c <OSMboxDel+0xdc>
   12360:	e59f3020 	ldr	r3, [pc, #32]	; 12388 <OSMboxDel+0x148>
   12364:	e5c46000 	strb	r6, [r4]
   12368:	e5932000 	ldr	r2, [r3]
   1236c:	e5834000 	str	r4, [r3]
   12370:	e5842004 	str	r2, [r4, #4]
   12374:	ebfffa32 	bl	10c44 <OS_CPU_SR_Restore>
   12378:	e5c56000 	strb	r6, [r5]
   1237c:	e1a00006 	mov	r0, r6
   12380:	eaffffc1 	b	1228c <OSMboxDel+0x4c>
   12384:	00016709 	andeq	r6, r1, r9, lsl #14
   12388:	00016704 	andeq	r6, r1, r4, lsl #14

0001238c <OSMboxPend>:
   1238c:	e92d43f8 	push	{r3, r4, r5, r6, r7, r8, r9, lr}
   12390:	e59f30fc 	ldr	r3, [pc, #252]	; 12494 <OSMboxPend+0x108>
   12394:	e1a04000 	mov	r4, r0
   12398:	e5d35000 	ldrb	r5, [r3]
   1239c:	e1a08001 	mov	r8, r1
   123a0:	e3550000 	cmp	r5, #0
   123a4:	e1a06002 	mov	r6, r2
   123a8:	1a00002a 	bne	12458 <OSMboxPend+0xcc>
   123ac:	e3500000 	cmp	r0, #0
   123b0:	0a00002c 	beq	12468 <OSMboxPend+0xdc>
   123b4:	e5d03000 	ldrb	r3, [r0]
   123b8:	e3530001 	cmp	r3, #1
   123bc:	1a000009 	bne	123e8 <OSMboxPend+0x5c>
   123c0:	ebfffa17 	bl	10c24 <OS_CPU_SR_Save>
   123c4:	e5947004 	ldr	r7, [r4, #4]
   123c8:	e1a09000 	mov	r9, r0
   123cc:	e3570000 	cmp	r7, #0
   123d0:	0a000008 	beq	123f8 <OSMboxPend+0x6c>
   123d4:	e5845004 	str	r5, [r4, #4]
   123d8:	ebfffa19 	bl	10c44 <OS_CPU_SR_Restore>
   123dc:	e5c65000 	strb	r5, [r6]
   123e0:	e1a00007 	mov	r0, r7
   123e4:	e8bd83f8 	pop	{r3, r4, r5, r6, r7, r8, r9, pc}
   123e8:	e3a03001 	mov	r3, #1
   123ec:	e1a00005 	mov	r0, r5
   123f0:	e5c23000 	strb	r3, [r2]
   123f4:	e8bd83f8 	pop	{r3, r4, r5, r6, r7, r8, r9, pc}
   123f8:	e59f5098 	ldr	r5, [pc, #152]	; 12498 <OSMboxPend+0x10c>
   123fc:	e1a00004 	mov	r0, r4
   12400:	e5953000 	ldr	r3, [r5]
   12404:	e5d3202c 	ldrb	r2, [r3, #44]	; 0x2c
   12408:	e1c382ba 	strh	r8, [r3, #42]	; 0x2a
   1240c:	e3822002 	orr	r2, r2, #2
   12410:	e5c3202c 	strb	r2, [r3, #44]	; 0x2c
   12414:	ebfffbc2 	bl	11324 <OS_EventTaskWait>
   12418:	e1a00009 	mov	r0, r9
   1241c:	ebfffa08 	bl	10c44 <OS_CPU_SR_Restore>
   12420:	ebfffbf9 	bl	1140c <OS_Sched>
   12424:	ebfff9fe 	bl	10c24 <OS_CPU_SR_Save>
   12428:	e5953000 	ldr	r3, [r5]
   1242c:	e1a08000 	mov	r8, r0
   12430:	e5935020 	ldr	r5, [r3, #32]
   12434:	e3550000 	cmp	r5, #0
   12438:	0a00000d 	beq	12474 <OSMboxPend+0xe8>
   1243c:	e5837020 	str	r7, [r3, #32]
   12440:	e5c3702c 	strb	r7, [r3, #44]	; 0x2c
   12444:	e583701c 	str	r7, [r3, #28]
   12448:	ebfff9fd 	bl	10c44 <OS_CPU_SR_Restore>
   1244c:	e5c67000 	strb	r7, [r6]
   12450:	e1a00005 	mov	r0, r5
   12454:	e8bd83f8 	pop	{r3, r4, r5, r6, r7, r8, r9, pc}
   12458:	e3a03002 	mov	r3, #2
   1245c:	e5c23000 	strb	r3, [r2]
   12460:	e3a00000 	mov	r0, #0
   12464:	e8bd83f8 	pop	{r3, r4, r5, r6, r7, r8, r9, pc}
   12468:	e3a03004 	mov	r3, #4
   1246c:	e5c23000 	strb	r3, [r2]
   12470:	e8bd83f8 	pop	{r3, r4, r5, r6, r7, r8, r9, pc}
   12474:	e1a00004 	mov	r0, r4
   12478:	ebfffbc6 	bl	11398 <OS_EventTO>
   1247c:	e1a00008 	mov	r0, r8
   12480:	ebfff9ef 	bl	10c44 <OS_CPU_SR_Restore>
   12484:	e3a0300a 	mov	r3, #10
   12488:	e1a00005 	mov	r0, r5
   1248c:	e5c63000 	strb	r3, [r6]
   12490:	e8bd83f8 	pop	{r3, r4, r5, r6, r7, r8, r9, pc}
   12494:	00016709 	andeq	r6, r1, r9, lsl #14
   12498:	0001670c 	andeq	r6, r1, ip, lsl #14

0001249c <OSMboxPost>:
   1249c:	e92d4030 	push	{r4, r5, lr}
   124a0:	e2504000 	subs	r4, r0, #0
   124a4:	e24dd00c 	sub	sp, sp, #12
   124a8:	03a00004 	moveq	r0, #4
   124ac:	0a000006 	beq	124cc <OSMboxPost+0x30>
   124b0:	e3510000 	cmp	r1, #0
   124b4:	03a00003 	moveq	r0, #3
   124b8:	0a000003 	beq	124cc <OSMboxPost+0x30>
   124bc:	e5d43000 	ldrb	r3, [r4]
   124c0:	e3530001 	cmp	r3, #1
   124c4:	13a00001 	movne	r0, #1
   124c8:	0a000001 	beq	124d4 <OSMboxPost+0x38>
   124cc:	e28dd00c 	add	sp, sp, #12
   124d0:	e8bd8030 	pop	{r4, r5, pc}
   124d4:	e58d1004 	str	r1, [sp, #4]
   124d8:	ebfff9d1 	bl	10c24 <OS_CPU_SR_Save>
   124dc:	e5d43001 	ldrb	r3, [r4, #1]
   124e0:	e1a05000 	mov	r5, r0
   124e4:	e3530000 	cmp	r3, #0
   124e8:	e59d1004 	ldr	r1, [sp, #4]
   124ec:	1a000005 	bne	12508 <OSMboxPost+0x6c>
   124f0:	e5945004 	ldr	r5, [r4, #4]
   124f4:	e3550000 	cmp	r5, #0
   124f8:	0a00000a 	beq	12528 <OSMboxPost+0x8c>
   124fc:	ebfff9d0 	bl	10c44 <OS_CPU_SR_Restore>
   12500:	e3a00014 	mov	r0, #20
   12504:	eafffff0 	b	124cc <OSMboxPost+0x30>
   12508:	e3a02002 	mov	r2, #2
   1250c:	e1a00004 	mov	r0, r4
   12510:	ebfffb57 	bl	11274 <OS_EventTaskRdy>
   12514:	e1a00005 	mov	r0, r5
   12518:	ebfff9c9 	bl	10c44 <OS_CPU_SR_Restore>
   1251c:	ebfffbba 	bl	1140c <OS_Sched>
   12520:	e3a00000 	mov	r0, #0
   12524:	eaffffe8 	b	124cc <OSMboxPost+0x30>
   12528:	e5841004 	str	r1, [r4, #4]
   1252c:	ebfff9c4 	bl	10c44 <OS_CPU_SR_Restore>
   12530:	e1a00005 	mov	r0, r5
   12534:	eaffffe4 	b	124cc <OSMboxPost+0x30>

00012538 <OSMboxPostOpt>:
   12538:	e92d4070 	push	{r4, r5, r6, lr}
   1253c:	e2504000 	subs	r4, r0, #0
   12540:	e24dd008 	sub	sp, sp, #8
   12544:	e1a05001 	mov	r5, r1
   12548:	03a00004 	moveq	r0, #4
   1254c:	0a000006 	beq	1256c <OSMboxPostOpt+0x34>
   12550:	e3510000 	cmp	r1, #0
   12554:	03a00003 	moveq	r0, #3
   12558:	0a000003 	beq	1256c <OSMboxPostOpt+0x34>
   1255c:	e5d43000 	ldrb	r3, [r4]
   12560:	e3530001 	cmp	r3, #1
   12564:	13a00001 	movne	r0, #1
   12568:	0a000001 	beq	12574 <OSMboxPostOpt+0x3c>
   1256c:	e28dd008 	add	sp, sp, #8
   12570:	e8bd8070 	pop	{r4, r5, r6, pc}
   12574:	e58d2004 	str	r2, [sp, #4]
   12578:	ebfff9a9 	bl	10c24 <OS_CPU_SR_Save>
   1257c:	e5d43001 	ldrb	r3, [r4, #1]
   12580:	e1a06000 	mov	r6, r0
   12584:	e3530000 	cmp	r3, #0
   12588:	e59d2004 	ldr	r2, [sp, #4]
   1258c:	0a00000d 	beq	125c8 <OSMboxPostOpt+0x90>
   12590:	e3120001 	tst	r2, #1
   12594:	0a000011 	beq	125e0 <OSMboxPostOpt+0xa8>
   12598:	e1a00004 	mov	r0, r4
   1259c:	e1a01005 	mov	r1, r5
   125a0:	e3a02002 	mov	r2, #2
   125a4:	ebfffb32 	bl	11274 <OS_EventTaskRdy>
   125a8:	e5d43001 	ldrb	r3, [r4, #1]
   125ac:	e3530000 	cmp	r3, #0
   125b0:	1afffff8 	bne	12598 <OSMboxPostOpt+0x60>
   125b4:	e1a00006 	mov	r0, r6
   125b8:	ebfff9a1 	bl	10c44 <OS_CPU_SR_Restore>
   125bc:	ebfffb92 	bl	1140c <OS_Sched>
   125c0:	e3a00000 	mov	r0, #0
   125c4:	eaffffe8 	b	1256c <OSMboxPostOpt+0x34>
   125c8:	e5946004 	ldr	r6, [r4, #4]
   125cc:	e3560000 	cmp	r6, #0
   125d0:	0a000007 	beq	125f4 <OSMboxPostOpt+0xbc>
   125d4:	ebfff99a 	bl	10c44 <OS_CPU_SR_Restore>
   125d8:	e3a00014 	mov	r0, #20
   125dc:	eaffffe2 	b	1256c <OSMboxPostOpt+0x34>
   125e0:	e1a00004 	mov	r0, r4
   125e4:	e1a01005 	mov	r1, r5
   125e8:	e3a02002 	mov	r2, #2
   125ec:	ebfffb20 	bl	11274 <OS_EventTaskRdy>
   125f0:	eaffffef 	b	125b4 <OSMboxPostOpt+0x7c>
   125f4:	e5845004 	str	r5, [r4, #4]
   125f8:	ebfff991 	bl	10c44 <OS_CPU_SR_Restore>
   125fc:	e1a00006 	mov	r0, r6
   12600:	eaffffd9 	b	1256c <OSMboxPostOpt+0x34>

00012604 <OSMboxQuery>:
   12604:	e92d4010 	push	{r4, lr}
   12608:	e2504000 	subs	r4, r0, #0
   1260c:	e24dd008 	sub	sp, sp, #8
   12610:	03a00004 	moveq	r0, #4
   12614:	0a000003 	beq	12628 <OSMboxQuery+0x24>
   12618:	e5d43000 	ldrb	r3, [r4]
   1261c:	e3530001 	cmp	r3, #1
   12620:	13a00001 	movne	r0, #1
   12624:	0a000001 	beq	12630 <OSMboxQuery+0x2c>
   12628:	e28dd008 	add	sp, sp, #8
   1262c:	e8bd8010 	pop	{r4, pc}
   12630:	e58d1004 	str	r1, [sp, #4]
   12634:	ebfff97a 	bl	10c24 <OS_CPU_SR_Save>
   12638:	e5d43001 	ldrb	r3, [r4, #1]
   1263c:	e59d1004 	ldr	r1, [sp, #4]
   12640:	e5c1300c 	strb	r3, [r1, #12]
   12644:	e5d43008 	ldrb	r3, [r4, #8]
   12648:	e5c13004 	strb	r3, [r1, #4]
   1264c:	e5d43009 	ldrb	r3, [r4, #9]
   12650:	e5c13005 	strb	r3, [r1, #5]
   12654:	e5d4300a 	ldrb	r3, [r4, #10]
   12658:	e5c13006 	strb	r3, [r1, #6]
   1265c:	e5d4300b 	ldrb	r3, [r4, #11]
   12660:	e5c13007 	strb	r3, [r1, #7]
   12664:	e5d4300c 	ldrb	r3, [r4, #12]
   12668:	e5c13008 	strb	r3, [r1, #8]
   1266c:	e5d4300d 	ldrb	r3, [r4, #13]
   12670:	e5c13009 	strb	r3, [r1, #9]
   12674:	e5d4300e 	ldrb	r3, [r4, #14]
   12678:	e5c1300a 	strb	r3, [r1, #10]
   1267c:	e5d4300f 	ldrb	r3, [r4, #15]
   12680:	e5c1300b 	strb	r3, [r1, #11]
   12684:	e5943004 	ldr	r3, [r4, #4]
   12688:	e5813000 	str	r3, [r1]
   1268c:	ebfff96c 	bl	10c44 <OS_CPU_SR_Restore>
   12690:	e3a00000 	mov	r0, #0
   12694:	e28dd008 	add	sp, sp, #8
   12698:	e8bd8010 	pop	{r4, pc}

0001269c <OSMemCreate>:
   1269c:	e92d4ff8 	push	{r3, r4, r5, r6, r7, r8, r9, sl, fp, lr}
   126a0:	e250a000 	subs	sl, r0, #0
   126a4:	e1a0b001 	mov	fp, r1
   126a8:	e1a07002 	mov	r7, r2
   126ac:	e1a09003 	mov	r9, r3
   126b0:	0a000031 	beq	1277c <OSMemCreate+0xe0>
   126b4:	e3510001 	cmp	r1, #1
   126b8:	9a00002b 	bls	1276c <OSMemCreate+0xd0>
   126bc:	e3520003 	cmp	r2, #3
   126c0:	9a000020 	bls	12748 <OSMemCreate+0xac>
   126c4:	ebfff956 	bl	10c24 <OS_CPU_SR_Save>
   126c8:	e59f30bc 	ldr	r3, [pc, #188]	; 1278c <OSMemCreate+0xf0>
   126cc:	e5938000 	ldr	r8, [r3]
   126d0:	e3580000 	cmp	r8, #0
   126d4:	0a00001f 	beq	12758 <OSMemCreate+0xbc>
   126d8:	e5982004 	ldr	r2, [r8, #4]
   126dc:	e1a0500a 	mov	r5, sl
   126e0:	e5832000 	str	r2, [r3]
   126e4:	ebfff956 	bl	10c44 <OS_CPU_SR_Restore>
   126e8:	e08a1007 	add	r1, sl, r7
   126ec:	e1a0c001 	mov	ip, r1
   126f0:	e24b2001 	sub	r2, fp, #1
   126f4:	e3a04000 	mov	r4, #0
   126f8:	ea000001 	b	12704 <OSMemCreate+0x68>
   126fc:	e1a0500c 	mov	r5, ip
   12700:	e1a0c006 	mov	ip, r6
   12704:	e2844001 	add	r4, r4, #1
   12708:	e1540002 	cmp	r4, r2
   1270c:	e585c000 	str	ip, [r5]
   12710:	e08c6007 	add	r6, ip, r7
   12714:	1afffff8 	bne	126fc <OSMemCreate+0x60>
   12718:	e24b2002 	sub	r2, fp, #2
   1271c:	e0020297 	mul	r2, r7, r2
   12720:	e3a03000 	mov	r3, #0
   12724:	e7813002 	str	r3, [r1, r2]
   12728:	e1a00008 	mov	r0, r8
   1272c:	e588a000 	str	sl, [r8]
   12730:	e588a004 	str	sl, [r8, #4]
   12734:	e588b010 	str	fp, [r8, #16]
   12738:	e588b00c 	str	fp, [r8, #12]
   1273c:	e5887008 	str	r7, [r8, #8]
   12740:	e5c93000 	strb	r3, [r9]
   12744:	e8bd8ff8 	pop	{r3, r4, r5, r6, r7, r8, r9, sl, fp, pc}
   12748:	e3a03070 	mov	r3, #112	; 0x70
   1274c:	e5c93000 	strb	r3, [r9]
   12750:	e3a00000 	mov	r0, #0
   12754:	e8bd8ff8 	pop	{r3, r4, r5, r6, r7, r8, r9, sl, fp, pc}
   12758:	ebfff939 	bl	10c44 <OS_CPU_SR_Restore>
   1275c:	e3a0306e 	mov	r3, #110	; 0x6e
   12760:	e1a00008 	mov	r0, r8
   12764:	e5c93000 	strb	r3, [r9]
   12768:	e8bd8ff8 	pop	{r3, r4, r5, r6, r7, r8, r9, sl, fp, pc}
   1276c:	e3a0306f 	mov	r3, #111	; 0x6f
   12770:	e5c93000 	strb	r3, [r9]
   12774:	e3a00000 	mov	r0, #0
   12778:	e8bd8ff8 	pop	{r3, r4, r5, r6, r7, r8, r9, sl, fp, pc}
   1277c:	e3a03076 	mov	r3, #118	; 0x76
   12780:	e1a0000a 	mov	r0, sl
   12784:	e5c93000 	strb	r3, [r9]
   12788:	e8bd8ff8 	pop	{r3, r4, r5, r6, r7, r8, r9, sl, fp, pc}
   1278c:	00016674 	andeq	r6, r1, r4, ror r6

00012790 <OSMemGet>:
   12790:	e92d40f8 	push	{r3, r4, r5, r6, r7, lr}
   12794:	e2504000 	subs	r4, r0, #0
   12798:	e1a07001 	mov	r7, r1
   1279c:	0a000012 	beq	127ec <OSMemGet+0x5c>
   127a0:	ebfff91f 	bl	10c24 <OS_CPU_SR_Save>
   127a4:	e5945010 	ldr	r5, [r4, #16]
   127a8:	e3550000 	cmp	r5, #0
   127ac:	0a000009 	beq	127d8 <OSMemGet+0x48>
   127b0:	e5946004 	ldr	r6, [r4, #4]
   127b4:	e2455001 	sub	r5, r5, #1
   127b8:	e5963000 	ldr	r3, [r6]
   127bc:	e5845010 	str	r5, [r4, #16]
   127c0:	e5843004 	str	r3, [r4, #4]
   127c4:	ebfff91e 	bl	10c44 <OS_CPU_SR_Restore>
   127c8:	e3a03000 	mov	r3, #0
   127cc:	e1a00006 	mov	r0, r6
   127d0:	e5c73000 	strb	r3, [r7]
   127d4:	e8bd80f8 	pop	{r3, r4, r5, r6, r7, pc}
   127d8:	ebfff919 	bl	10c44 <OS_CPU_SR_Restore>
   127dc:	e3a03071 	mov	r3, #113	; 0x71
   127e0:	e1a00005 	mov	r0, r5
   127e4:	e5c73000 	strb	r3, [r7]
   127e8:	e8bd80f8 	pop	{r3, r4, r5, r6, r7, pc}
   127ec:	e3a03074 	mov	r3, #116	; 0x74
   127f0:	e1a00004 	mov	r0, r4
   127f4:	e5c13000 	strb	r3, [r1]
   127f8:	e8bd80f8 	pop	{r3, r4, r5, r6, r7, pc}

000127fc <OSMemPut>:
   127fc:	e92d4038 	push	{r3, r4, r5, lr}
   12800:	e2504000 	subs	r4, r0, #0
   12804:	e1a05001 	mov	r5, r1
   12808:	0a00000b 	beq	1283c <OSMemPut+0x40>
   1280c:	e3510000 	cmp	r1, #0
   12810:	0a000007 	beq	12834 <OSMemPut+0x38>
   12814:	ebfff902 	bl	10c24 <OS_CPU_SR_Save>
   12818:	e5943010 	ldr	r3, [r4, #16]
   1281c:	e594200c 	ldr	r2, [r4, #12]
   12820:	e1530002 	cmp	r3, r2
   12824:	3a000006 	bcc	12844 <OSMemPut+0x48>
   12828:	ebfff905 	bl	10c44 <OS_CPU_SR_Restore>
   1282c:	e3a00072 	mov	r0, #114	; 0x72
   12830:	e8bd8038 	pop	{r3, r4, r5, pc}
   12834:	e3a00073 	mov	r0, #115	; 0x73
   12838:	e8bd8038 	pop	{r3, r4, r5, pc}
   1283c:	e3a00074 	mov	r0, #116	; 0x74
   12840:	e8bd8038 	pop	{r3, r4, r5, pc}
   12844:	e5942004 	ldr	r2, [r4, #4]
   12848:	e2833001 	add	r3, r3, #1
   1284c:	e5852000 	str	r2, [r5]
   12850:	e5843010 	str	r3, [r4, #16]
   12854:	e5845004 	str	r5, [r4, #4]
   12858:	ebfff8f9 	bl	10c44 <OS_CPU_SR_Restore>
   1285c:	e3a00000 	mov	r0, #0
   12860:	e8bd8038 	pop	{r3, r4, r5, pc}

00012864 <OSMemQuery>:
   12864:	e92d4038 	push	{r3, r4, r5, lr}
   12868:	e2505000 	subs	r5, r0, #0
   1286c:	e1a04001 	mov	r4, r1
   12870:	0a000014 	beq	128c8 <OSMemQuery+0x64>
   12874:	e3510000 	cmp	r1, #0
   12878:	0a000010 	beq	128c0 <OSMemQuery+0x5c>
   1287c:	ebfff8e8 	bl	10c24 <OS_CPU_SR_Save>
   12880:	e595e000 	ldr	lr, [r5]
   12884:	e595c004 	ldr	ip, [r5, #4]
   12888:	e2851008 	add	r1, r5, #8
   1288c:	e891000e 	ldm	r1, {r1, r2, r3}
   12890:	e584e000 	str	lr, [r4]
   12894:	e584200c 	str	r2, [r4, #12]
   12898:	e5843010 	str	r3, [r4, #16]
   1289c:	e584c004 	str	ip, [r4, #4]
   128a0:	e5841008 	str	r1, [r4, #8]
   128a4:	ebfff8e6 	bl	10c44 <OS_CPU_SR_Restore>
   128a8:	e594200c 	ldr	r2, [r4, #12]
   128ac:	e5943010 	ldr	r3, [r4, #16]
   128b0:	e3a00000 	mov	r0, #0
   128b4:	e0633002 	rsb	r3, r3, r2
   128b8:	e5843014 	str	r3, [r4, #20]
   128bc:	e8bd8038 	pop	{r3, r4, r5, pc}
   128c0:	e3a00075 	mov	r0, #117	; 0x75
   128c4:	e8bd8038 	pop	{r3, r4, r5, pc}
   128c8:	e3a00074 	mov	r0, #116	; 0x74
   128cc:	e8bd8038 	pop	{r3, r4, r5, pc}

000128d0 <OS_MemInit>:
   128d0:	e59f304c 	ldr	r3, [pc, #76]	; 12924 <OS_MemInit+0x54>
   128d4:	e3a02000 	mov	r2, #0
   128d8:	e2830050 	add	r0, r3, #80	; 0x50
   128dc:	e5032014 	str	r2, [r3, #-20]	; 0xffffffec
   128e0:	e5032004 	str	r2, [r3, #-4]
   128e4:	e5032008 	str	r2, [r3, #-8]
   128e8:	e503200c 	str	r2, [r3, #-12]
   128ec:	e5033010 	str	r3, [r3, #-16]
   128f0:	e2833014 	add	r3, r3, #20
   128f4:	e1530000 	cmp	r3, r0
   128f8:	e3a01000 	mov	r1, #0
   128fc:	1afffff6 	bne	128dc <OS_MemInit+0xc>
   12900:	e59f3020 	ldr	r3, [pc, #32]	; 12928 <OS_MemInit+0x58>
   12904:	e59f2020 	ldr	r2, [pc, #32]	; 1292c <OS_MemInit+0x5c>
   12908:	e5831054 	str	r1, [r3, #84]	; 0x54
   1290c:	e5831050 	str	r1, [r3, #80]	; 0x50
   12910:	e5831060 	str	r1, [r3, #96]	; 0x60
   12914:	e583105c 	str	r1, [r3, #92]	; 0x5c
   12918:	e5831058 	str	r1, [r3, #88]	; 0x58
   1291c:	e5823000 	str	r3, [r2]
   12920:	e12fff1e 	bx	lr
   12924:	00015e14 	andeq	r5, r1, r4, lsl lr
   12928:	00015e00 	andeq	r5, r1, r0, lsl #28
   1292c:	00016674 	andeq	r6, r1, r4, ror r6

00012930 <OSInit>:
   12930:	e92d4ff0 	push	{r4, r5, r6, r7, r8, r9, sl, fp, lr}
   12934:	e24dd01c 	sub	sp, sp, #28
   12938:	ebfff937 	bl	10e1c <OSInitHookBegin>
   1293c:	e59fe1f8 	ldr	lr, [pc, #504]	; 12b3c <OSInit+0x20c>
   12940:	e59fc1f8 	ldr	ip, [pc, #504]	; 12b40 <OSInit+0x210>
   12944:	e59f01f8 	ldr	r0, [pc, #504]	; 12b44 <OSInit+0x214>
   12948:	e59f21f8 	ldr	r2, [pc, #504]	; 12b48 <OSInit+0x218>
   1294c:	e59f31f8 	ldr	r3, [pc, #504]	; 12b4c <OSInit+0x21c>
   12950:	e3a01000 	mov	r1, #0
   12954:	e58e1000 	str	r1, [lr]
   12958:	e5cc1000 	strb	r1, [ip]
   1295c:	e5c01000 	strb	r1, [r0]
   12960:	e5c21000 	strb	r1, [r2]
   12964:	e59fb1e4 	ldr	fp, [pc, #484]	; 12b50 <OSInit+0x220>
   12968:	e59f21e4 	ldr	r2, [pc, #484]	; 12b54 <OSInit+0x224>
   1296c:	e59fa1e4 	ldr	sl, [pc, #484]	; 12b58 <OSInit+0x228>
   12970:	e59f91e4 	ldr	r9, [pc, #484]	; 12b5c <OSInit+0x22c>
   12974:	e59f81e4 	ldr	r8, [pc, #484]	; 12b60 <OSInit+0x230>
   12978:	e59f71e4 	ldr	r7, [pc, #484]	; 12b64 <OSInit+0x234>
   1297c:	e59f61e4 	ldr	r6, [pc, #484]	; 12b68 <OSInit+0x238>
   12980:	e59f51e4 	ldr	r5, [pc, #484]	; 12b6c <OSInit+0x23c>
   12984:	e59f41e4 	ldr	r4, [pc, #484]	; 12b70 <OSInit+0x240>
   12988:	e59fe1e4 	ldr	lr, [pc, #484]	; 12b74 <OSInit+0x244>
   1298c:	e59fc1e4 	ldr	ip, [pc, #484]	; 12b78 <OSInit+0x248>
   12990:	e59f01e4 	ldr	r0, [pc, #484]	; 12b7c <OSInit+0x24c>
   12994:	e5c31000 	strb	r1, [r3]
   12998:	e59f31e0 	ldr	r3, [pc, #480]	; 12b80 <OSInit+0x250>
   1299c:	e5c21000 	strb	r1, [r2]
   129a0:	e5c21001 	strb	r1, [r2, #1]
   129a4:	e5c21002 	strb	r1, [r2, #2]
   129a8:	e5c21003 	strb	r1, [r2, #3]
   129ac:	e5c21004 	strb	r1, [r2, #4]
   129b0:	e5c21005 	strb	r1, [r2, #5]
   129b4:	e5c21006 	strb	r1, [r2, #6]
   129b8:	e5c21007 	strb	r1, [r2, #7]
   129bc:	e58b1000 	str	r1, [fp]
   129c0:	e58a1000 	str	r1, [sl]
   129c4:	e5891000 	str	r1, [r9]
   129c8:	e5881000 	str	r1, [r8]
   129cc:	e5c71000 	strb	r1, [r7]
   129d0:	e5c61000 	strb	r1, [r6]
   129d4:	e5c51000 	strb	r1, [r5]
   129d8:	e5c41000 	strb	r1, [r4]
   129dc:	e58e1000 	str	r1, [lr]
   129e0:	e58c1000 	str	r1, [ip]
   129e4:	e5801000 	str	r1, [r0]
   129e8:	e2832c01 	add	r2, r3, #256	; 0x100
   129ec:	e5a31004 	str	r1, [r3, #4]!
   129f0:	e1530002 	cmp	r3, r2
   129f4:	1afffffc 	bne	129ec <OSInit+0xbc>
   129f8:	e59f2184 	ldr	r2, [pc, #388]	; 12b84 <OSInit+0x254>
   129fc:	e2823d0d 	add	r3, r2, #832	; 0x340
   12a00:	e5022020 	str	r2, [r2, #-32]	; 0xffffffe0
   12a04:	e2822034 	add	r2, r2, #52	; 0x34
   12a08:	e1520003 	cmp	r2, r3
   12a0c:	1afffffb 	bne	12a00 <OSInit+0xd0>
   12a10:	e59f0170 	ldr	r0, [pc, #368]	; 12b88 <OSInit+0x258>
   12a14:	e59f3170 	ldr	r3, [pc, #368]	; 12b8c <OSInit+0x25c>
   12a18:	e2422fdd 	sub	r2, r2, #884	; 0x374
   12a1c:	e3a01000 	mov	r1, #0
   12a20:	e5802000 	str	r2, [r0]
   12a24:	e5821354 	str	r1, [r2, #852]	; 0x354
   12a28:	e28320e0 	add	r2, r3, #224	; 0xe0
   12a2c:	e5431010 	strb	r1, [r3, #-16]
   12a30:	e503300c 	str	r3, [r3, #-12]
   12a34:	e2833010 	add	r3, r3, #16
   12a38:	e1530002 	cmp	r3, r2
   12a3c:	e3a04000 	mov	r4, #0
   12a40:	1afffff9 	bne	12a2c <OSInit+0xfc>
   12a44:	e59f2144 	ldr	r2, [pc, #324]	; 12b90 <OSInit+0x260>
   12a48:	e59fc144 	ldr	ip, [pc, #324]	; 12b94 <OSInit+0x264>
   12a4c:	e1a01002 	mov	r1, r2
   12a50:	e2826018 	add	r6, r2, #24
   12a54:	e2825024 	add	r5, r2, #36	; 0x24
   12a58:	e282e030 	add	lr, r2, #48	; 0x30
   12a5c:	e4c1400c 	strb	r4, [r1], #12
   12a60:	e59f7130 	ldr	r7, [pc, #304]	; 12b98 <OSInit+0x268>
   12a64:	e5434010 	strb	r4, [r3, #-16]
   12a68:	e503400c 	str	r4, [r3, #-12]
   12a6c:	e5c2400c 	strb	r4, [r2, #12]
   12a70:	e24330f0 	sub	r3, r3, #240	; 0xf0
   12a74:	e5c24018 	strb	r4, [r2, #24]
   12a78:	e5c24024 	strb	r4, [r2, #36]	; 0x24
   12a7c:	e5824034 	str	r4, [r2, #52]	; 0x34
   12a80:	e5826010 	str	r6, [r2, #16]
   12a84:	e582501c 	str	r5, [r2, #28]
   12a88:	e582e028 	str	lr, [r2, #40]	; 0x28
   12a8c:	e5821004 	str	r1, [r2, #4]
   12a90:	e59f0104 	ldr	r0, [pc, #260]	; 12b9c <OSInit+0x26c>
   12a94:	e5873000 	str	r3, [r7]
   12a98:	e58c2000 	str	r2, [ip]
   12a9c:	ebfff63a 	bl	1038c <uart_string>
   12aa0:	ebffff8a 	bl	128d0 <OS_MemInit>
   12aa4:	e59fc0f4 	ldr	ip, [pc, #244]	; 12ba0 <OSInit+0x270>
   12aa8:	e59f20f4 	ldr	r2, [pc, #244]	; 12ba4 <OSInit+0x274>
   12aac:	e28c1018 	add	r1, ip, #24
   12ab0:	e1a0e00c 	mov	lr, ip
   12ab4:	e59f30ec 	ldr	r3, [pc, #236]	; 12ba8 <OSInit+0x278>
   12ab8:	e59f70ec 	ldr	r7, [pc, #236]	; 12bac <OSInit+0x27c>
   12abc:	e58d400c 	str	r4, [sp, #12]
   12ac0:	e28c9048 	add	r9, ip, #72	; 0x48
   12ac4:	e48e1030 	str	r1, [lr], #48	; 0x30
   12ac8:	e28c8060 	add	r8, ip, #96	; 0x60
   12acc:	e3a06c02 	mov	r6, #512	; 0x200
   12ad0:	e3a05003 	mov	r5, #3
   12ad4:	e88d004c 	stm	sp, {r2, r3, r6}
   12ad8:	e58d5010 	str	r5, [sp, #16]
   12adc:	e1a01004 	mov	r1, r4
   12ae0:	e58c4060 	str	r4, [ip, #96]	; 0x60
   12ae4:	e58c9030 	str	r9, [ip, #48]	; 0x30
   12ae8:	e58c8048 	str	r8, [ip, #72]	; 0x48
   12aec:	e587c000 	str	ip, [r7]
   12af0:	e58ce018 	str	lr, [ip, #24]
   12af4:	e59f20b4 	ldr	r2, [pc, #180]	; 12bb0 <OSInit+0x280>
   12af8:	e3a0303f 	mov	r3, #63	; 0x3f
   12afc:	e59f00b0 	ldr	r0, [pc, #176]	; 12bb4 <OSInit+0x284>
   12b00:	ebfffb40 	bl	11808 <OSTaskCreateExt.part.0>
   12b04:	e59f20ac 	ldr	r2, [pc, #172]	; 12bb8 <OSInit+0x288>
   12b08:	e59f30ac 	ldr	r3, [pc, #172]	; 12bbc <OSInit+0x28c>
   12b0c:	e58d6008 	str	r6, [sp, #8]
   12b10:	e88d000c 	stm	sp, {r2, r3}
   12b14:	e58d5010 	str	r5, [sp, #16]
   12b18:	e58d400c 	str	r4, [sp, #12]
   12b1c:	e1a01004 	mov	r1, r4
   12b20:	e59f2098 	ldr	r2, [pc, #152]	; 12bc0 <OSInit+0x290>
   12b24:	e3a0303e 	mov	r3, #62	; 0x3e
   12b28:	e59f0094 	ldr	r0, [pc, #148]	; 12bc4 <OSInit+0x294>
   12b2c:	ebfffb35 	bl	11808 <OSTaskCreateExt.part.0>
   12b30:	e28dd01c 	add	sp, sp, #28
   12b34:	e8bd4ff0 	pop	{r4, r5, r6, r7, r8, r9, sl, fp, lr}
   12b38:	eafff8b8 	b	10e20 <OSInitHookEnd>
   12b3c:	00016710 	andeq	r6, r1, r0, lsl r7
   12b40:	00016709 	andeq	r6, r1, r9, lsl #14
   12b44:	00015db0 			; <UNDEFINED> instruction: 0x00015db0
   12b48:	00016671 	andeq	r6, r1, r1, ror r6
   12b4c:	00015db1 			; <UNDEFINED> instruction: 0x00015db1
   12b50:	00016664 	andeq	r6, r1, r4, ror #12
   12b54:	000166fc 	strdeq	r6, [r1], -ip
   12b58:	00015db4 			; <UNDEFINED> instruction: 0x00015db4
   12b5c:	00017480 	andeq	r7, r1, r0, lsl #9
   12b60:	00016668 	andeq	r6, r1, r8, ror #12
   12b64:	0001737c 	andeq	r7, r1, ip, ror r3
   12b68:	000166f8 	strdeq	r6, [r1], -r8
   12b6c:	00015df8 	strdeq	r5, [r1], -r8
   12b70:	00015db8 			; <UNDEFINED> instruction: 0x00015db8
   12b74:	000166f0 	strdeq	r6, [r1], -r0
   12b78:	0001670c 	andeq	r6, r1, ip, lsl #14
   12b7c:	00015dfc 	strdeq	r5, [r1], -ip
   12b80:	0001737c 	andeq	r7, r1, ip, ror r3
   12b84:	00017038 	andeq	r7, r1, r8, lsr r0
   12b88:	0001666c 	andeq	r6, r1, ip, ror #12
   12b8c:	00016f24 	andeq	r6, r1, r4, lsr #30
   12b90:	00015dbc 			; <UNDEFINED> instruction: 0x00015dbc
   12b94:	00017378 	andeq	r7, r1, r8, ror r3
   12b98:	00016704 	andeq	r6, r1, r4, lsl #14
   12b9c:	00014dd4 	ldrdeq	r4, [r1], -r4	; <UNPREDICTABLE>
   12ba0:	00016678 	andeq	r6, r1, r8, ror r6
   12ba4:	0000ffff 	strdeq	pc, [r0], -pc	; <UNPREDICTABLE>
   12ba8:	00016714 	andeq	r6, r1, r4, lsl r7
   12bac:	000166f4 	strdeq	r6, [r1], -r4
   12bb0:	00016f10 	andeq	r6, r1, r0, lsl pc
   12bb4:	00010f6c 	andeq	r0, r1, ip, ror #30
   12bb8:	0000fffe 	strdeq	pc, [r0], -lr
   12bbc:	00015e64 	andeq	r5, r1, r4, ror #28
   12bc0:	00016660 	andeq	r6, r1, r0, ror #12
   12bc4:	00011608 	andeq	r1, r1, r8, lsl #12

00012bc8 <OSMutexAccept>:
   12bc8:	e92d4070 	push	{r4, r5, r6, lr}
   12bcc:	e59f30a4 	ldr	r3, [pc, #164]	; 12c78 <OSMutexAccept+0xb0>
   12bd0:	e1a05000 	mov	r5, r0
   12bd4:	e5d34000 	ldrb	r4, [r3]
   12bd8:	e1a06001 	mov	r6, r1
   12bdc:	e3540000 	cmp	r4, #0
   12be0:	1a000008 	bne	12c08 <OSMutexAccept+0x40>
   12be4:	e3500000 	cmp	r0, #0
   12be8:	0a000013 	beq	12c3c <OSMutexAccept+0x74>
   12bec:	e5d03000 	ldrb	r3, [r0]
   12bf0:	e3530004 	cmp	r3, #4
   12bf4:	0a000007 	beq	12c18 <OSMutexAccept+0x50>
   12bf8:	e3a03001 	mov	r3, #1
   12bfc:	e1a00004 	mov	r0, r4
   12c00:	e5c13000 	strb	r3, [r1]
   12c04:	e8bd8070 	pop	{r4, r5, r6, pc}
   12c08:	e3a03002 	mov	r3, #2
   12c0c:	e5c13000 	strb	r3, [r1]
   12c10:	e3a00000 	mov	r0, #0
   12c14:	e8bd8070 	pop	{r4, r5, r6, pc}
   12c18:	ebfff801 	bl	10c24 <OS_CPU_SR_Save>
   12c1c:	e1d530b2 	ldrh	r3, [r5, #2]
   12c20:	e6ef2073 	uxtb	r2, r3
   12c24:	e35200ff 	cmp	r2, #255	; 0xff
   12c28:	0a000006 	beq	12c48 <OSMutexAccept+0x80>
   12c2c:	ebfff804 	bl	10c44 <OS_CPU_SR_Restore>
   12c30:	e5c64000 	strb	r4, [r6]
   12c34:	e1a00004 	mov	r0, r4
   12c38:	e8bd8070 	pop	{r4, r5, r6, pc}
   12c3c:	e3a03004 	mov	r3, #4
   12c40:	e5c13000 	strb	r3, [r1]
   12c44:	e8bd8070 	pop	{r4, r5, r6, pc}
   12c48:	e59f202c 	ldr	r2, [pc, #44]	; 12c7c <OSMutexAccept+0xb4>
   12c4c:	e2033cff 	and	r3, r3, #65280	; 0xff00
   12c50:	e5922000 	ldr	r2, [r2]
   12c54:	e1c530b2 	strh	r3, [r5, #2]
   12c58:	e5d2102d 	ldrb	r1, [r2, #45]	; 0x2d
   12c5c:	e5852004 	str	r2, [r5, #4]
   12c60:	e1833001 	orr	r3, r3, r1
   12c64:	e1c530b2 	strh	r3, [r5, #2]
   12c68:	ebfff7f5 	bl	10c44 <OS_CPU_SR_Restore>
   12c6c:	e5c64000 	strb	r4, [r6]
   12c70:	e3a00001 	mov	r0, #1
   12c74:	e8bd8070 	pop	{r4, r5, r6, pc}
   12c78:	00016709 	andeq	r6, r1, r9, lsl #14
   12c7c:	0001670c 	andeq	r6, r1, ip, lsl #14

00012c80 <OSMutexCreate>:
   12c80:	e92d40f8 	push	{r3, r4, r5, r6, r7, lr}
   12c84:	e59f30e4 	ldr	r3, [pc, #228]	; 12d70 <OSMutexCreate+0xf0>
   12c88:	e1a06000 	mov	r6, r0
   12c8c:	e5d34000 	ldrb	r4, [r3]
   12c90:	e1a07001 	mov	r7, r1
   12c94:	e3540000 	cmp	r4, #0
   12c98:	1a00002a 	bne	12d48 <OSMutexCreate+0xc8>
   12c9c:	e350003e 	cmp	r0, #62	; 0x3e
   12ca0:	8a00001f 	bhi	12d24 <OSMutexCreate+0xa4>
   12ca4:	ebfff7de 	bl	10c24 <OS_CPU_SR_Save>
   12ca8:	e59f30c4 	ldr	r3, [pc, #196]	; 12d74 <OSMutexCreate+0xf4>
   12cac:	e7935106 	ldr	r5, [r3, r6, lsl #2]
   12cb0:	e3550000 	cmp	r5, #0
   12cb4:	1a00001e 	bne	12d34 <OSMutexCreate+0xb4>
   12cb8:	e59f20b8 	ldr	r2, [pc, #184]	; 12d78 <OSMutexCreate+0xf8>
   12cbc:	e3a01001 	mov	r1, #1
   12cc0:	e5924000 	ldr	r4, [r2]
   12cc4:	e7831106 	str	r1, [r3, r6, lsl #2]
   12cc8:	e3540000 	cmp	r4, #0
   12ccc:	0a000021 	beq	12d58 <OSMutexCreate+0xd8>
   12cd0:	e5943004 	ldr	r3, [r4, #4]
   12cd4:	e1a06406 	lsl	r6, r6, #8
   12cd8:	e5823000 	str	r3, [r2]
   12cdc:	e38660ff 	orr	r6, r6, #255	; 0xff
   12ce0:	ebfff7d7 	bl	10c44 <OS_CPU_SR_Restore>
   12ce4:	e3a03004 	mov	r3, #4
   12ce8:	e1c460b2 	strh	r6, [r4, #2]
   12cec:	e5845004 	str	r5, [r4, #4]
   12cf0:	e5c45001 	strb	r5, [r4, #1]
   12cf4:	e5c45008 	strb	r5, [r4, #8]
   12cf8:	e5c45009 	strb	r5, [r4, #9]
   12cfc:	e5c4500a 	strb	r5, [r4, #10]
   12d00:	e5c4500b 	strb	r5, [r4, #11]
   12d04:	e5c4500c 	strb	r5, [r4, #12]
   12d08:	e5c4500d 	strb	r5, [r4, #13]
   12d0c:	e5c4500e 	strb	r5, [r4, #14]
   12d10:	e5c4500f 	strb	r5, [r4, #15]
   12d14:	e5c43000 	strb	r3, [r4]
   12d18:	e1a00004 	mov	r0, r4
   12d1c:	e5c75000 	strb	r5, [r7]
   12d20:	e8bd80f8 	pop	{r3, r4, r5, r6, r7, pc}
   12d24:	e3a0302a 	mov	r3, #42	; 0x2a
   12d28:	e1a00004 	mov	r0, r4
   12d2c:	e5c13000 	strb	r3, [r1]
   12d30:	e8bd80f8 	pop	{r3, r4, r5, r6, r7, pc}
   12d34:	ebfff7c2 	bl	10c44 <OS_CPU_SR_Restore>
   12d38:	e3a03028 	mov	r3, #40	; 0x28
   12d3c:	e1a00004 	mov	r0, r4
   12d40:	e5c73000 	strb	r3, [r7]
   12d44:	e8bd80f8 	pop	{r3, r4, r5, r6, r7, pc}
   12d48:	e3e03072 	mvn	r3, #114	; 0x72
   12d4c:	e5c13000 	strb	r3, [r1]
   12d50:	e3a00000 	mov	r0, #0
   12d54:	e8bd80f8 	pop	{r3, r4, r5, r6, r7, pc}
   12d58:	e7834106 	str	r4, [r3, r6, lsl #2]
   12d5c:	ebfff7b8 	bl	10c44 <OS_CPU_SR_Restore>
   12d60:	e3a03004 	mov	r3, #4
   12d64:	e1a00004 	mov	r0, r4
   12d68:	e5c73000 	strb	r3, [r7]
   12d6c:	e8bd80f8 	pop	{r3, r4, r5, r6, r7, pc}
   12d70:	00016709 	andeq	r6, r1, r9, lsl #14
   12d74:	00017380 	andeq	r7, r1, r0, lsl #7
   12d78:	00016704 	andeq	r6, r1, r4, lsl #14

00012d7c <OSMutexDel>:
   12d7c:	e92d40f0 	push	{r4, r5, r6, r7, lr}
   12d80:	e59f3158 	ldr	r3, [pc, #344]	; 12ee0 <OSMutexDel+0x164>
   12d84:	e24dd00c 	sub	sp, sp, #12
   12d88:	e5d33000 	ldrb	r3, [r3]
   12d8c:	e1a04000 	mov	r4, r0
   12d90:	e3530000 	cmp	r3, #0
   12d94:	e1a05002 	mov	r5, r2
   12d98:	1a00000c 	bne	12dd0 <OSMutexDel+0x54>
   12d9c:	e3500000 	cmp	r0, #0
   12da0:	03a03004 	moveq	r3, #4
   12da4:	01a00000 	moveq	r0, r0
   12da8:	05c23000 	strbeq	r3, [r2]
   12dac:	0a000005 	beq	12dc8 <OSMutexDel+0x4c>
   12db0:	e5d43000 	ldrb	r3, [r4]
   12db4:	e3530004 	cmp	r3, #4
   12db8:	0a000008 	beq	12de0 <OSMutexDel+0x64>
   12dbc:	e3a03001 	mov	r3, #1
   12dc0:	e1a00004 	mov	r0, r4
   12dc4:	e5c23000 	strb	r3, [r2]
   12dc8:	e28dd00c 	add	sp, sp, #12
   12dcc:	e8bd80f0 	pop	{r4, r5, r6, r7, pc}
   12dd0:	e3e03073 	mvn	r3, #115	; 0x73
   12dd4:	e5c23000 	strb	r3, [r2]
   12dd8:	e28dd00c 	add	sp, sp, #12
   12ddc:	e8bd80f0 	pop	{r4, r5, r6, r7, pc}
   12de0:	e58d1004 	str	r1, [sp, #4]
   12de4:	ebfff78e 	bl	10c24 <OS_CPU_SR_Save>
   12de8:	e5d46001 	ldrb	r6, [r4, #1]
   12dec:	e59d1004 	ldr	r1, [sp, #4]
   12df0:	e2966000 	adds	r6, r6, #0
   12df4:	13a06001 	movne	r6, #1
   12df8:	e3510000 	cmp	r1, #0
   12dfc:	e1a07000 	mov	r7, r0
   12e00:	0a000020 	beq	12e88 <OSMutexDel+0x10c>
   12e04:	e3510001 	cmp	r1, #1
   12e08:	1a000019 	bne	12e74 <OSMutexDel+0xf8>
   12e0c:	e3560000 	cmp	r6, #0
   12e10:	0a000006 	beq	12e30 <OSMutexDel+0xb4>
   12e14:	e1a00004 	mov	r0, r4
   12e18:	e3a01000 	mov	r1, #0
   12e1c:	e3a02010 	mov	r2, #16
   12e20:	ebfff913 	bl	11274 <OS_EventTaskRdy>
   12e24:	e5d43001 	ldrb	r3, [r4, #1]
   12e28:	e3530000 	cmp	r3, #0
   12e2c:	1afffff8 	bne	12e14 <OSMutexDel+0x98>
   12e30:	e1d400b2 	ldrh	r0, [r4, #2]
   12e34:	e59f10a8 	ldr	r1, [pc, #168]	; 12ee4 <OSMutexDel+0x168>
   12e38:	e3a02000 	mov	r2, #0
   12e3c:	e59f30a4 	ldr	r3, [pc, #164]	; 12ee8 <OSMutexDel+0x16c>
   12e40:	e1a00420 	lsr	r0, r0, #8
   12e44:	e7812100 	str	r2, [r1, r0, lsl #2]
   12e48:	e5c42000 	strb	r2, [r4]
   12e4c:	e5932000 	ldr	r2, [r3]
   12e50:	e1a00007 	mov	r0, r7
   12e54:	e5842004 	str	r2, [r4, #4]
   12e58:	e5834000 	str	r4, [r3]
   12e5c:	ebfff778 	bl	10c44 <OS_CPU_SR_Restore>
   12e60:	e3560001 	cmp	r6, #1
   12e64:	0a00000e 	beq	12ea4 <OSMutexDel+0x128>
   12e68:	e3a00000 	mov	r0, #0
   12e6c:	e5c50000 	strb	r0, [r5]
   12e70:	eaffffd4 	b	12dc8 <OSMutexDel+0x4c>
   12e74:	ebfff772 	bl	10c44 <OS_CPU_SR_Restore>
   12e78:	e3a03007 	mov	r3, #7
   12e7c:	e1a00004 	mov	r0, r4
   12e80:	e5c53000 	strb	r3, [r5]
   12e84:	eaffffcf 	b	12dc8 <OSMutexDel+0x4c>
   12e88:	e3560000 	cmp	r6, #0
   12e8c:	0a000006 	beq	12eac <OSMutexDel+0x130>
   12e90:	ebfff76b 	bl	10c44 <OS_CPU_SR_Restore>
   12e94:	e3a03008 	mov	r3, #8
   12e98:	e1a00004 	mov	r0, r4
   12e9c:	e5c53000 	strb	r3, [r5]
   12ea0:	eaffffc8 	b	12dc8 <OSMutexDel+0x4c>
   12ea4:	ebfff958 	bl	1140c <OS_Sched>
   12ea8:	eaffffee 	b	12e68 <OSMutexDel+0xec>
   12eac:	e1d410b2 	ldrh	r1, [r4, #2]
   12eb0:	e59f202c 	ldr	r2, [pc, #44]	; 12ee4 <OSMutexDel+0x168>
   12eb4:	e59f302c 	ldr	r3, [pc, #44]	; 12ee8 <OSMutexDel+0x16c>
   12eb8:	e1a01421 	lsr	r1, r1, #8
   12ebc:	e7826101 	str	r6, [r2, r1, lsl #2]
   12ec0:	e5c46000 	strb	r6, [r4]
   12ec4:	e5932000 	ldr	r2, [r3]
   12ec8:	e5834000 	str	r4, [r3]
   12ecc:	e5842004 	str	r2, [r4, #4]
   12ed0:	ebfff75b 	bl	10c44 <OS_CPU_SR_Restore>
   12ed4:	e5c56000 	strb	r6, [r5]
   12ed8:	e1a00006 	mov	r0, r6
   12edc:	eaffffb9 	b	12dc8 <OSMutexDel+0x4c>
   12ee0:	00016709 	andeq	r6, r1, r9, lsl #14
   12ee4:	00017380 	andeq	r7, r1, r0, lsl #7
   12ee8:	00016704 	andeq	r6, r1, r4, lsl #14

00012eec <OSMutexPend>:
   12eec:	e92d4ff0 	push	{r4, r5, r6, r7, r8, r9, sl, fp, lr}
   12ef0:	e59f3208 	ldr	r3, [pc, #520]	; 13100 <OSMutexPend+0x214>
   12ef4:	e24dd01c 	sub	sp, sp, #28
   12ef8:	e5d36000 	ldrb	r6, [r3]
   12efc:	e1a04000 	mov	r4, r0
   12f00:	e3560000 	cmp	r6, #0
   12f04:	13a03002 	movne	r3, #2
   12f08:	e1a05002 	mov	r5, r2
   12f0c:	15c23000 	strbne	r3, [r2]
   12f10:	1a000008 	bne	12f38 <OSMutexPend+0x4c>
   12f14:	e3500000 	cmp	r0, #0
   12f18:	03a03004 	moveq	r3, #4
   12f1c:	05c23000 	strbeq	r3, [r2]
   12f20:	0a000004 	beq	12f38 <OSMutexPend+0x4c>
   12f24:	e5d03000 	ldrb	r3, [r0]
   12f28:	e3530004 	cmp	r3, #4
   12f2c:	0a000003 	beq	12f40 <OSMutexPend+0x54>
   12f30:	e3a03001 	mov	r3, #1
   12f34:	e5c23000 	strb	r3, [r2]
   12f38:	e28dd01c 	add	sp, sp, #28
   12f3c:	e8bd8ff0 	pop	{r4, r5, r6, r7, r8, r9, sl, fp, pc}
   12f40:	e58d100c 	str	r1, [sp, #12]
   12f44:	ebfff736 	bl	10c24 <OS_CPU_SR_Save>
   12f48:	e1d420b2 	ldrh	r2, [r4, #2]
   12f4c:	e1a07000 	mov	r7, r0
   12f50:	e6efe072 	uxtb	lr, r2
   12f54:	e35e00ff 	cmp	lr, #255	; 0xff
   12f58:	e59d100c 	ldr	r1, [sp, #12]
   12f5c:	0a000058 	beq	130c4 <OSMutexPend+0x1d8>
   12f60:	e5943004 	ldr	r3, [r4, #4]
   12f64:	e1a02422 	lsr	r2, r2, #8
   12f68:	e5d3002d 	ldrb	r0, [r3, #45]	; 0x2d
   12f6c:	e59f6190 	ldr	r6, [pc, #400]	; 13104 <OSMutexPend+0x218>
   12f70:	e1500002 	cmp	r0, r2
   12f74:	e596c000 	ldr	ip, [r6]
   12f78:	0a000029 	beq	13024 <OSMutexPend+0x138>
   12f7c:	e5dc002d 	ldrb	r0, [ip, #45]	; 0x2d
   12f80:	e150000e 	cmp	r0, lr
   12f84:	2a000026 	bcs	13024 <OSMutexPend+0x138>
   12f88:	e5d3e02f 	ldrb	lr, [r3, #47]	; 0x2f
   12f8c:	e59f0174 	ldr	r0, [pc, #372]	; 13108 <OSMutexPend+0x21c>
   12f90:	e5d39030 	ldrb	r9, [r3, #48]	; 0x30
   12f94:	e7d0800e 	ldrb	r8, [r0, lr]
   12f98:	e1180009 	tst	r8, r9
   12f9c:	0a00003b 	beq	13090 <OSMutexPend+0x1a4>
   12fa0:	e1c88009 	bic	r8, r8, r9
   12fa4:	e3580000 	cmp	r8, #0
   12fa8:	e7c0800e 	strb	r8, [r0, lr]
   12fac:	1a00004f 	bne	130f0 <OSMutexPend+0x204>
   12fb0:	e59f8154 	ldr	r8, [pc, #340]	; 1310c <OSMutexPend+0x220>
   12fb4:	e5d3b031 	ldrb	fp, [r3, #49]	; 0x31
   12fb8:	e5d8e000 	ldrb	lr, [r8]
   12fbc:	e58d8014 	str	r8, [sp, #20]
   12fc0:	e1ceb00b 	bic	fp, lr, fp
   12fc4:	e59f8144 	ldr	r8, [pc, #324]	; 13110 <OSMutexPend+0x224>
   12fc8:	e1a0e1a2 	lsr	lr, r2, #3
   12fcc:	e202a007 	and	sl, r2, #7
   12fd0:	e088900e 	add	r9, r8, lr
   12fd4:	e088800a 	add	r8, r8, sl
   12fd8:	e5d88100 	ldrb	r8, [r8, #256]	; 0x100
   12fdc:	e58da010 	str	sl, [sp, #16]
   12fe0:	e7d0a00e 	ldrb	sl, [r0, lr]
   12fe4:	e5d99100 	ldrb	r9, [r9, #256]	; 0x100
   12fe8:	e188a00a 	orr	sl, r8, sl
   12fec:	e58da004 	str	sl, [sp, #4]
   12ff0:	e59da014 	ldr	sl, [sp, #20]
   12ff4:	e18bb009 	orr	fp, fp, r9
   12ff8:	e5cab000 	strb	fp, [sl]
   12ffc:	e5c38030 	strb	r8, [r3, #48]	; 0x30
   13000:	e59db010 	ldr	fp, [sp, #16]
   13004:	e59d8004 	ldr	r8, [sp, #4]
   13008:	e5c3202d 	strb	r2, [r3, #45]	; 0x2d
   1300c:	e5c3e02f 	strb	lr, [r3, #47]	; 0x2f
   13010:	e5c39031 	strb	r9, [r3, #49]	; 0x31
   13014:	e5c3b02e 	strb	fp, [r3, #46]	; 0x2e
   13018:	e7c0800e 	strb	r8, [r0, lr]
   1301c:	e59f00f0 	ldr	r0, [pc, #240]	; 13114 <OSMutexPend+0x228>
   13020:	e7803102 	str	r3, [r0, r2, lsl #2]
   13024:	e5dc302c 	ldrb	r3, [ip, #44]	; 0x2c
   13028:	e1cc12ba 	strh	r1, [ip, #42]	; 0x2a
   1302c:	e3833010 	orr	r3, r3, #16
   13030:	e5cc302c 	strb	r3, [ip, #44]	; 0x2c
   13034:	e1a00004 	mov	r0, r4
   13038:	ebfff8b9 	bl	11324 <OS_EventTaskWait>
   1303c:	e1a00007 	mov	r0, r7
   13040:	ebfff6ff 	bl	10c44 <OS_CPU_SR_Restore>
   13044:	ebfff8f0 	bl	1140c <OS_Sched>
   13048:	ebfff6f5 	bl	10c24 <OS_CPU_SR_Save>
   1304c:	e5962000 	ldr	r2, [r6]
   13050:	e1a07000 	mov	r7, r0
   13054:	e5d2302c 	ldrb	r3, [r2, #44]	; 0x2c
   13058:	e2033010 	and	r3, r3, #16
   1305c:	e21360ff 	ands	r6, r3, #255	; 0xff
   13060:	1a000003 	bne	13074 <OSMutexPend+0x188>
   13064:	e582601c 	str	r6, [r2, #28]
   13068:	ebfff6f5 	bl	10c44 <OS_CPU_SR_Restore>
   1306c:	e5c56000 	strb	r6, [r5]
   13070:	eaffffb0 	b	12f38 <OSMutexPend+0x4c>
   13074:	e1a00004 	mov	r0, r4
   13078:	ebfff8c6 	bl	11398 <OS_EventTO>
   1307c:	e1a00007 	mov	r0, r7
   13080:	ebfff6ef 	bl	10c44 <OS_CPU_SR_Restore>
   13084:	e3a0300a 	mov	r3, #10
   13088:	e5c53000 	strb	r3, [r5]
   1308c:	eaffffa9 	b	12f38 <OSMutexPend+0x4c>
   13090:	e59f8078 	ldr	r8, [pc, #120]	; 13110 <OSMutexPend+0x224>
   13094:	e1a0e1a2 	lsr	lr, r2, #3
   13098:	e2020007 	and	r0, r2, #7
   1309c:	e088900e 	add	r9, r8, lr
   130a0:	e0888000 	add	r8, r8, r0
   130a4:	e5d99100 	ldrb	r9, [r9, #256]	; 0x100
   130a8:	e5d88100 	ldrb	r8, [r8, #256]	; 0x100
   130ac:	e5c3202d 	strb	r2, [r3, #45]	; 0x2d
   130b0:	e5c3e02f 	strb	lr, [r3, #47]	; 0x2f
   130b4:	e5c39031 	strb	r9, [r3, #49]	; 0x31
   130b8:	e5c38030 	strb	r8, [r3, #48]	; 0x30
   130bc:	e5c3002e 	strb	r0, [r3, #46]	; 0x2e
   130c0:	eaffffd5 	b	1301c <OSMutexPend+0x130>
   130c4:	e59f3038 	ldr	r3, [pc, #56]	; 13104 <OSMutexPend+0x218>
   130c8:	e2022cff 	and	r2, r2, #65280	; 0xff00
   130cc:	e5933000 	ldr	r3, [r3]
   130d0:	e1c420b2 	strh	r2, [r4, #2]
   130d4:	e5d3102d 	ldrb	r1, [r3, #45]	; 0x2d
   130d8:	e5843004 	str	r3, [r4, #4]
   130dc:	e1822001 	orr	r2, r2, r1
   130e0:	e1c420b2 	strh	r2, [r4, #2]
   130e4:	ebfff6d6 	bl	10c44 <OS_CPU_SR_Restore>
   130e8:	e5c56000 	strb	r6, [r5]
   130ec:	eaffff91 	b	12f38 <OSMutexPend+0x4c>
   130f0:	e59f9014 	ldr	r9, [pc, #20]	; 1310c <OSMutexPend+0x220>
   130f4:	e58d9014 	str	r9, [sp, #20]
   130f8:	e5d9b000 	ldrb	fp, [r9]
   130fc:	eaffffb0 	b	12fc4 <OSMutexPend+0xd8>
   13100:	00016709 	andeq	r6, r1, r9, lsl #14
   13104:	0001670c 	andeq	r6, r1, ip, lsl #14
   13108:	000166fc 	strdeq	r6, [r1], -ip
   1310c:	000166f8 	strdeq	r6, [r1], -r8
   13110:	00014de0 	andeq	r4, r1, r0, ror #27
   13114:	00017380 	andeq	r7, r1, r0, lsl #7

00013118 <OSMutexPost>:
   13118:	e92d4ff8 	push	{r3, r4, r5, r6, r7, r8, r9, sl, fp, lr}
   1311c:	e59f3168 	ldr	r3, [pc, #360]	; 1328c <OSMutexPost+0x174>
   13120:	e1a04000 	mov	r4, r0
   13124:	e5d33000 	ldrb	r3, [r3]
   13128:	e3530000 	cmp	r3, #0
   1312c:	0a000001 	beq	13138 <OSMutexPost+0x20>
   13130:	e3a00005 	mov	r0, #5
   13134:	e8bd8ff8 	pop	{r3, r4, r5, r6, r7, r8, r9, sl, fp, pc}
   13138:	e3500000 	cmp	r0, #0
   1313c:	0a000004 	beq	13154 <OSMutexPost+0x3c>
   13140:	e5d03000 	ldrb	r3, [r0]
   13144:	e3530004 	cmp	r3, #4
   13148:	0a000003 	beq	1315c <OSMutexPost+0x44>
   1314c:	e3a00001 	mov	r0, #1
   13150:	e8bd8ff8 	pop	{r3, r4, r5, r6, r7, r8, r9, sl, fp, pc}
   13154:	e3a00004 	mov	r0, #4
   13158:	e8bd8ff8 	pop	{r3, r4, r5, r6, r7, r8, r9, sl, fp, pc}
   1315c:	ebfff6b0 	bl	10c24 <OS_CPU_SR_Save>
   13160:	e59f3128 	ldr	r3, [pc, #296]	; 13290 <OSMutexPost+0x178>
   13164:	e1d420b2 	ldrh	r2, [r4, #2]
   13168:	e5933000 	ldr	r3, [r3]
   1316c:	e1a0c422 	lsr	ip, r2, #8
   13170:	e5d3102d 	ldrb	r1, [r3, #45]	; 0x2d
   13174:	e1a06000 	mov	r6, r0
   13178:	e151000c 	cmp	r1, ip
   1317c:	e6ef2072 	uxtb	r2, r2
   13180:	0a000005 	beq	1319c <OSMutexPost+0x84>
   13184:	e1520001 	cmp	r2, r1
   13188:	059f1104 	ldreq	r1, [pc, #260]	; 13294 <OSMutexPost+0x17c>
   1318c:	0a000021 	beq	13218 <OSMutexPost+0x100>
   13190:	ebfff6ab 	bl	10c44 <OS_CPU_SR_Restore>
   13194:	e3a00078 	mov	r0, #120	; 0x78
   13198:	e8bd8ff8 	pop	{r3, r4, r5, r6, r7, r8, r9, sl, fp, pc}
   1319c:	e5d3102f 	ldrb	r1, [r3, #47]	; 0x2f
   131a0:	e59fe0f0 	ldr	lr, [pc, #240]	; 13298 <OSMutexPost+0x180>
   131a4:	e5d35030 	ldrb	r5, [r3, #48]	; 0x30
   131a8:	e7de0001 	ldrb	r0, [lr, r1]
   131ac:	e59f90e8 	ldr	r9, [pc, #232]	; 1329c <OSMutexPost+0x184>
   131b0:	e1c00005 	bic	r0, r0, r5
   131b4:	e3500000 	cmp	r0, #0
   131b8:	e7ce0001 	strb	r0, [lr, r1]
   131bc:	05d3a031 	ldrbeq	sl, [r3, #49]	; 0x31
   131c0:	05d91000 	ldrbeq	r1, [r9]
   131c4:	e1a001a2 	lsr	r0, r2, #3
   131c8:	01c1a00a 	biceq	sl, r1, sl
   131cc:	e59f10cc 	ldr	r1, [pc, #204]	; 132a0 <OSMutexPost+0x188>
   131d0:	e2025007 	and	r5, r2, #7
   131d4:	e0817000 	add	r7, r1, r0
   131d8:	e0811005 	add	r1, r1, r5
   131dc:	e5d78100 	ldrb	r8, [r7, #256]	; 0x100
   131e0:	15d9a000 	ldrbne	sl, [r9]
   131e4:	e5d17100 	ldrb	r7, [r1, #256]	; 0x100
   131e8:	e7deb000 	ldrb	fp, [lr, r0]
   131ec:	e59f10a0 	ldr	r1, [pc, #160]	; 13294 <OSMutexPost+0x17c>
   131f0:	e18aa008 	orr	sl, sl, r8
   131f4:	e187b00b 	orr	fp, r7, fp
   131f8:	e5c3202d 	strb	r2, [r3, #45]	; 0x2d
   131fc:	e5c3002f 	strb	r0, [r3, #47]	; 0x2f
   13200:	e5c38031 	strb	r8, [r3, #49]	; 0x31
   13204:	e5c37030 	strb	r7, [r3, #48]	; 0x30
   13208:	e5c3502e 	strb	r5, [r3, #46]	; 0x2e
   1320c:	e5c9a000 	strb	sl, [r9]
   13210:	e7ceb000 	strb	fp, [lr, r0]
   13214:	e7813102 	str	r3, [r1, r2, lsl #2]
   13218:	e3a03001 	mov	r3, #1
   1321c:	e781310c 	str	r3, [r1, ip, lsl #2]
   13220:	e5d45001 	ldrb	r5, [r4, #1]
   13224:	e59f7068 	ldr	r7, [pc, #104]	; 13294 <OSMutexPost+0x17c>
   13228:	e3550000 	cmp	r5, #0
   1322c:	1a000007 	bne	13250 <OSMutexPost+0x138>
   13230:	e1d430b2 	ldrh	r3, [r4, #2]
   13234:	e5845004 	str	r5, [r4, #4]
   13238:	e38330ff 	orr	r3, r3, #255	; 0xff
   1323c:	e1a00006 	mov	r0, r6
   13240:	e1c430b2 	strh	r3, [r4, #2]
   13244:	ebfff67e 	bl	10c44 <OS_CPU_SR_Restore>
   13248:	e1a00005 	mov	r0, r5
   1324c:	e8bd8ff8 	pop	{r3, r4, r5, r6, r7, r8, r9, sl, fp, pc}
   13250:	e3a01000 	mov	r1, #0
   13254:	e1a00004 	mov	r0, r4
   13258:	e3a02010 	mov	r2, #16
   1325c:	ebfff804 	bl	11274 <OS_EventTaskRdy>
   13260:	e1d430b2 	ldrh	r3, [r4, #2]
   13264:	e7972100 	ldr	r2, [r7, r0, lsl #2]
   13268:	e3c330ff 	bic	r3, r3, #255	; 0xff
   1326c:	e1803003 	orr	r3, r0, r3
   13270:	e5842004 	str	r2, [r4, #4]
   13274:	e1c430b2 	strh	r3, [r4, #2]
   13278:	e1a00006 	mov	r0, r6
   1327c:	ebfff670 	bl	10c44 <OS_CPU_SR_Restore>
   13280:	ebfff861 	bl	1140c <OS_Sched>
   13284:	e3a00000 	mov	r0, #0
   13288:	e8bd8ff8 	pop	{r3, r4, r5, r6, r7, r8, r9, sl, fp, pc}
   1328c:	00016709 	andeq	r6, r1, r9, lsl #14
   13290:	0001670c 	andeq	r6, r1, ip, lsl #14
   13294:	00017380 	andeq	r7, r1, r0, lsl #7
   13298:	000166fc 	strdeq	r6, [r1], -ip
   1329c:	000166f8 	strdeq	r6, [r1], -r8
   132a0:	00014de0 	andeq	r4, r1, r0, ror #27

000132a4 <OSMutexQuery>:
   132a4:	e92d4030 	push	{r4, r5, lr}
   132a8:	e59f30bc 	ldr	r3, [pc, #188]	; 1336c <OSMutexQuery+0xc8>
   132ac:	e1a04000 	mov	r4, r0
   132b0:	e5d35000 	ldrb	r5, [r3]
   132b4:	e24dd00c 	sub	sp, sp, #12
   132b8:	e3550000 	cmp	r5, #0
   132bc:	13a00006 	movne	r0, #6
   132c0:	0a000001 	beq	132cc <OSMutexQuery+0x28>
   132c4:	e28dd00c 	add	sp, sp, #12
   132c8:	e8bd8030 	pop	{r4, r5, pc}
   132cc:	e3540000 	cmp	r4, #0
   132d0:	03a00004 	moveq	r0, #4
   132d4:	0afffffa 	beq	132c4 <OSMutexQuery+0x20>
   132d8:	e5d43000 	ldrb	r3, [r4]
   132dc:	e3530004 	cmp	r3, #4
   132e0:	13a00001 	movne	r0, #1
   132e4:	1afffff6 	bne	132c4 <OSMutexQuery+0x20>
   132e8:	e58d1004 	str	r1, [sp, #4]
   132ec:	ebfff64c 	bl	10c24 <OS_CPU_SR_Save>
   132f0:	e1d430b2 	ldrh	r3, [r4, #2]
   132f4:	e59d1004 	ldr	r1, [sp, #4]
   132f8:	e1a03423 	lsr	r3, r3, #8
   132fc:	e5c1300b 	strb	r3, [r1, #11]
   13300:	e5d43002 	ldrb	r3, [r4, #2]
   13304:	e35300ff 	cmp	r3, #255	; 0xff
   13308:	e5c1300a 	strb	r3, [r1, #10]
   1330c:	03a03001 	moveq	r3, #1
   13310:	05c13009 	strbeq	r3, [r1, #9]
   13314:	15c15009 	strbne	r5, [r1, #9]
   13318:	e5d43001 	ldrb	r3, [r4, #1]
   1331c:	e5c13008 	strb	r3, [r1, #8]
   13320:	e5d43008 	ldrb	r3, [r4, #8]
   13324:	e5c13000 	strb	r3, [r1]
   13328:	e5d43009 	ldrb	r3, [r4, #9]
   1332c:	e5c13001 	strb	r3, [r1, #1]
   13330:	e5d4300a 	ldrb	r3, [r4, #10]
   13334:	e5c13002 	strb	r3, [r1, #2]
   13338:	e5d4300b 	ldrb	r3, [r4, #11]
   1333c:	e5c13003 	strb	r3, [r1, #3]
   13340:	e5d4300c 	ldrb	r3, [r4, #12]
   13344:	e5c13004 	strb	r3, [r1, #4]
   13348:	e5d4300d 	ldrb	r3, [r4, #13]
   1334c:	e5c13005 	strb	r3, [r1, #5]
   13350:	e5d4300e 	ldrb	r3, [r4, #14]
   13354:	e5c13006 	strb	r3, [r1, #6]
   13358:	e5d4300f 	ldrb	r3, [r4, #15]
   1335c:	e5c13007 	strb	r3, [r1, #7]
   13360:	ebfff637 	bl	10c44 <OS_CPU_SR_Restore>
   13364:	e3a00000 	mov	r0, #0
   13368:	eaffffd5 	b	132c4 <OSMutexQuery+0x20>
   1336c:	00016709 	andeq	r6, r1, r9, lsl #14

00013370 <OSQAccept>:
   13370:	e92d4010 	push	{r4, lr}
   13374:	e2504000 	subs	r4, r0, #0
   13378:	0a000016 	beq	133d8 <OSQAccept+0x68>
   1337c:	e5d43000 	ldrb	r3, [r4]
   13380:	e3530002 	cmp	r3, #2
   13384:	1a000011 	bne	133d0 <OSQAccept+0x60>
   13388:	ebfff625 	bl	10c24 <OS_CPU_SR_Save>
   1338c:	e5943004 	ldr	r3, [r4, #4]
   13390:	e1d341b6 	ldrh	r4, [r3, #22]
   13394:	e3540000 	cmp	r4, #0
   13398:	0a000009 	beq	133c4 <OSQAccept+0x54>
   1339c:	e5932010 	ldr	r2, [r3, #16]
   133a0:	e593e008 	ldr	lr, [r3, #8]
   133a4:	e2821004 	add	r1, r2, #4
   133a8:	e5831010 	str	r1, [r3, #16]
   133ac:	e151000e 	cmp	r1, lr
   133b0:	e244c001 	sub	ip, r4, #1
   133b4:	e5924000 	ldr	r4, [r2]
   133b8:	05932004 	ldreq	r2, [r3, #4]
   133bc:	e1c3c1b6 	strh	ip, [r3, #22]
   133c0:	05832010 	streq	r2, [r3, #16]
   133c4:	ebfff61e 	bl	10c44 <OS_CPU_SR_Restore>
   133c8:	e1a00004 	mov	r0, r4
   133cc:	e8bd8010 	pop	{r4, pc}
   133d0:	e3a00000 	mov	r0, #0
   133d4:	e8bd8010 	pop	{r4, pc}
   133d8:	e1a00004 	mov	r0, r4
   133dc:	e8bd8010 	pop	{r4, pc}

000133e0 <OSQCreate>:
   133e0:	e92d43f8 	push	{r3, r4, r5, r6, r7, r8, r9, lr}
   133e4:	e59f30d4 	ldr	r3, [pc, #212]	; 134c0 <OSQCreate+0xe0>
   133e8:	e1a07000 	mov	r7, r0
   133ec:	e5d35000 	ldrb	r5, [r3]
   133f0:	e1a09001 	mov	r9, r1
   133f4:	e3550000 	cmp	r5, #0
   133f8:	1a000025 	bne	13494 <OSQCreate+0xb4>
   133fc:	e59f80c0 	ldr	r8, [pc, #192]	; 134c4 <OSQCreate+0xe4>
   13400:	ebfff607 	bl	10c24 <OS_CPU_SR_Save>
   13404:	e5984000 	ldr	r4, [r8]
   13408:	e3540000 	cmp	r4, #0
   1340c:	0a000022 	beq	1349c <OSQCreate+0xbc>
   13410:	e5943004 	ldr	r3, [r4, #4]
   13414:	e5883000 	str	r3, [r8]
   13418:	ebfff609 	bl	10c44 <OS_CPU_SR_Restore>
   1341c:	ebfff600 	bl	10c24 <OS_CPU_SR_Save>
   13420:	e59f30a0 	ldr	r3, [pc, #160]	; 134c8 <OSQCreate+0xe8>
   13424:	e5936000 	ldr	r6, [r3]
   13428:	e3560000 	cmp	r6, #0
   1342c:	0a00001d 	beq	134a8 <OSQCreate+0xc8>
   13430:	e5962000 	ldr	r2, [r6]
   13434:	e5832000 	str	r2, [r3]
   13438:	ebfff601 	bl	10c44 <OS_CPU_SR_Restore>
   1343c:	e0872109 	add	r2, r7, r9, lsl #2
   13440:	e3a03002 	mov	r3, #2
   13444:	e5867004 	str	r7, [r6, #4]
   13448:	e586700c 	str	r7, [r6, #12]
   1344c:	e5867010 	str	r7, [r6, #16]
   13450:	e5862008 	str	r2, [r6, #8]
   13454:	e1c691b4 	strh	r9, [r6, #20]
   13458:	e1c651b6 	strh	r5, [r6, #22]
   1345c:	e1a00004 	mov	r0, r4
   13460:	e1c450b2 	strh	r5, [r4, #2]
   13464:	e5846004 	str	r6, [r4, #4]
   13468:	e5c45001 	strb	r5, [r4, #1]
   1346c:	e5c45008 	strb	r5, [r4, #8]
   13470:	e5c45009 	strb	r5, [r4, #9]
   13474:	e5c4500a 	strb	r5, [r4, #10]
   13478:	e5c4500b 	strb	r5, [r4, #11]
   1347c:	e5c4500c 	strb	r5, [r4, #12]
   13480:	e5c4500d 	strb	r5, [r4, #13]
   13484:	e5c4500e 	strb	r5, [r4, #14]
   13488:	e5c4500f 	strb	r5, [r4, #15]
   1348c:	e5c43000 	strb	r3, [r4]
   13490:	e8bd83f8 	pop	{r3, r4, r5, r6, r7, r8, r9, pc}
   13494:	e3a00000 	mov	r0, #0
   13498:	e8bd83f8 	pop	{r3, r4, r5, r6, r7, r8, r9, pc}
   1349c:	ebfff5e8 	bl	10c44 <OS_CPU_SR_Restore>
   134a0:	e1a00004 	mov	r0, r4
   134a4:	e8bd83f8 	pop	{r3, r4, r5, r6, r7, r8, r9, pc}
   134a8:	e5983000 	ldr	r3, [r8]
   134ac:	e5884000 	str	r4, [r8]
   134b0:	e5843004 	str	r3, [r4, #4]
   134b4:	ebfff5e2 	bl	10c44 <OS_CPU_SR_Restore>
   134b8:	e1a00006 	mov	r0, r6
   134bc:	e8bd83f8 	pop	{r3, r4, r5, r6, r7, r8, r9, pc}
   134c0:	00016709 	andeq	r6, r1, r9, lsl #14
   134c4:	00016704 	andeq	r6, r1, r4, lsl #14
   134c8:	000166f4 	strdeq	r6, [r1], -r4

000134cc <OSQDel>:
   134cc:	e92d40f0 	push	{r4, r5, r6, r7, lr}
   134d0:	e59f315c 	ldr	r3, [pc, #348]	; 13634 <OSQDel+0x168>
   134d4:	e1a04000 	mov	r4, r0
   134d8:	e5d33000 	ldrb	r3, [r3]
   134dc:	e24dd00c 	sub	sp, sp, #12
   134e0:	e3530000 	cmp	r3, #0
   134e4:	13e03073 	mvnne	r3, #115	; 0x73
   134e8:	e1a05002 	mov	r5, r2
   134ec:	15c23000 	strbne	r3, [r2]
   134f0:	13a00000 	movne	r0, #0
   134f4:	1a00000a 	bne	13524 <OSQDel+0x58>
   134f8:	e3540000 	cmp	r4, #0
   134fc:	03a03004 	moveq	r3, #4
   13500:	01a00004 	moveq	r0, r4
   13504:	05c23000 	strbeq	r3, [r2]
   13508:	0a000005 	beq	13524 <OSQDel+0x58>
   1350c:	e5d43000 	ldrb	r3, [r4]
   13510:	e3530002 	cmp	r3, #2
   13514:	0a000004 	beq	1352c <OSQDel+0x60>
   13518:	e3a03001 	mov	r3, #1
   1351c:	e1a00004 	mov	r0, r4
   13520:	e5c23000 	strb	r3, [r2]
   13524:	e28dd00c 	add	sp, sp, #12
   13528:	e8bd80f0 	pop	{r4, r5, r6, r7, pc}
   1352c:	e58d1004 	str	r1, [sp, #4]
   13530:	ebfff5bb 	bl	10c24 <OS_CPU_SR_Save>
   13534:	e5d46001 	ldrb	r6, [r4, #1]
   13538:	e59d1004 	ldr	r1, [sp, #4]
   1353c:	e2966000 	adds	r6, r6, #0
   13540:	13a06001 	movne	r6, #1
   13544:	e3510000 	cmp	r1, #0
   13548:	e1a07000 	mov	r7, r0
   1354c:	0a000021 	beq	135d8 <OSQDel+0x10c>
   13550:	e3510001 	cmp	r1, #1
   13554:	1a00001a 	bne	135c4 <OSQDel+0xf8>
   13558:	e3560000 	cmp	r6, #0
   1355c:	0a000006 	beq	1357c <OSQDel+0xb0>
   13560:	e1a00004 	mov	r0, r4
   13564:	e3a01000 	mov	r1, #0
   13568:	e3a02004 	mov	r2, #4
   1356c:	ebfff740 	bl	11274 <OS_EventTaskRdy>
   13570:	e5d43001 	ldrb	r3, [r4, #1]
   13574:	e3530000 	cmp	r3, #0
   13578:	1afffff8 	bne	13560 <OSQDel+0x94>
   1357c:	e59f20b4 	ldr	r2, [pc, #180]	; 13638 <OSQDel+0x16c>
   13580:	e5941004 	ldr	r1, [r4, #4]
   13584:	e592c000 	ldr	ip, [r2]
   13588:	e59f30ac 	ldr	r3, [pc, #172]	; 1363c <OSQDel+0x170>
   1358c:	e3a00000 	mov	r0, #0
   13590:	e581c000 	str	ip, [r1]
   13594:	e5821000 	str	r1, [r2]
   13598:	e5c40000 	strb	r0, [r4]
   1359c:	e5932000 	ldr	r2, [r3]
   135a0:	e1a00007 	mov	r0, r7
   135a4:	e5842004 	str	r2, [r4, #4]
   135a8:	e5834000 	str	r4, [r3]
   135ac:	ebfff5a4 	bl	10c44 <OS_CPU_SR_Restore>
   135b0:	e3560001 	cmp	r6, #1
   135b4:	0a00000e 	beq	135f4 <OSQDel+0x128>
   135b8:	e3a00000 	mov	r0, #0
   135bc:	e5c50000 	strb	r0, [r5]
   135c0:	eaffffd7 	b	13524 <OSQDel+0x58>
   135c4:	ebfff59e 	bl	10c44 <OS_CPU_SR_Restore>
   135c8:	e3a03007 	mov	r3, #7
   135cc:	e1a00004 	mov	r0, r4
   135d0:	e5c53000 	strb	r3, [r5]
   135d4:	eaffffd2 	b	13524 <OSQDel+0x58>
   135d8:	e3560000 	cmp	r6, #0
   135dc:	0a000006 	beq	135fc <OSQDel+0x130>
   135e0:	ebfff597 	bl	10c44 <OS_CPU_SR_Restore>
   135e4:	e3a03008 	mov	r3, #8
   135e8:	e1a00004 	mov	r0, r4
   135ec:	e5c53000 	strb	r3, [r5]
   135f0:	eaffffcb 	b	13524 <OSQDel+0x58>
   135f4:	ebfff784 	bl	1140c <OS_Sched>
   135f8:	eaffffee 	b	135b8 <OSQDel+0xec>
   135fc:	e59f2034 	ldr	r2, [pc, #52]	; 13638 <OSQDel+0x16c>
   13600:	e5941004 	ldr	r1, [r4, #4]
   13604:	e592c000 	ldr	ip, [r2]
   13608:	e59f302c 	ldr	r3, [pc, #44]	; 1363c <OSQDel+0x170>
   1360c:	e581c000 	str	ip, [r1]
   13610:	e5821000 	str	r1, [r2]
   13614:	e5c46000 	strb	r6, [r4]
   13618:	e5932000 	ldr	r2, [r3]
   1361c:	e5834000 	str	r4, [r3]
   13620:	e5842004 	str	r2, [r4, #4]
   13624:	ebfff586 	bl	10c44 <OS_CPU_SR_Restore>
   13628:	e5c56000 	strb	r6, [r5]
   1362c:	e1a00006 	mov	r0, r6
   13630:	eaffffbb 	b	13524 <OSQDel+0x58>
   13634:	00016709 	andeq	r6, r1, r9, lsl #14
   13638:	000166f4 	strdeq	r6, [r1], -r4
   1363c:	00016704 	andeq	r6, r1, r4, lsl #14

00013640 <OSQFlush>:
   13640:	e92d4010 	push	{r4, lr}
   13644:	e2504000 	subs	r4, r0, #0
   13648:	0a000004 	beq	13660 <OSQFlush+0x20>
   1364c:	e5d43000 	ldrb	r3, [r4]
   13650:	e3530002 	cmp	r3, #2
   13654:	0a000003 	beq	13668 <OSQFlush+0x28>
   13658:	e3a00001 	mov	r0, #1
   1365c:	e8bd8010 	pop	{r4, pc}
   13660:	e3a00004 	mov	r0, #4
   13664:	e8bd8010 	pop	{r4, pc}
   13668:	ebfff56d 	bl	10c24 <OS_CPU_SR_Save>
   1366c:	e5943004 	ldr	r3, [r4, #4]
   13670:	e3a04000 	mov	r4, #0
   13674:	e5932004 	ldr	r2, [r3, #4]
   13678:	e1c341b6 	strh	r4, [r3, #22]
   1367c:	e583200c 	str	r2, [r3, #12]
   13680:	e5832010 	str	r2, [r3, #16]
   13684:	ebfff56e 	bl	10c44 <OS_CPU_SR_Restore>
   13688:	e1a00004 	mov	r0, r4
   1368c:	e8bd8010 	pop	{r4, pc}

00013690 <OSQPend>:
   13690:	e92d43f8 	push	{r3, r4, r5, r6, r7, r8, r9, lr}
   13694:	e59f312c 	ldr	r3, [pc, #300]	; 137c8 <OSQPend+0x138>
   13698:	e1a04000 	mov	r4, r0
   1369c:	e5d30000 	ldrb	r0, [r3]
   136a0:	e1a07001 	mov	r7, r1
   136a4:	e3500000 	cmp	r0, #0
   136a8:	e1a05002 	mov	r5, r2
   136ac:	1a000035 	bne	13788 <OSQPend+0xf8>
   136b0:	e3540000 	cmp	r4, #0
   136b4:	0a000037 	beq	13798 <OSQPend+0x108>
   136b8:	e5d43000 	ldrb	r3, [r4]
   136bc:	e3530002 	cmp	r3, #2
   136c0:	1a000015 	bne	1371c <OSQPend+0x8c>
   136c4:	ebfff556 	bl	10c24 <OS_CPU_SR_Save>
   136c8:	e5943004 	ldr	r3, [r4, #4]
   136cc:	e1a08000 	mov	r8, r0
   136d0:	e1d361b6 	ldrh	r6, [r3, #22]
   136d4:	e3560000 	cmp	r6, #0
   136d8:	0a000012 	beq	13728 <OSQPend+0x98>
   136dc:	e5932010 	ldr	r2, [r3, #16]
   136e0:	e5930008 	ldr	r0, [r3, #8]
   136e4:	e2821004 	add	r1, r2, #4
   136e8:	e5831010 	str	r1, [r3, #16]
   136ec:	e1510000 	cmp	r1, r0
   136f0:	e5924000 	ldr	r4, [r2]
   136f4:	05932004 	ldreq	r2, [r3, #4]
   136f8:	e2466001 	sub	r6, r6, #1
   136fc:	e1c361b6 	strh	r6, [r3, #22]
   13700:	05832010 	streq	r2, [r3, #16]
   13704:	e1a00008 	mov	r0, r8
   13708:	ebfff54d 	bl	10c44 <OS_CPU_SR_Restore>
   1370c:	e3a03000 	mov	r3, #0
   13710:	e1a00004 	mov	r0, r4
   13714:	e5c53000 	strb	r3, [r5]
   13718:	e8bd83f8 	pop	{r3, r4, r5, r6, r7, r8, r9, pc}
   1371c:	e3a03001 	mov	r3, #1
   13720:	e5c23000 	strb	r3, [r2]
   13724:	e8bd83f8 	pop	{r3, r4, r5, r6, r7, r8, r9, pc}
   13728:	e59f909c 	ldr	r9, [pc, #156]	; 137cc <OSQPend+0x13c>
   1372c:	e1a00004 	mov	r0, r4
   13730:	e5993000 	ldr	r3, [r9]
   13734:	e5d3202c 	ldrb	r2, [r3, #44]	; 0x2c
   13738:	e1c372ba 	strh	r7, [r3, #42]	; 0x2a
   1373c:	e3822004 	orr	r2, r2, #4
   13740:	e5c3202c 	strb	r2, [r3, #44]	; 0x2c
   13744:	ebfff6f6 	bl	11324 <OS_EventTaskWait>
   13748:	e1a00008 	mov	r0, r8
   1374c:	ebfff53c 	bl	10c44 <OS_CPU_SR_Restore>
   13750:	ebfff72d 	bl	1140c <OS_Sched>
   13754:	ebfff532 	bl	10c24 <OS_CPU_SR_Save>
   13758:	e5993000 	ldr	r3, [r9]
   1375c:	e1a08000 	mov	r8, r0
   13760:	e5937020 	ldr	r7, [r3, #32]
   13764:	e3570000 	cmp	r7, #0
   13768:	0a00000e 	beq	137a8 <OSQPend+0x118>
   1376c:	e5836020 	str	r6, [r3, #32]
   13770:	e5c3602c 	strb	r6, [r3, #44]	; 0x2c
   13774:	e583601c 	str	r6, [r3, #28]
   13778:	ebfff531 	bl	10c44 <OS_CPU_SR_Restore>
   1377c:	e5c56000 	strb	r6, [r5]
   13780:	e1a00007 	mov	r0, r7
   13784:	e8bd83f8 	pop	{r3, r4, r5, r6, r7, r8, r9, pc}
   13788:	e3a03002 	mov	r3, #2
   1378c:	e5c23000 	strb	r3, [r2]
   13790:	e3a00000 	mov	r0, #0
   13794:	e8bd83f8 	pop	{r3, r4, r5, r6, r7, r8, r9, pc}
   13798:	e3a03004 	mov	r3, #4
   1379c:	e1a00004 	mov	r0, r4
   137a0:	e5c23000 	strb	r3, [r2]
   137a4:	e8bd83f8 	pop	{r3, r4, r5, r6, r7, r8, r9, pc}
   137a8:	e1a00004 	mov	r0, r4
   137ac:	ebfff6f9 	bl	11398 <OS_EventTO>
   137b0:	e1a00008 	mov	r0, r8
   137b4:	ebfff522 	bl	10c44 <OS_CPU_SR_Restore>
   137b8:	e3a0300a 	mov	r3, #10
   137bc:	e1a00007 	mov	r0, r7
   137c0:	e5c53000 	strb	r3, [r5]
   137c4:	e8bd83f8 	pop	{r3, r4, r5, r6, r7, r8, r9, pc}
   137c8:	00016709 	andeq	r6, r1, r9, lsl #14
   137cc:	0001670c 	andeq	r6, r1, ip, lsl #14

000137d0 <OSQPost>:
   137d0:	e92d4030 	push	{r4, r5, lr}
   137d4:	e2504000 	subs	r4, r0, #0
   137d8:	e24dd00c 	sub	sp, sp, #12
   137dc:	03a00004 	moveq	r0, #4
   137e0:	0a000006 	beq	13800 <OSQPost+0x30>
   137e4:	e3510000 	cmp	r1, #0
   137e8:	03a00003 	moveq	r0, #3
   137ec:	0a000003 	beq	13800 <OSQPost+0x30>
   137f0:	e5d43000 	ldrb	r3, [r4]
   137f4:	e3530002 	cmp	r3, #2
   137f8:	13a00001 	movne	r0, #1
   137fc:	0a000001 	beq	13808 <OSQPost+0x38>
   13800:	e28dd00c 	add	sp, sp, #12
   13804:	e8bd8030 	pop	{r4, r5, pc}
   13808:	e58d1004 	str	r1, [sp, #4]
   1380c:	ebfff504 	bl	10c24 <OS_CPU_SR_Save>
   13810:	e5d43001 	ldrb	r3, [r4, #1]
   13814:	e1a05000 	mov	r5, r0
   13818:	e3530000 	cmp	r3, #0
   1381c:	e59d1004 	ldr	r1, [sp, #4]
   13820:	1a000016 	bne	13880 <OSQPost+0xb0>
   13824:	e5943004 	ldr	r3, [r4, #4]
   13828:	e1d321b6 	ldrh	r2, [r3, #22]
   1382c:	e1d3c1b4 	ldrh	ip, [r3, #20]
   13830:	e15c0002 	cmp	ip, r2
   13834:	9a00000e 	bls	13874 <OSQPost+0xa4>
   13838:	e593000c 	ldr	r0, [r3, #12]
   1383c:	e2822001 	add	r2, r2, #1
   13840:	e280c004 	add	ip, r0, #4
   13844:	e583c00c 	str	ip, [r3, #12]
   13848:	e5801000 	str	r1, [r0]
   1384c:	e593000c 	ldr	r0, [r3, #12]
   13850:	e5931008 	ldr	r1, [r3, #8]
   13854:	e1c321b6 	strh	r2, [r3, #22]
   13858:	e1500001 	cmp	r0, r1
   1385c:	05932004 	ldreq	r2, [r3, #4]
   13860:	e1a00005 	mov	r0, r5
   13864:	0583200c 	streq	r2, [r3, #12]
   13868:	ebfff4f5 	bl	10c44 <OS_CPU_SR_Restore>
   1386c:	e3a00000 	mov	r0, #0
   13870:	eaffffe2 	b	13800 <OSQPost+0x30>
   13874:	ebfff4f2 	bl	10c44 <OS_CPU_SR_Restore>
   13878:	e3a0001e 	mov	r0, #30
   1387c:	eaffffdf 	b	13800 <OSQPost+0x30>
   13880:	e3a02004 	mov	r2, #4
   13884:	e1a00004 	mov	r0, r4
   13888:	ebfff679 	bl	11274 <OS_EventTaskRdy>
   1388c:	e1a00005 	mov	r0, r5
   13890:	ebfff4eb 	bl	10c44 <OS_CPU_SR_Restore>
   13894:	ebfff6dc 	bl	1140c <OS_Sched>
   13898:	e3a00000 	mov	r0, #0
   1389c:	eaffffd7 	b	13800 <OSQPost+0x30>

000138a0 <OSQPostFront>:
   138a0:	e92d4030 	push	{r4, r5, lr}
   138a4:	e2504000 	subs	r4, r0, #0
   138a8:	e24dd00c 	sub	sp, sp, #12
   138ac:	03a00004 	moveq	r0, #4
   138b0:	0a000006 	beq	138d0 <OSQPostFront+0x30>
   138b4:	e3510000 	cmp	r1, #0
   138b8:	03a00003 	moveq	r0, #3
   138bc:	0a000003 	beq	138d0 <OSQPostFront+0x30>
   138c0:	e5d43000 	ldrb	r3, [r4]
   138c4:	e3530002 	cmp	r3, #2
   138c8:	13a00001 	movne	r0, #1
   138cc:	0a000001 	beq	138d8 <OSQPostFront+0x38>
   138d0:	e28dd00c 	add	sp, sp, #12
   138d4:	e8bd8030 	pop	{r4, r5, pc}
   138d8:	e58d1004 	str	r1, [sp, #4]
   138dc:	ebfff4d0 	bl	10c24 <OS_CPU_SR_Save>
   138e0:	e5d43001 	ldrb	r3, [r4, #1]
   138e4:	e1a05000 	mov	r5, r0
   138e8:	e3530000 	cmp	r3, #0
   138ec:	e59d1004 	ldr	r1, [sp, #4]
   138f0:	1a000014 	bne	13948 <OSQPostFront+0xa8>
   138f4:	e5943004 	ldr	r3, [r4, #4]
   138f8:	e1d321b6 	ldrh	r2, [r3, #22]
   138fc:	e1d3c1b4 	ldrh	ip, [r3, #20]
   13900:	e15c0002 	cmp	ip, r2
   13904:	9a00000c 	bls	1393c <OSQPostFront+0x9c>
   13908:	e593c010 	ldr	ip, [r3, #16]
   1390c:	e5930004 	ldr	r0, [r3, #4]
   13910:	e2822001 	add	r2, r2, #1
   13914:	e15c0000 	cmp	ip, r0
   13918:	0593c008 	ldreq	ip, [r3, #8]
   1391c:	e1a00005 	mov	r0, r5
   13920:	e24ce004 	sub	lr, ip, #4
   13924:	e583e010 	str	lr, [r3, #16]
   13928:	e50c1004 	str	r1, [ip, #-4]
   1392c:	e1c321b6 	strh	r2, [r3, #22]
   13930:	ebfff4c3 	bl	10c44 <OS_CPU_SR_Restore>
   13934:	e3a00000 	mov	r0, #0
   13938:	eaffffe4 	b	138d0 <OSQPostFront+0x30>
   1393c:	ebfff4c0 	bl	10c44 <OS_CPU_SR_Restore>
   13940:	e3a0001e 	mov	r0, #30
   13944:	eaffffe1 	b	138d0 <OSQPostFront+0x30>
   13948:	e3a02004 	mov	r2, #4
   1394c:	e1a00004 	mov	r0, r4
   13950:	ebfff647 	bl	11274 <OS_EventTaskRdy>
   13954:	e1a00005 	mov	r0, r5
   13958:	ebfff4b9 	bl	10c44 <OS_CPU_SR_Restore>
   1395c:	ebfff6aa 	bl	1140c <OS_Sched>
   13960:	e3a00000 	mov	r0, #0
   13964:	eaffffd9 	b	138d0 <OSQPostFront+0x30>

00013968 <OSQPostOpt>:
   13968:	e92d4070 	push	{r4, r5, r6, lr}
   1396c:	e2504000 	subs	r4, r0, #0
   13970:	e24dd008 	sub	sp, sp, #8
   13974:	e1a05001 	mov	r5, r1
   13978:	03a00004 	moveq	r0, #4
   1397c:	0a000006 	beq	1399c <OSQPostOpt+0x34>
   13980:	e3510000 	cmp	r1, #0
   13984:	03a00003 	moveq	r0, #3
   13988:	0a000003 	beq	1399c <OSQPostOpt+0x34>
   1398c:	e5d43000 	ldrb	r3, [r4]
   13990:	e3530002 	cmp	r3, #2
   13994:	13a00001 	movne	r0, #1
   13998:	0a000001 	beq	139a4 <OSQPostOpt+0x3c>
   1399c:	e28dd008 	add	sp, sp, #8
   139a0:	e8bd8070 	pop	{r4, r5, r6, pc}
   139a4:	e58d2004 	str	r2, [sp, #4]
   139a8:	ebfff49d 	bl	10c24 <OS_CPU_SR_Save>
   139ac:	e5d43001 	ldrb	r3, [r4, #1]
   139b0:	e1a06000 	mov	r6, r0
   139b4:	e3530000 	cmp	r3, #0
   139b8:	e59d2004 	ldr	r2, [sp, #4]
   139bc:	0a00000d 	beq	139f8 <OSQPostOpt+0x90>
   139c0:	e3120001 	tst	r2, #1
   139c4:	0a000022 	beq	13a54 <OSQPostOpt+0xec>
   139c8:	e1a00004 	mov	r0, r4
   139cc:	e1a01005 	mov	r1, r5
   139d0:	e3a02004 	mov	r2, #4
   139d4:	ebfff626 	bl	11274 <OS_EventTaskRdy>
   139d8:	e5d43001 	ldrb	r3, [r4, #1]
   139dc:	e3530000 	cmp	r3, #0
   139e0:	1afffff8 	bne	139c8 <OSQPostOpt+0x60>
   139e4:	e1a00006 	mov	r0, r6
   139e8:	ebfff495 	bl	10c44 <OS_CPU_SR_Restore>
   139ec:	ebfff686 	bl	1140c <OS_Sched>
   139f0:	e3a00000 	mov	r0, #0
   139f4:	eaffffe8 	b	1399c <OSQPostOpt+0x34>
   139f8:	e5943004 	ldr	r3, [r4, #4]
   139fc:	e1d311b6 	ldrh	r1, [r3, #22]
   13a00:	e1d3c1b4 	ldrh	ip, [r3, #20]
   13a04:	e15c0001 	cmp	ip, r1
   13a08:	9a00000e 	bls	13a48 <OSQPostOpt+0xe0>
   13a0c:	e3120002 	tst	r2, #2
   13a10:	0a000014 	beq	13a68 <OSQPostOpt+0x100>
   13a14:	e5932010 	ldr	r2, [r3, #16]
   13a18:	e5930004 	ldr	r0, [r3, #4]
   13a1c:	e1520000 	cmp	r2, r0
   13a20:	05932008 	ldreq	r2, [r3, #8]
   13a24:	e2420004 	sub	r0, r2, #4
   13a28:	e5830010 	str	r0, [r3, #16]
   13a2c:	e5025004 	str	r5, [r2, #-4]
   13a30:	e2811001 	add	r1, r1, #1
   13a34:	e1c311b6 	strh	r1, [r3, #22]
   13a38:	e1a00006 	mov	r0, r6
   13a3c:	ebfff480 	bl	10c44 <OS_CPU_SR_Restore>
   13a40:	e3a00000 	mov	r0, #0
   13a44:	eaffffd4 	b	1399c <OSQPostOpt+0x34>
   13a48:	ebfff47d 	bl	10c44 <OS_CPU_SR_Restore>
   13a4c:	e3a0001e 	mov	r0, #30
   13a50:	eaffffd1 	b	1399c <OSQPostOpt+0x34>
   13a54:	e1a00004 	mov	r0, r4
   13a58:	e1a01005 	mov	r1, r5
   13a5c:	e3a02004 	mov	r2, #4
   13a60:	ebfff603 	bl	11274 <OS_EventTaskRdy>
   13a64:	eaffffde 	b	139e4 <OSQPostOpt+0x7c>
   13a68:	e593200c 	ldr	r2, [r3, #12]
   13a6c:	e2820004 	add	r0, r2, #4
   13a70:	e583000c 	str	r0, [r3, #12]
   13a74:	e5825000 	str	r5, [r2]
   13a78:	e5932008 	ldr	r2, [r3, #8]
   13a7c:	e593000c 	ldr	r0, [r3, #12]
   13a80:	e1500002 	cmp	r0, r2
   13a84:	05932004 	ldreq	r2, [r3, #4]
   13a88:	0583200c 	streq	r2, [r3, #12]
   13a8c:	eaffffe7 	b	13a30 <OSQPostOpt+0xc8>

00013a90 <OSQQuery>:
   13a90:	e92d4010 	push	{r4, lr}
   13a94:	e2504000 	subs	r4, r0, #0
   13a98:	e24dd008 	sub	sp, sp, #8
   13a9c:	03a00004 	moveq	r0, #4
   13aa0:	0a000003 	beq	13ab4 <OSQQuery+0x24>
   13aa4:	e5d43000 	ldrb	r3, [r4]
   13aa8:	e3530002 	cmp	r3, #2
   13aac:	13a00001 	movne	r0, #1
   13ab0:	0a000001 	beq	13abc <OSQQuery+0x2c>
   13ab4:	e28dd008 	add	sp, sp, #8
   13ab8:	e8bd8010 	pop	{r4, pc}
   13abc:	e58d1004 	str	r1, [sp, #4]
   13ac0:	ebfff457 	bl	10c24 <OS_CPU_SR_Save>
   13ac4:	e5d43001 	ldrb	r3, [r4, #1]
   13ac8:	e59d1004 	ldr	r1, [sp, #4]
   13acc:	e5c13010 	strb	r3, [r1, #16]
   13ad0:	e5d43008 	ldrb	r3, [r4, #8]
   13ad4:	e5c13008 	strb	r3, [r1, #8]
   13ad8:	e5d43009 	ldrb	r3, [r4, #9]
   13adc:	e5c13009 	strb	r3, [r1, #9]
   13ae0:	e5d4300a 	ldrb	r3, [r4, #10]
   13ae4:	e5c1300a 	strb	r3, [r1, #10]
   13ae8:	e5d4300b 	ldrb	r3, [r4, #11]
   13aec:	e5c1300b 	strb	r3, [r1, #11]
   13af0:	e5d4300c 	ldrb	r3, [r4, #12]
   13af4:	e5c1300c 	strb	r3, [r1, #12]
   13af8:	e5d4300d 	ldrb	r3, [r4, #13]
   13afc:	e5c1300d 	strb	r3, [r1, #13]
   13b00:	e5d4300e 	ldrb	r3, [r4, #14]
   13b04:	e5c1300e 	strb	r3, [r1, #14]
   13b08:	e5d4300f 	ldrb	r3, [r4, #15]
   13b0c:	e5c1300f 	strb	r3, [r1, #15]
   13b10:	e5942004 	ldr	r2, [r4, #4]
   13b14:	e1d231b6 	ldrh	r3, [r2, #22]
   13b18:	e3530000 	cmp	r3, #0
   13b1c:	1592c010 	ldrne	ip, [r2, #16]
   13b20:	e1d221b4 	ldrh	r2, [r2, #20]
   13b24:	159cc000 	ldrne	ip, [ip]
   13b28:	05813000 	streq	r3, [r1]
   13b2c:	1581c000 	strne	ip, [r1]
   13b30:	e1c130b4 	strh	r3, [r1, #4]
   13b34:	e1c120b6 	strh	r2, [r1, #6]
   13b38:	ebfff441 	bl	10c44 <OS_CPU_SR_Restore>
   13b3c:	e3a00000 	mov	r0, #0
   13b40:	e28dd008 	add	sp, sp, #8
   13b44:	e8bd8010 	pop	{r4, pc}

00013b48 <OS_QInit>:
   13b48:	e92d0030 	push	{r4, r5}
   13b4c:	e59f3034 	ldr	r3, [pc, #52]	; 13b88 <OS_QInit+0x40>
   13b50:	e59f1034 	ldr	r1, [pc, #52]	; 13b8c <OS_QInit+0x44>
   13b54:	e2835018 	add	r5, r3, #24
   13b58:	e1a02003 	mov	r2, r3
   13b5c:	e2834048 	add	r4, r3, #72	; 0x48
   13b60:	e4825030 	str	r5, [r2], #48	; 0x30
   13b64:	e283c060 	add	ip, r3, #96	; 0x60
   13b68:	e3a00000 	mov	r0, #0
   13b6c:	e5834030 	str	r4, [r3, #48]	; 0x30
   13b70:	e583c048 	str	ip, [r3, #72]	; 0x48
   13b74:	e5830060 	str	r0, [r3, #96]	; 0x60
   13b78:	e5813000 	str	r3, [r1]
   13b7c:	e5832018 	str	r2, [r3, #24]
   13b80:	e8bd0030 	pop	{r4, r5}
   13b84:	e12fff1e 	bx	lr
   13b88:	00016678 	andeq	r6, r1, r8, ror r6
   13b8c:	000166f4 	strdeq	r6, [r1], -r4

00013b90 <OSSemAccept>:
   13b90:	e92d4038 	push	{r3, r4, r5, lr}
   13b94:	e2504000 	subs	r4, r0, #0
   13b98:	0a00000c 	beq	13bd0 <OSSemAccept+0x40>
   13b9c:	e5d43000 	ldrb	r3, [r4]
   13ba0:	e3530003 	cmp	r3, #3
   13ba4:	0a000001 	beq	13bb0 <OSSemAccept+0x20>
   13ba8:	e3a00000 	mov	r0, #0
   13bac:	e8bd8038 	pop	{r3, r4, r5, pc}
   13bb0:	ebfff41b 	bl	10c24 <OS_CPU_SR_Save>
   13bb4:	e1d450b2 	ldrh	r5, [r4, #2]
   13bb8:	e3550000 	cmp	r5, #0
   13bbc:	12453001 	subne	r3, r5, #1
   13bc0:	11c430b2 	strhne	r3, [r4, #2]
   13bc4:	ebfff41e 	bl	10c44 <OS_CPU_SR_Restore>
   13bc8:	e1a00005 	mov	r0, r5
   13bcc:	e8bd8038 	pop	{r3, r4, r5, pc}
   13bd0:	e1a00004 	mov	r0, r4
   13bd4:	e8bd8038 	pop	{r3, r4, r5, pc}

00013bd8 <OSSemCreate>:
   13bd8:	e92d4070 	push	{r4, r5, r6, lr}
   13bdc:	e59f307c 	ldr	r3, [pc, #124]	; 13c60 <OSSemCreate+0x88>
   13be0:	e1a06000 	mov	r6, r0
   13be4:	e5d35000 	ldrb	r5, [r3]
   13be8:	e3550000 	cmp	r5, #0
   13bec:	1a000016 	bne	13c4c <OSSemCreate+0x74>
   13bf0:	ebfff40b 	bl	10c24 <OS_CPU_SR_Save>
   13bf4:	e59f3068 	ldr	r3, [pc, #104]	; 13c64 <OSSemCreate+0x8c>
   13bf8:	e5934000 	ldr	r4, [r3]
   13bfc:	e3540000 	cmp	r4, #0
   13c00:	0a000013 	beq	13c54 <OSSemCreate+0x7c>
   13c04:	e5942004 	ldr	r2, [r4, #4]
   13c08:	e5832000 	str	r2, [r3]
   13c0c:	ebfff40c 	bl	10c44 <OS_CPU_SR_Restore>
   13c10:	e3a03003 	mov	r3, #3
   13c14:	e1c460b2 	strh	r6, [r4, #2]
   13c18:	e5845004 	str	r5, [r4, #4]
   13c1c:	e5c45001 	strb	r5, [r4, #1]
   13c20:	e5c45008 	strb	r5, [r4, #8]
   13c24:	e5c45009 	strb	r5, [r4, #9]
   13c28:	e5c4500a 	strb	r5, [r4, #10]
   13c2c:	e5c4500b 	strb	r5, [r4, #11]
   13c30:	e5c4500c 	strb	r5, [r4, #12]
   13c34:	e5c4500d 	strb	r5, [r4, #13]
   13c38:	e5c4500e 	strb	r5, [r4, #14]
   13c3c:	e5c4500f 	strb	r5, [r4, #15]
   13c40:	e5c43000 	strb	r3, [r4]
   13c44:	e1a00004 	mov	r0, r4
   13c48:	e8bd8070 	pop	{r4, r5, r6, pc}
   13c4c:	e3a00000 	mov	r0, #0
   13c50:	e8bd8070 	pop	{r4, r5, r6, pc}
   13c54:	ebfff3fa 	bl	10c44 <OS_CPU_SR_Restore>
   13c58:	e1a00004 	mov	r0, r4
   13c5c:	e8bd8070 	pop	{r4, r5, r6, pc}
   13c60:	00016709 	andeq	r6, r1, r9, lsl #14
   13c64:	00016704 	andeq	r6, r1, r4, lsl #14

00013c68 <OSSemDel>:
   13c68:	e92d40f0 	push	{r4, r5, r6, r7, lr}
   13c6c:	e59f3138 	ldr	r3, [pc, #312]	; 13dac <OSSemDel+0x144>
   13c70:	e24dd00c 	sub	sp, sp, #12
   13c74:	e5d33000 	ldrb	r3, [r3]
   13c78:	e1a04000 	mov	r4, r0
   13c7c:	e3530000 	cmp	r3, #0
   13c80:	e1a05002 	mov	r5, r2
   13c84:	1a00000c 	bne	13cbc <OSSemDel+0x54>
   13c88:	e3500000 	cmp	r0, #0
   13c8c:	03a03004 	moveq	r3, #4
   13c90:	01a00000 	moveq	r0, r0
   13c94:	05c23000 	strbeq	r3, [r2]
   13c98:	0a000005 	beq	13cb4 <OSSemDel+0x4c>
   13c9c:	e5d43000 	ldrb	r3, [r4]
   13ca0:	e3530003 	cmp	r3, #3
   13ca4:	0a000008 	beq	13ccc <OSSemDel+0x64>
   13ca8:	e3a03001 	mov	r3, #1
   13cac:	e1a00004 	mov	r0, r4
   13cb0:	e5c23000 	strb	r3, [r2]
   13cb4:	e28dd00c 	add	sp, sp, #12
   13cb8:	e8bd80f0 	pop	{r4, r5, r6, r7, pc}
   13cbc:	e3e03073 	mvn	r3, #115	; 0x73
   13cc0:	e5c23000 	strb	r3, [r2]
   13cc4:	e28dd00c 	add	sp, sp, #12
   13cc8:	e8bd80f0 	pop	{r4, r5, r6, r7, pc}
   13ccc:	e58d1004 	str	r1, [sp, #4]
   13cd0:	ebfff3d3 	bl	10c24 <OS_CPU_SR_Save>
   13cd4:	e5d46001 	ldrb	r6, [r4, #1]
   13cd8:	e59d1004 	ldr	r1, [sp, #4]
   13cdc:	e2966000 	adds	r6, r6, #0
   13ce0:	13a06001 	movne	r6, #1
   13ce4:	e3510000 	cmp	r1, #0
   13ce8:	e1a07000 	mov	r7, r0
   13cec:	0a00001c 	beq	13d64 <OSSemDel+0xfc>
   13cf0:	e3510001 	cmp	r1, #1
   13cf4:	1a000015 	bne	13d50 <OSSemDel+0xe8>
   13cf8:	e3560000 	cmp	r6, #0
   13cfc:	0a000006 	beq	13d1c <OSSemDel+0xb4>
   13d00:	e1a00004 	mov	r0, r4
   13d04:	e3a01000 	mov	r1, #0
   13d08:	e3a02001 	mov	r2, #1
   13d0c:	ebfff558 	bl	11274 <OS_EventTaskRdy>
   13d10:	e5d43001 	ldrb	r3, [r4, #1]
   13d14:	e3530000 	cmp	r3, #0
   13d18:	1afffff8 	bne	13d00 <OSSemDel+0x98>
   13d1c:	e59f308c 	ldr	r3, [pc, #140]	; 13db0 <OSSemDel+0x148>
   13d20:	e3a02000 	mov	r2, #0
   13d24:	e5c42000 	strb	r2, [r4]
   13d28:	e5932000 	ldr	r2, [r3]
   13d2c:	e1a00007 	mov	r0, r7
   13d30:	e5842004 	str	r2, [r4, #4]
   13d34:	e5834000 	str	r4, [r3]
   13d38:	ebfff3c1 	bl	10c44 <OS_CPU_SR_Restore>
   13d3c:	e3560001 	cmp	r6, #1
   13d40:	0a00000e 	beq	13d80 <OSSemDel+0x118>
   13d44:	e3a00000 	mov	r0, #0
   13d48:	e5c50000 	strb	r0, [r5]
   13d4c:	eaffffd8 	b	13cb4 <OSSemDel+0x4c>
   13d50:	ebfff3bb 	bl	10c44 <OS_CPU_SR_Restore>
   13d54:	e3a03007 	mov	r3, #7
   13d58:	e1a00004 	mov	r0, r4
   13d5c:	e5c53000 	strb	r3, [r5]
   13d60:	eaffffd3 	b	13cb4 <OSSemDel+0x4c>
   13d64:	e3560000 	cmp	r6, #0
   13d68:	0a000006 	beq	13d88 <OSSemDel+0x120>
   13d6c:	ebfff3b4 	bl	10c44 <OS_CPU_SR_Restore>
   13d70:	e3a03008 	mov	r3, #8
   13d74:	e1a00004 	mov	r0, r4
   13d78:	e5c53000 	strb	r3, [r5]
   13d7c:	eaffffcc 	b	13cb4 <OSSemDel+0x4c>
   13d80:	ebfff5a1 	bl	1140c <OS_Sched>
   13d84:	eaffffee 	b	13d44 <OSSemDel+0xdc>
   13d88:	e59f3020 	ldr	r3, [pc, #32]	; 13db0 <OSSemDel+0x148>
   13d8c:	e5c46000 	strb	r6, [r4]
   13d90:	e5932000 	ldr	r2, [r3]
   13d94:	e5834000 	str	r4, [r3]
   13d98:	e5842004 	str	r2, [r4, #4]
   13d9c:	ebfff3a8 	bl	10c44 <OS_CPU_SR_Restore>
   13da0:	e5c56000 	strb	r6, [r5]
   13da4:	e1a00006 	mov	r0, r6
   13da8:	eaffffc1 	b	13cb4 <OSSemDel+0x4c>
   13dac:	00016709 	andeq	r6, r1, r9, lsl #14
   13db0:	00016704 	andeq	r6, r1, r4, lsl #14

00013db4 <OSSemPend>:
   13db4:	e92d40f0 	push	{r4, r5, r6, r7, lr}
   13db8:	e59f30e8 	ldr	r3, [pc, #232]	; 13ea8 <OSSemPend+0xf4>
   13dbc:	e24dd00c 	sub	sp, sp, #12
   13dc0:	e5d35000 	ldrb	r5, [r3]
   13dc4:	e1a04000 	mov	r4, r0
   13dc8:	e3550000 	cmp	r5, #0
   13dcc:	13a03002 	movne	r3, #2
   13dd0:	e1a06002 	mov	r6, r2
   13dd4:	15c23000 	strbne	r3, [r2]
   13dd8:	1a000008 	bne	13e00 <OSSemPend+0x4c>
   13ddc:	e3500000 	cmp	r0, #0
   13de0:	03a03004 	moveq	r3, #4
   13de4:	05c23000 	strbeq	r3, [r2]
   13de8:	0a000004 	beq	13e00 <OSSemPend+0x4c>
   13dec:	e5d03000 	ldrb	r3, [r0]
   13df0:	e3530003 	cmp	r3, #3
   13df4:	0a000003 	beq	13e08 <OSSemPend+0x54>
   13df8:	e3a03001 	mov	r3, #1
   13dfc:	e5c23000 	strb	r3, [r2]
   13e00:	e28dd00c 	add	sp, sp, #12
   13e04:	e8bd80f0 	pop	{r4, r5, r6, r7, pc}
   13e08:	e58d1004 	str	r1, [sp, #4]
   13e0c:	ebfff384 	bl	10c24 <OS_CPU_SR_Save>
   13e10:	e1d430b2 	ldrh	r3, [r4, #2]
   13e14:	e1a07000 	mov	r7, r0
   13e18:	e3530000 	cmp	r3, #0
   13e1c:	e59d1004 	ldr	r1, [sp, #4]
   13e20:	1a00001b 	bne	13e94 <OSSemPend+0xe0>
   13e24:	e59f5080 	ldr	r5, [pc, #128]	; 13eac <OSSemPend+0xf8>
   13e28:	e1a00004 	mov	r0, r4
   13e2c:	e5953000 	ldr	r3, [r5]
   13e30:	e5d3202c 	ldrb	r2, [r3, #44]	; 0x2c
   13e34:	e1c312ba 	strh	r1, [r3, #42]	; 0x2a
   13e38:	e3822001 	orr	r2, r2, #1
   13e3c:	e5c3202c 	strb	r2, [r3, #44]	; 0x2c
   13e40:	ebfff537 	bl	11324 <OS_EventTaskWait>
   13e44:	e1a00007 	mov	r0, r7
   13e48:	ebfff37d 	bl	10c44 <OS_CPU_SR_Restore>
   13e4c:	ebfff56e 	bl	1140c <OS_Sched>
   13e50:	ebfff373 	bl	10c24 <OS_CPU_SR_Save>
   13e54:	e5952000 	ldr	r2, [r5]
   13e58:	e1a07000 	mov	r7, r0
   13e5c:	e5d2302c 	ldrb	r3, [r2, #44]	; 0x2c
   13e60:	e2135001 	ands	r5, r3, #1
   13e64:	1a000003 	bne	13e78 <OSSemPend+0xc4>
   13e68:	e582501c 	str	r5, [r2, #28]
   13e6c:	ebfff374 	bl	10c44 <OS_CPU_SR_Restore>
   13e70:	e5c65000 	strb	r5, [r6]
   13e74:	eaffffe1 	b	13e00 <OSSemPend+0x4c>
   13e78:	e1a00004 	mov	r0, r4
   13e7c:	ebfff545 	bl	11398 <OS_EventTO>
   13e80:	e1a00007 	mov	r0, r7
   13e84:	ebfff36e 	bl	10c44 <OS_CPU_SR_Restore>
   13e88:	e3a0300a 	mov	r3, #10
   13e8c:	e5c63000 	strb	r3, [r6]
   13e90:	eaffffda 	b	13e00 <OSSemPend+0x4c>
   13e94:	e2433001 	sub	r3, r3, #1
   13e98:	e1c430b2 	strh	r3, [r4, #2]
   13e9c:	ebfff368 	bl	10c44 <OS_CPU_SR_Restore>
   13ea0:	e5c65000 	strb	r5, [r6]
   13ea4:	eaffffd5 	b	13e00 <OSSemPend+0x4c>
   13ea8:	00016709 	andeq	r6, r1, r9, lsl #14
   13eac:	0001670c 	andeq	r6, r1, ip, lsl #14

00013eb0 <OSSemPost>:
   13eb0:	e92d4070 	push	{r4, r5, r6, lr}
   13eb4:	e2504000 	subs	r4, r0, #0
   13eb8:	0a000004 	beq	13ed0 <OSSemPost+0x20>
   13ebc:	e5d43000 	ldrb	r3, [r4]
   13ec0:	e3530003 	cmp	r3, #3
   13ec4:	0a000003 	beq	13ed8 <OSSemPost+0x28>
   13ec8:	e3a00001 	mov	r0, #1
   13ecc:	e8bd8070 	pop	{r4, r5, r6, pc}
   13ed0:	e3a00004 	mov	r0, #4
   13ed4:	e8bd8070 	pop	{r4, r5, r6, pc}
   13ed8:	ebfff351 	bl	10c24 <OS_CPU_SR_Save>
   13edc:	e5d45001 	ldrb	r5, [r4, #1]
   13ee0:	e1a06000 	mov	r6, r0
   13ee4:	e3550000 	cmp	r5, #0
   13ee8:	1a00000b 	bne	13f1c <OSSemPost+0x6c>
   13eec:	e1d430b2 	ldrh	r3, [r4, #2]
   13ef0:	e59f2048 	ldr	r2, [pc, #72]	; 13f40 <OSSemPost+0x90>
   13ef4:	e1530002 	cmp	r3, r2
   13ef8:	0a000004 	beq	13f10 <OSSemPost+0x60>
   13efc:	e2833001 	add	r3, r3, #1
   13f00:	e1c430b2 	strh	r3, [r4, #2]
   13f04:	ebfff34e 	bl	10c44 <OS_CPU_SR_Restore>
   13f08:	e1a00005 	mov	r0, r5
   13f0c:	e8bd8070 	pop	{r4, r5, r6, pc}
   13f10:	ebfff34b 	bl	10c44 <OS_CPU_SR_Restore>
   13f14:	e3a00032 	mov	r0, #50	; 0x32
   13f18:	e8bd8070 	pop	{r4, r5, r6, pc}
   13f1c:	e3a01000 	mov	r1, #0
   13f20:	e3a02001 	mov	r2, #1
   13f24:	e1a00004 	mov	r0, r4
   13f28:	ebfff4d1 	bl	11274 <OS_EventTaskRdy>
   13f2c:	e1a00006 	mov	r0, r6
   13f30:	ebfff343 	bl	10c44 <OS_CPU_SR_Restore>
   13f34:	ebfff534 	bl	1140c <OS_Sched>
   13f38:	e3a00000 	mov	r0, #0
   13f3c:	e8bd8070 	pop	{r4, r5, r6, pc}
   13f40:	0000ffff 	strdeq	pc, [r0], -pc	; <UNPREDICTABLE>

00013f44 <OSSemQuery>:
   13f44:	e92d4010 	push	{r4, lr}
   13f48:	e2504000 	subs	r4, r0, #0
   13f4c:	e24dd008 	sub	sp, sp, #8
   13f50:	03a00004 	moveq	r0, #4
   13f54:	0a000003 	beq	13f68 <OSSemQuery+0x24>
   13f58:	e5d43000 	ldrb	r3, [r4]
   13f5c:	e3530003 	cmp	r3, #3
   13f60:	13a00001 	movne	r0, #1
   13f64:	0a000001 	beq	13f70 <OSSemQuery+0x2c>
   13f68:	e28dd008 	add	sp, sp, #8
   13f6c:	e8bd8010 	pop	{r4, pc}
   13f70:	e58d1004 	str	r1, [sp, #4]
   13f74:	ebfff32a 	bl	10c24 <OS_CPU_SR_Save>
   13f78:	e5d43001 	ldrb	r3, [r4, #1]
   13f7c:	e59d1004 	ldr	r1, [sp, #4]
   13f80:	e5c1300a 	strb	r3, [r1, #10]
   13f84:	e5d43008 	ldrb	r3, [r4, #8]
   13f88:	e5c13002 	strb	r3, [r1, #2]
   13f8c:	e5d43009 	ldrb	r3, [r4, #9]
   13f90:	e5c13003 	strb	r3, [r1, #3]
   13f94:	e5d4300a 	ldrb	r3, [r4, #10]
   13f98:	e5c13004 	strb	r3, [r1, #4]
   13f9c:	e5d4300b 	ldrb	r3, [r4, #11]
   13fa0:	e5c13005 	strb	r3, [r1, #5]
   13fa4:	e5d4300c 	ldrb	r3, [r4, #12]
   13fa8:	e5c13006 	strb	r3, [r1, #6]
   13fac:	e5d4300d 	ldrb	r3, [r4, #13]
   13fb0:	e5c13007 	strb	r3, [r1, #7]
   13fb4:	e5d4300e 	ldrb	r3, [r4, #14]
   13fb8:	e5c13008 	strb	r3, [r1, #8]
   13fbc:	e5d4300f 	ldrb	r3, [r4, #15]
   13fc0:	e5c13009 	strb	r3, [r1, #9]
   13fc4:	e1d430b2 	ldrh	r3, [r4, #2]
   13fc8:	e1c130b0 	strh	r3, [r1]
   13fcc:	ebfff31c 	bl	10c44 <OS_CPU_SR_Restore>
   13fd0:	e3a00000 	mov	r0, #0
   13fd4:	e28dd008 	add	sp, sp, #8
   13fd8:	e8bd8010 	pop	{r4, pc}

00013fdc <OSTaskChangePrio>:
   13fdc:	e92d43f0 	push	{r4, r5, r6, r7, r8, r9, lr}
   13fe0:	e240303f 	sub	r3, r0, #63	; 0x3f
   13fe4:	e6ef3073 	uxtb	r3, r3
   13fe8:	e35300bf 	cmp	r3, #191	; 0xbf
   13fec:	e24dd00c 	sub	sp, sp, #12
   13ff0:	e1a04000 	mov	r4, r0
   13ff4:	8a000002 	bhi	14004 <OSTaskChangePrio+0x28>
   13ff8:	e3a0002a 	mov	r0, #42	; 0x2a
   13ffc:	e28dd00c 	add	sp, sp, #12
   14000:	e8bd83f0 	pop	{r4, r5, r6, r7, r8, r9, pc}
   14004:	e351003e 	cmp	r1, #62	; 0x3e
   14008:	8afffffa 	bhi	13ff8 <OSTaskChangePrio+0x1c>
   1400c:	e58d1004 	str	r1, [sp, #4]
   14010:	e59f5150 	ldr	r5, [pc, #336]	; 14168 <OSTaskChangePrio+0x18c>
   14014:	ebfff302 	bl	10c24 <OS_CPU_SR_Save>
   14018:	e59d1004 	ldr	r1, [sp, #4]
   1401c:	e7953101 	ldr	r3, [r5, r1, lsl #2]
   14020:	e3530000 	cmp	r3, #0
   14024:	0a000002 	beq	14034 <OSTaskChangePrio+0x58>
   14028:	ebfff305 	bl	10c44 <OS_CPU_SR_Restore>
   1402c:	e3a00028 	mov	r0, #40	; 0x28
   14030:	eafffff1 	b	13ffc <OSTaskChangePrio+0x20>
   14034:	e3a03001 	mov	r3, #1
   14038:	e7853101 	str	r3, [r5, r1, lsl #2]
   1403c:	e58d1004 	str	r1, [sp, #4]
   14040:	ebfff2ff 	bl	10c44 <OS_CPU_SR_Restore>
   14044:	e59d1004 	ldr	r1, [sp, #4]
   14048:	e59f311c 	ldr	r3, [pc, #284]	; 1416c <OSTaskChangePrio+0x190>
   1404c:	e1a061a1 	lsr	r6, r1, #3
   14050:	e2017007 	and	r7, r1, #7
   14054:	e0832006 	add	r2, r3, r6
   14058:	e0833007 	add	r3, r3, r7
   1405c:	e5d38100 	ldrb	r8, [r3, #256]	; 0x100
   14060:	e5d29100 	ldrb	r9, [r2, #256]	; 0x100
   14064:	ebfff2ee 	bl	10c24 <OS_CPU_SR_Save>
   14068:	e35400ff 	cmp	r4, #255	; 0xff
   1406c:	059f30fc 	ldreq	r3, [pc, #252]	; 14170 <OSTaskChangePrio+0x194>
   14070:	e59d1004 	ldr	r1, [sp, #4]
   14074:	05933000 	ldreq	r3, [r3]
   14078:	e59f20e8 	ldr	r2, [pc, #232]	; 14168 <OSTaskChangePrio+0x18c>
   1407c:	05d3402d 	ldrbeq	r4, [r3, #45]	; 0x2d
   14080:	e7953104 	ldr	r3, [r5, r4, lsl #2]
   14084:	e3530000 	cmp	r3, #0
   14088:	0a000032 	beq	14158 <OSTaskChangePrio+0x17c>
   1408c:	e3a0c000 	mov	ip, #0
   14090:	e782c104 	str	ip, [r2, r4, lsl #2]
   14094:	e5d3e02f 	ldrb	lr, [r3, #47]	; 0x2f
   14098:	e59f20d4 	ldr	r2, [pc, #212]	; 14174 <OSTaskChangePrio+0x198>
   1409c:	e5d3c030 	ldrb	ip, [r3, #48]	; 0x30
   140a0:	e7d2400e 	ldrb	r4, [r2, lr]
   140a4:	e114000c 	tst	r4, ip
   140a8:	0a000016 	beq	14108 <OSTaskChangePrio+0x12c>
   140ac:	e1c4c00c 	bic	ip, r4, ip
   140b0:	e7c2c00e 	strb	ip, [r2, lr]
   140b4:	e35c0000 	cmp	ip, #0
   140b8:	e59fc0b8 	ldr	ip, [pc, #184]	; 14178 <OSTaskChangePrio+0x19c>
   140bc:	05d34031 	ldrbeq	r4, [r3, #49]	; 0x31
   140c0:	05dce000 	ldrbeq	lr, [ip]
   140c4:	15dce000 	ldrbne	lr, [ip]
   140c8:	01cee004 	biceq	lr, lr, r4
   140cc:	e7d24006 	ldrb	r4, [r2, r6]
   140d0:	e18ee009 	orr	lr, lr, r9
   140d4:	e1884004 	orr	r4, r8, r4
   140d8:	e5cce000 	strb	lr, [ip]
   140dc:	e7c24006 	strb	r4, [r2, r6]
   140e0:	e7853101 	str	r3, [r5, r1, lsl #2]
   140e4:	e5c3102d 	strb	r1, [r3, #45]	; 0x2d
   140e8:	e5c3602f 	strb	r6, [r3, #47]	; 0x2f
   140ec:	e5c3702e 	strb	r7, [r3, #46]	; 0x2e
   140f0:	e5c39031 	strb	r9, [r3, #49]	; 0x31
   140f4:	e5c38030 	strb	r8, [r3, #48]	; 0x30
   140f8:	ebfff2d1 	bl	10c44 <OS_CPU_SR_Restore>
   140fc:	ebfff4c2 	bl	1140c <OS_Sched>
   14100:	e3a00000 	mov	r0, #0
   14104:	eaffffbc 	b	13ffc <OSTaskChangePrio+0x20>
   14108:	e593201c 	ldr	r2, [r3, #28]
   1410c:	e3520000 	cmp	r2, #0
   14110:	0afffff2 	beq	140e0 <OSTaskChangePrio+0x104>
   14114:	e082e00e 	add	lr, r2, lr
   14118:	e5de4008 	ldrb	r4, [lr, #8]
   1411c:	e1c4c00c 	bic	ip, r4, ip
   14120:	e5cec008 	strb	ip, [lr, #8]
   14124:	e35c0000 	cmp	ip, #0
   14128:	05d3e031 	ldrbeq	lr, [r3, #49]	; 0x31
   1412c:	05d2c001 	ldrbeq	ip, [r2, #1]
   14130:	01ccc00e 	biceq	ip, ip, lr
   14134:	05c2c001 	strbeq	ip, [r2, #1]
   14138:	e082c006 	add	ip, r2, r6
   1413c:	e5dce008 	ldrb	lr, [ip, #8]
   14140:	e5d24001 	ldrb	r4, [r2, #1]
   14144:	e188e00e 	orr	lr, r8, lr
   14148:	e1894004 	orr	r4, r9, r4
   1414c:	e5c24001 	strb	r4, [r2, #1]
   14150:	e5cce008 	strb	lr, [ip, #8]
   14154:	eaffffe1 	b	140e0 <OSTaskChangePrio+0x104>
   14158:	e7823101 	str	r3, [r2, r1, lsl #2]
   1415c:	ebfff2b8 	bl	10c44 <OS_CPU_SR_Restore>
   14160:	e3a00029 	mov	r0, #41	; 0x29
   14164:	eaffffa4 	b	13ffc <OSTaskChangePrio+0x20>
   14168:	00017380 	andeq	r7, r1, r0, lsl #7
   1416c:	00014de0 	andeq	r4, r1, r0, ror #27
   14170:	0001670c 	andeq	r6, r1, ip, lsl #14
   14174:	000166fc 	strdeq	r6, [r1], -ip
   14178:	000166f8 	strdeq	r6, [r1], -r8

0001417c <OSTaskCreate>:
   1417c:	e92d40f0 	push	{r4, r5, r6, r7, lr}
   14180:	e353003f 	cmp	r3, #63	; 0x3f
   14184:	e1a05000 	mov	r5, r0
   14188:	e24dd01c 	sub	sp, sp, #28
   1418c:	e1a04003 	mov	r4, r3
   14190:	83a0002a 	movhi	r0, #42	; 0x2a
   14194:	9a000001 	bls	141a0 <OSTaskCreate+0x24>
   14198:	e28dd01c 	add	sp, sp, #28
   1419c:	e8bd80f0 	pop	{r4, r5, r6, r7, pc}
   141a0:	e59f70b8 	ldr	r7, [pc, #184]	; 14260 <OSTaskCreate+0xe4>
   141a4:	e58d1014 	str	r1, [sp, #20]
   141a8:	e58d2010 	str	r2, [sp, #16]
   141ac:	ebfff29c 	bl	10c24 <OS_CPU_SR_Save>
   141b0:	e7976104 	ldr	r6, [r7, r4, lsl #2]
   141b4:	e3560000 	cmp	r6, #0
   141b8:	0a000003 	beq	141cc <OSTaskCreate+0x50>
   141bc:	ebfff2a0 	bl	10c44 <OS_CPU_SR_Restore>
   141c0:	e3a00028 	mov	r0, #40	; 0x28
   141c4:	e28dd01c 	add	sp, sp, #28
   141c8:	e8bd80f0 	pop	{r4, r5, r6, r7, pc}
   141cc:	e3a03001 	mov	r3, #1
   141d0:	e7873104 	str	r3, [r7, r4, lsl #2]
   141d4:	ebfff29a 	bl	10c44 <OS_CPU_SR_Restore>
   141d8:	e1a00005 	mov	r0, r5
   141dc:	e59d1014 	ldr	r1, [sp, #20]
   141e0:	e59d2010 	ldr	r2, [sp, #16]
   141e4:	e1a03006 	mov	r3, r6
   141e8:	ebfff2d6 	bl	10d48 <OSTaskStkInit>
   141ec:	e58d6000 	str	r6, [sp]
   141f0:	e1a01000 	mov	r1, r0
   141f4:	e58d6004 	str	r6, [sp, #4]
   141f8:	e58d6008 	str	r6, [sp, #8]
   141fc:	e1a00004 	mov	r0, r4
   14200:	e1a02006 	mov	r2, r6
   14204:	e1a03006 	mov	r3, r6
   14208:	ebfff530 	bl	116d0 <OS_TCBInit>
   1420c:	e2505000 	subs	r5, r0, #0
   14210:	1a00000d 	bne	1424c <OSTaskCreate+0xd0>
   14214:	ebfff282 	bl	10c24 <OS_CPU_SR_Save>
   14218:	e59f3044 	ldr	r3, [pc, #68]	; 14264 <OSTaskCreate+0xe8>
   1421c:	e5d32000 	ldrb	r2, [r3]
   14220:	e2822001 	add	r2, r2, #1
   14224:	e5c32000 	strb	r2, [r3]
   14228:	ebfff285 	bl	10c44 <OS_CPU_SR_Restore>
   1422c:	e59f3034 	ldr	r3, [pc, #52]	; 14268 <OSTaskCreate+0xec>
   14230:	e5d33000 	ldrb	r3, [r3]
   14234:	e3530001 	cmp	r3, #1
   14238:	11a00005 	movne	r0, r5
   1423c:	1affffd5 	bne	14198 <OSTaskCreate+0x1c>
   14240:	ebfff471 	bl	1140c <OS_Sched>
   14244:	e1a00005 	mov	r0, r5
   14248:	eaffffd2 	b	14198 <OSTaskCreate+0x1c>
   1424c:	ebfff274 	bl	10c24 <OS_CPU_SR_Save>
   14250:	e7876104 	str	r6, [r7, r4, lsl #2]
   14254:	ebfff27a 	bl	10c44 <OS_CPU_SR_Restore>
   14258:	e1a00005 	mov	r0, r5
   1425c:	eaffffcd 	b	14198 <OSTaskCreate+0x1c>
   14260:	00017380 	andeq	r7, r1, r0, lsl #7
   14264:	00016671 	andeq	r6, r1, r1, ror r6
   14268:	00015db1 			; <UNDEFINED> instruction: 0x00015db1

0001426c <OSTaskCreateExt>:
   1426c:	e92d00f0 	push	{r4, r5, r6, r7}
   14270:	e353003f 	cmp	r3, #63	; 0x3f
   14274:	e1dd71b0 	ldrh	r7, [sp, #16]
   14278:	e1ddc2b0 	ldrh	ip, [sp, #32]
   1427c:	9a000002 	bls	1428c <OSTaskCreateExt+0x20>
   14280:	e8bd00f0 	pop	{r4, r5, r6, r7}
   14284:	e3a0002a 	mov	r0, #42	; 0x2a
   14288:	e12fff1e 	bx	lr
   1428c:	e58d7010 	str	r7, [sp, #16]
   14290:	e58dc020 	str	ip, [sp, #32]
   14294:	e8bd00f0 	pop	{r4, r5, r6, r7}
   14298:	eafff55a 	b	11808 <OSTaskCreateExt.part.0>

0001429c <OSTaskDel>:
   1429c:	e92d41f0 	push	{r4, r5, r6, r7, r8, lr}
   142a0:	e59f31c8 	ldr	r3, [pc, #456]	; 14470 <OSTaskDel+0x1d4>
   142a4:	e1a04000 	mov	r4, r0
   142a8:	e5d33000 	ldrb	r3, [r3]
   142ac:	e3530000 	cmp	r3, #0
   142b0:	0a000001 	beq	142bc <OSTaskDel+0x20>
   142b4:	e3a0003f 	mov	r0, #63	; 0x3f
   142b8:	e8bd81f0 	pop	{r4, r5, r6, r7, r8, pc}
   142bc:	e350003f 	cmp	r0, #63	; 0x3f
   142c0:	0a000005 	beq	142dc <OSTaskDel+0x40>
   142c4:	e240303f 	sub	r3, r0, #63	; 0x3f
   142c8:	e6ef3073 	uxtb	r3, r3
   142cc:	e35300bf 	cmp	r3, #191	; 0xbf
   142d0:	8a000003 	bhi	142e4 <OSTaskDel+0x48>
   142d4:	e3a0002a 	mov	r0, #42	; 0x2a
   142d8:	e8bd81f0 	pop	{r4, r5, r6, r7, r8, pc}
   142dc:	e3a0003d 	mov	r0, #61	; 0x3d
   142e0:	e8bd81f0 	pop	{r4, r5, r6, r7, r8, pc}
   142e4:	ebfff24e 	bl	10c24 <OS_CPU_SR_Save>
   142e8:	e35400ff 	cmp	r4, #255	; 0xff
   142ec:	059f3180 	ldreq	r3, [pc, #384]	; 14474 <OSTaskDel+0x1d8>
   142f0:	e59f7180 	ldr	r7, [pc, #384]	; 14478 <OSTaskDel+0x1dc>
   142f4:	05933000 	ldreq	r3, [r3]
   142f8:	05d3402d 	ldrbeq	r4, [r3, #45]	; 0x2d
   142fc:	e7975104 	ldr	r5, [r7, r4, lsl #2]
   14300:	e3550000 	cmp	r5, #0
   14304:	0a000051 	beq	14450 <OSTaskDel+0x1b4>
   14308:	e59f216c 	ldr	r2, [pc, #364]	; 1447c <OSTaskDel+0x1e0>
   1430c:	e5d5302f 	ldrb	r3, [r5, #47]	; 0x2f
   14310:	e5d5c030 	ldrb	ip, [r5, #48]	; 0x30
   14314:	e7d21003 	ldrb	r1, [r2, r3]
   14318:	e1e0c00c 	mvn	ip, ip
   1431c:	e6efc07c 	uxtb	ip, ip
   14320:	e001100c 	and	r1, r1, ip
   14324:	e3510000 	cmp	r1, #0
   14328:	e7c21003 	strb	r1, [r2, r3]
   1432c:	059f214c 	ldreq	r2, [pc, #332]	; 14480 <OSTaskDel+0x1e4>
   14330:	05d5e031 	ldrbeq	lr, [r5, #49]	; 0x31
   14334:	05d21000 	ldrbeq	r1, [r2]
   14338:	01c1100e 	biceq	r1, r1, lr
   1433c:	05c21000 	strbeq	r1, [r2]
   14340:	e595201c 	ldr	r2, [r5, #28]
   14344:	e3520000 	cmp	r2, #0
   14348:	0a000008 	beq	14370 <OSTaskDel+0xd4>
   1434c:	e0823003 	add	r3, r2, r3
   14350:	e5d31008 	ldrb	r1, [r3, #8]
   14354:	e001c00c 	and	ip, r1, ip
   14358:	e35c0000 	cmp	ip, #0
   1435c:	e5c3c008 	strb	ip, [r3, #8]
   14360:	05d51031 	ldrbeq	r1, [r5, #49]	; 0x31
   14364:	05d23001 	ldrbeq	r3, [r2, #1]
   14368:	01c33001 	biceq	r3, r3, r1
   1436c:	05c23001 	strbeq	r3, [r2, #1]
   14370:	e5953024 	ldr	r3, [r5, #36]	; 0x24
   14374:	e3530000 	cmp	r3, #0
   14378:	0a00000a 	beq	143a8 <OSTaskDel+0x10c>
   1437c:	e5931004 	ldr	r1, [r3, #4]
   14380:	e5932000 	ldr	r2, [r3]
   14384:	e3510000 	cmp	r1, #0
   14388:	0a000033 	beq	1445c <OSTaskDel+0x1c0>
   1438c:	e3520000 	cmp	r2, #0
   14390:	e5812000 	str	r2, [r1]
   14394:	0a000000 	beq	1439c <OSTaskDel+0x100>
   14398:	e5821004 	str	r1, [r2, #4]
   1439c:	e5933008 	ldr	r3, [r3, #8]
   143a0:	e3a02000 	mov	r2, #0
   143a4:	e5832024 	str	r2, [r3, #36]	; 0x24
   143a8:	e59f60d4 	ldr	r6, [pc, #212]	; 14484 <OSTaskDel+0x1e8>
   143ac:	e3a03000 	mov	r3, #0
   143b0:	e5d62000 	ldrb	r2, [r6]
   143b4:	e1c532ba 	strh	r3, [r5, #42]	; 0x2a
   143b8:	e35200ff 	cmp	r2, #255	; 0xff
   143bc:	12822001 	addne	r2, r2, #1
   143c0:	e5c5302c 	strb	r3, [r5, #44]	; 0x2c
   143c4:	15c62000 	strbne	r2, [r6]
   143c8:	ebfff21d 	bl	10c44 <OS_CPU_SR_Restore>
   143cc:	ebfff214 	bl	10c24 <OS_CPU_SR_Save>
   143d0:	e5d63000 	ldrb	r3, [r6]
   143d4:	e59f20a8 	ldr	r2, [pc, #168]	; 14484 <OSTaskDel+0x1e8>
   143d8:	e3530000 	cmp	r3, #0
   143dc:	12433001 	subne	r3, r3, #1
   143e0:	e1a08000 	mov	r8, r0
   143e4:	e1a00005 	mov	r0, r5
   143e8:	15c23000 	strbne	r3, [r2]
   143ec:	ebfff286 	bl	10e0c <OSTaskDelHook>
   143f0:	e59f2090 	ldr	r2, [pc, #144]	; 14488 <OSTaskDel+0x1ec>
   143f4:	e3a03000 	mov	r3, #0
   143f8:	e5d21000 	ldrb	r1, [r2]
   143fc:	e7873104 	str	r3, [r7, r4, lsl #2]
   14400:	e5953018 	ldr	r3, [r5, #24]
   14404:	e2411001 	sub	r1, r1, #1
   14408:	e5c21000 	strb	r1, [r2]
   1440c:	e5952014 	ldr	r2, [r5, #20]
   14410:	e3530000 	cmp	r3, #0
   14414:	15832014 	strne	r2, [r3, #20]
   14418:	15952014 	ldrne	r2, [r5, #20]
   1441c:	05823018 	streq	r3, [r2, #24]
   14420:	15823018 	strne	r3, [r2, #24]
   14424:	059f1060 	ldreq	r1, [pc, #96]	; 1448c <OSTaskDel+0x1f0>
   14428:	e59f3060 	ldr	r3, [pc, #96]	; 14490 <OSTaskDel+0x1f4>
   1442c:	05812000 	streq	r2, [r1]
   14430:	e5932000 	ldr	r2, [r3]
   14434:	e1a00008 	mov	r0, r8
   14438:	e5852014 	str	r2, [r5, #20]
   1443c:	e5835000 	str	r5, [r3]
   14440:	ebfff1ff 	bl	10c44 <OS_CPU_SR_Restore>
   14444:	ebfff3f0 	bl	1140c <OS_Sched>
   14448:	e3a00000 	mov	r0, #0
   1444c:	e8bd81f0 	pop	{r4, r5, r6, r7, r8, pc}
   14450:	ebfff1fb 	bl	10c44 <OS_CPU_SR_Restore>
   14454:	e3a0003c 	mov	r0, #60	; 0x3c
   14458:	e8bd81f0 	pop	{r4, r5, r6, r7, r8, pc}
   1445c:	e593c00c 	ldr	ip, [r3, #12]
   14460:	e3520000 	cmp	r2, #0
   14464:	e58c2004 	str	r2, [ip, #4]
   14468:	1affffca 	bne	14398 <OSTaskDel+0xfc>
   1446c:	eaffffca 	b	1439c <OSTaskDel+0x100>
   14470:	00016709 	andeq	r6, r1, r9, lsl #14
   14474:	0001670c 	andeq	r6, r1, ip, lsl #14
   14478:	00017380 	andeq	r7, r1, r0, lsl #7
   1447c:	000166fc 	strdeq	r6, [r1], -ip
   14480:	000166f8 	strdeq	r6, [r1], -r8
   14484:	00015db0 			; <UNDEFINED> instruction: 0x00015db0
   14488:	00016671 	andeq	r6, r1, r1, ror r6
   1448c:	00015dfc 	strdeq	r5, [r1], -ip
   14490:	0001666c 	andeq	r6, r1, ip, ror #12

00014494 <OSTaskDelReq>:
   14494:	e350003f 	cmp	r0, #63	; 0x3f
   14498:	e92d4010 	push	{r4, lr}
   1449c:	e1a04000 	mov	r4, r0
   144a0:	0a000005 	beq	144bc <OSTaskDelReq+0x28>
   144a4:	e240303f 	sub	r3, r0, #63	; 0x3f
   144a8:	e6ef3073 	uxtb	r3, r3
   144ac:	e35300bf 	cmp	r3, #191	; 0xbf
   144b0:	8a000003 	bhi	144c4 <OSTaskDelReq+0x30>
   144b4:	e3a0002a 	mov	r0, #42	; 0x2a
   144b8:	e8bd8010 	pop	{r4, pc}
   144bc:	e3a0003d 	mov	r0, #61	; 0x3d
   144c0:	e8bd8010 	pop	{r4, pc}
   144c4:	e35000ff 	cmp	r0, #255	; 0xff
   144c8:	0a00000a 	beq	144f8 <OSTaskDelReq+0x64>
   144cc:	ebfff1d4 	bl	10c24 <OS_CPU_SR_Save>
   144d0:	e59f303c 	ldr	r3, [pc, #60]	; 14514 <OSTaskDelReq+0x80>
   144d4:	e7933104 	ldr	r3, [r3, r4, lsl #2]
   144d8:	e3530000 	cmp	r3, #0
   144dc:	13a0203e 	movne	r2, #62	; 0x3e
   144e0:	13a04000 	movne	r4, #0
   144e4:	03a0400b 	moveq	r4, #11
   144e8:	15c32032 	strbne	r2, [r3, #50]	; 0x32
   144ec:	ebfff1d4 	bl	10c44 <OS_CPU_SR_Restore>
   144f0:	e1a00004 	mov	r0, r4
   144f4:	e8bd8010 	pop	{r4, pc}
   144f8:	ebfff1c9 	bl	10c24 <OS_CPU_SR_Save>
   144fc:	e59f3014 	ldr	r3, [pc, #20]	; 14518 <OSTaskDelReq+0x84>
   14500:	e5933000 	ldr	r3, [r3]
   14504:	e5d34032 	ldrb	r4, [r3, #50]	; 0x32
   14508:	ebfff1cd 	bl	10c44 <OS_CPU_SR_Restore>
   1450c:	e1a00004 	mov	r0, r4
   14510:	e8bd8010 	pop	{r4, pc}
   14514:	00017380 	andeq	r7, r1, r0, lsl #7
   14518:	0001670c 	andeq	r6, r1, ip, lsl #14

0001451c <OSTaskResume>:
   1451c:	e350003e 	cmp	r0, #62	; 0x3e
   14520:	e92d4070 	push	{r4, r5, r6, lr}
   14524:	e1a04000 	mov	r4, r0
   14528:	9a000001 	bls	14534 <OSTaskResume+0x18>
   1452c:	e3a0002a 	mov	r0, #42	; 0x2a
   14530:	e8bd8070 	pop	{r4, r5, r6, pc}
   14534:	ebfff1ba 	bl	10c24 <OS_CPU_SR_Save>
   14538:	e59f3098 	ldr	r3, [pc, #152]	; 145d8 <OSTaskResume+0xbc>
   1453c:	e1a01000 	mov	r1, r0
   14540:	e7933104 	ldr	r3, [r3, r4, lsl #2]
   14544:	e3530000 	cmp	r3, #0
   14548:	0a00001f 	beq	145cc <OSTaskResume+0xb0>
   1454c:	e5d3202c 	ldrb	r2, [r3, #44]	; 0x2c
   14550:	e3120008 	tst	r2, #8
   14554:	0a00000a 	beq	14584 <OSTaskResume+0x68>
   14558:	e20220f7 	and	r2, r2, #247	; 0xf7
   1455c:	e3520000 	cmp	r2, #0
   14560:	e5c3202c 	strb	r2, [r3, #44]	; 0x2c
   14564:	1a000002 	bne	14574 <OSTaskResume+0x58>
   14568:	e1d342ba 	ldrh	r4, [r3, #42]	; 0x2a
   1456c:	e3540000 	cmp	r4, #0
   14570:	0a000006 	beq	14590 <OSTaskResume+0x74>
   14574:	e1a00001 	mov	r0, r1
   14578:	ebfff1b1 	bl	10c44 <OS_CPU_SR_Restore>
   1457c:	e3a00000 	mov	r0, #0
   14580:	e8bd8070 	pop	{r4, r5, r6, pc}
   14584:	ebfff1ae 	bl	10c44 <OS_CPU_SR_Restore>
   14588:	e3a00065 	mov	r0, #101	; 0x65
   1458c:	e8bd8070 	pop	{r4, r5, r6, pc}
   14590:	e5d3202f 	ldrb	r2, [r3, #47]	; 0x2f
   14594:	e59fc040 	ldr	ip, [pc, #64]	; 145dc <OSTaskResume+0xc0>
   14598:	e59f1040 	ldr	r1, [pc, #64]	; 145e0 <OSTaskResume+0xc4>
   1459c:	e5dc6000 	ldrb	r6, [ip]
   145a0:	e7d15002 	ldrb	r5, [r1, r2]
   145a4:	e5d3e031 	ldrb	lr, [r3, #49]	; 0x31
   145a8:	e5d33030 	ldrb	r3, [r3, #48]	; 0x30
   145ac:	e186e00e 	orr	lr, r6, lr
   145b0:	e1853003 	orr	r3, r5, r3
   145b4:	e5cce000 	strb	lr, [ip]
   145b8:	e7c13002 	strb	r3, [r1, r2]
   145bc:	ebfff1a0 	bl	10c44 <OS_CPU_SR_Restore>
   145c0:	ebfff391 	bl	1140c <OS_Sched>
   145c4:	e1a00004 	mov	r0, r4
   145c8:	e8bd8070 	pop	{r4, r5, r6, pc}
   145cc:	ebfff19c 	bl	10c44 <OS_CPU_SR_Restore>
   145d0:	e3a00064 	mov	r0, #100	; 0x64
   145d4:	e8bd8070 	pop	{r4, r5, r6, pc}
   145d8:	00017380 	andeq	r7, r1, r0, lsl #7
   145dc:	000166f8 	strdeq	r6, [r1], -r8
   145e0:	000166fc 	strdeq	r6, [r1], -ip

000145e4 <OSTaskStkChk>:
   145e4:	e2403040 	sub	r3, r0, #64	; 0x40
   145e8:	e6ef3073 	uxtb	r3, r3
   145ec:	e35300be 	cmp	r3, #190	; 0xbe
   145f0:	e92d4070 	push	{r4, r5, r6, lr}
   145f4:	e1a04000 	mov	r4, r0
   145f8:	e1a05001 	mov	r5, r1
   145fc:	8a000001 	bhi	14608 <OSTaskStkChk+0x24>
   14600:	e3a0002a 	mov	r0, #42	; 0x2a
   14604:	e8bd8070 	pop	{r4, r5, r6, pc}
   14608:	e3a03000 	mov	r3, #0
   1460c:	e5813000 	str	r3, [r1]
   14610:	e5813004 	str	r3, [r1, #4]
   14614:	ebfff182 	bl	10c24 <OS_CPU_SR_Save>
   14618:	e35400ff 	cmp	r4, #255	; 0xff
   1461c:	059f3088 	ldreq	r3, [pc, #136]	; 146ac <OSTaskStkChk+0xc8>
   14620:	05933000 	ldreq	r3, [r3]
   14624:	05d3402d 	ldrbeq	r4, [r3, #45]	; 0x2d
   14628:	e59f3080 	ldr	r3, [pc, #128]	; 146b0 <OSTaskStkChk+0xcc>
   1462c:	e7933104 	ldr	r3, [r3, r4, lsl #2]
   14630:	e3530000 	cmp	r3, #0
   14634:	0a000016 	beq	14694 <OSTaskStkChk+0xb0>
   14638:	e1d321b0 	ldrh	r2, [r3, #16]
   1463c:	e3120001 	tst	r2, #1
   14640:	1a000002 	bne	14650 <OSTaskStkChk+0x6c>
   14644:	ebfff17e 	bl	10c44 <OS_CPU_SR_Restore>
   14648:	e3a00082 	mov	r0, #130	; 0x82
   1464c:	e8bd8070 	pop	{r4, r5, r6, pc}
   14650:	e5934008 	ldr	r4, [r3, #8]
   14654:	e593600c 	ldr	r6, [r3, #12]
   14658:	ebfff179 	bl	10c44 <OS_CPU_SR_Restore>
   1465c:	e5943000 	ldr	r3, [r4]
   14660:	e3530000 	cmp	r3, #0
   14664:	1a00000d 	bne	146a0 <OSTaskStkChk+0xbc>
   14668:	e1a02004 	mov	r2, r4
   1466c:	e5b21004 	ldr	r1, [r2, #4]!
   14670:	e2833001 	add	r3, r3, #1
   14674:	e3510000 	cmp	r1, #0
   14678:	0afffffb 	beq	1466c <OSTaskStkChk+0x88>
   1467c:	e1a02103 	lsl	r2, r3, #2
   14680:	e0633006 	rsb	r3, r3, r6
   14684:	e1a03103 	lsl	r3, r3, #2
   14688:	e885000c 	stm	r5, {r2, r3}
   1468c:	e3a00000 	mov	r0, #0
   14690:	e8bd8070 	pop	{r4, r5, r6, pc}
   14694:	ebfff16a 	bl	10c44 <OS_CPU_SR_Restore>
   14698:	e3a0000b 	mov	r0, #11
   1469c:	e8bd8070 	pop	{r4, r5, r6, pc}
   146a0:	e3a02000 	mov	r2, #0
   146a4:	e1a03002 	mov	r3, r2
   146a8:	eafffff4 	b	14680 <OSTaskStkChk+0x9c>
   146ac:	0001670c 	andeq	r6, r1, ip, lsl #14
   146b0:	00017380 	andeq	r7, r1, r0, lsl #7

000146b4 <OSTaskSuspend>:
   146b4:	e350003f 	cmp	r0, #63	; 0x3f
   146b8:	e92d4038 	push	{r3, r4, r5, lr}
   146bc:	e1a04000 	mov	r4, r0
   146c0:	0a000005 	beq	146dc <OSTaskSuspend+0x28>
   146c4:	e240303f 	sub	r3, r0, #63	; 0x3f
   146c8:	e6ef3073 	uxtb	r3, r3
   146cc:	e35300bf 	cmp	r3, #191	; 0xbf
   146d0:	8a000003 	bhi	146e4 <OSTaskSuspend+0x30>
   146d4:	e3a0002a 	mov	r0, #42	; 0x2a
   146d8:	e8bd8038 	pop	{r3, r4, r5, pc}
   146dc:	e3a0005b 	mov	r0, #91	; 0x5b
   146e0:	e8bd8038 	pop	{r3, r4, r5, pc}
   146e4:	ebfff14e 	bl	10c24 <OS_CPU_SR_Save>
   146e8:	e35400ff 	cmp	r4, #255	; 0xff
   146ec:	e59f309c 	ldr	r3, [pc, #156]	; 14790 <OSTaskSuspend+0xdc>
   146f0:	0a00001c 	beq	14768 <OSTaskSuspend+0xb4>
   146f4:	e5933000 	ldr	r3, [r3]
   146f8:	e5d3502d 	ldrb	r5, [r3, #45]	; 0x2d
   146fc:	e0553004 	subs	r3, r5, r4
   14700:	e2735000 	rsbs	r5, r3, #0
   14704:	e0b55003 	adcs	r5, r5, r3
   14708:	e59f3084 	ldr	r3, [pc, #132]	; 14794 <OSTaskSuspend+0xe0>
   1470c:	e7933104 	ldr	r3, [r3, r4, lsl #2]
   14710:	e3530000 	cmp	r3, #0
   14714:	0a00001a 	beq	14784 <OSTaskSuspend+0xd0>
   14718:	e5d3202f 	ldrb	r2, [r3, #47]	; 0x2f
   1471c:	e59f1074 	ldr	r1, [pc, #116]	; 14798 <OSTaskSuspend+0xe4>
   14720:	e5d3e030 	ldrb	lr, [r3, #48]	; 0x30
   14724:	e7d1c002 	ldrb	ip, [r1, r2]
   14728:	e1ccc00e 	bic	ip, ip, lr
   1472c:	e35c0000 	cmp	ip, #0
   14730:	e7c1c002 	strb	ip, [r1, r2]
   14734:	059f2060 	ldreq	r2, [pc, #96]	; 1479c <OSTaskSuspend+0xe8>
   14738:	05d3c031 	ldrbeq	ip, [r3, #49]	; 0x31
   1473c:	05d21000 	ldrbeq	r1, [r2]
   14740:	01c1100c 	biceq	r1, r1, ip
   14744:	05c21000 	strbeq	r1, [r2]
   14748:	e5d3202c 	ldrb	r2, [r3, #44]	; 0x2c
   1474c:	e3822008 	orr	r2, r2, #8
   14750:	e5c3202c 	strb	r2, [r3, #44]	; 0x2c
   14754:	ebfff13a 	bl	10c44 <OS_CPU_SR_Restore>
   14758:	e3550001 	cmp	r5, #1
   1475c:	0a000005 	beq	14778 <OSTaskSuspend+0xc4>
   14760:	e3a00000 	mov	r0, #0
   14764:	e8bd8038 	pop	{r3, r4, r5, pc}
   14768:	e5933000 	ldr	r3, [r3]
   1476c:	e3a05001 	mov	r5, #1
   14770:	e5d3402d 	ldrb	r4, [r3, #45]	; 0x2d
   14774:	eaffffe3 	b	14708 <OSTaskSuspend+0x54>
   14778:	ebfff323 	bl	1140c <OS_Sched>
   1477c:	e3a00000 	mov	r0, #0
   14780:	e8bd8038 	pop	{r3, r4, r5, pc}
   14784:	ebfff12e 	bl	10c44 <OS_CPU_SR_Restore>
   14788:	e3a0005a 	mov	r0, #90	; 0x5a
   1478c:	e8bd8038 	pop	{r3, r4, r5, pc}
   14790:	0001670c 	andeq	r6, r1, ip, lsl #14
   14794:	00017380 	andeq	r7, r1, r0, lsl #7
   14798:	000166fc 	strdeq	r6, [r1], -ip
   1479c:	000166f8 	strdeq	r6, [r1], -r8

000147a0 <OSTaskQuery>:
   147a0:	e92d4030 	push	{r4, r5, lr}
   147a4:	e2403040 	sub	r3, r0, #64	; 0x40
   147a8:	e6ef3073 	uxtb	r3, r3
   147ac:	e35300be 	cmp	r3, #190	; 0xbe
   147b0:	e1a04000 	mov	r4, r0
   147b4:	e24dd00c 	sub	sp, sp, #12
   147b8:	93a0002a 	movls	r0, #42	; 0x2a
   147bc:	8a000001 	bhi	147c8 <OSTaskQuery+0x28>
   147c0:	e28dd00c 	add	sp, sp, #12
   147c4:	e8bd8030 	pop	{r4, r5, pc}
   147c8:	e58d1004 	str	r1, [sp, #4]
   147cc:	ebfff114 	bl	10c24 <OS_CPU_SR_Save>
   147d0:	e35400ff 	cmp	r4, #255	; 0xff
   147d4:	059f304c 	ldreq	r3, [pc, #76]	; 14828 <OSTaskQuery+0x88>
   147d8:	e1a05000 	mov	r5, r0
   147dc:	05933000 	ldreq	r3, [r3]
   147e0:	e59d1004 	ldr	r1, [sp, #4]
   147e4:	05d3402d 	ldrbeq	r4, [r3, #45]	; 0x2d
   147e8:	e59f303c 	ldr	r3, [pc, #60]	; 1482c <OSTaskQuery+0x8c>
   147ec:	e7933104 	ldr	r3, [r3, r4, lsl #2]
   147f0:	e3530000 	cmp	r3, #0
   147f4:	0a000008 	beq	1481c <OSTaskQuery+0x7c>
   147f8:	e3a02034 	mov	r2, #52	; 0x34
   147fc:	e1a00001 	mov	r0, r1
   14800:	e1a01003 	mov	r1, r3
   14804:	eb000092 	bl	14a54 <memcpy>
   14808:	e1a00005 	mov	r0, r5
   1480c:	ebfff10c 	bl	10c44 <OS_CPU_SR_Restore>
   14810:	e3a00000 	mov	r0, #0
   14814:	e28dd00c 	add	sp, sp, #12
   14818:	e8bd8030 	pop	{r4, r5, pc}
   1481c:	ebfff108 	bl	10c44 <OS_CPU_SR_Restore>
   14820:	e3a00029 	mov	r0, #41	; 0x29
   14824:	eaffffe5 	b	147c0 <OSTaskQuery+0x20>
   14828:	0001670c 	andeq	r6, r1, ip, lsl #14
   1482c:	00017380 	andeq	r7, r1, r0, lsl #7

00014830 <OSTimeDly>:
   14830:	e3500000 	cmp	r0, #0
   14834:	012fff1e 	bxeq	lr
   14838:	eafff344 	b	11550 <OSTimeDly.part.1>

0001483c <OSTimeDlyHMSM>:
   1483c:	e181c002 	orr	ip, r1, r2
   14840:	e190c00c 	orrs	ip, r0, ip
   14844:	e92d4010 	push	{r4, lr}
   14848:	1a000003 	bne	1485c <OSTimeDlyHMSM+0x20>
   1484c:	e3530000 	cmp	r3, #0
   14850:	1a000001 	bne	1485c <OSTimeDlyHMSM+0x20>
   14854:	e3a00054 	mov	r0, #84	; 0x54
   14858:	e8bd8010 	pop	{r4, pc}
   1485c:	e351003b 	cmp	r1, #59	; 0x3b
   14860:	9a000001 	bls	1486c <OSTimeDlyHMSM+0x30>
   14864:	e3a00051 	mov	r0, #81	; 0x51
   14868:	e8bd8010 	pop	{r4, pc}
   1486c:	e352003b 	cmp	r2, #59	; 0x3b
   14870:	9a000001 	bls	1487c <OSTimeDlyHMSM+0x40>
   14874:	e3a00052 	mov	r0, #82	; 0x52
   14878:	e8bd8010 	pop	{r4, pc}
   1487c:	e3530ffa 	cmp	r3, #1000	; 0x3e8
   14880:	3a000001 	bcc	1488c <OSTimeDlyHMSM+0x50>
   14884:	e3a00053 	mov	r0, #83	; 0x53
   14888:	e8bd8010 	pop	{r4, pc}
   1488c:	e3a0c064 	mov	ip, #100	; 0x64
   14890:	e003039c 	mul	r3, ip, r3
   14894:	e3a0403c 	mov	r4, #60	; 0x3c
   14898:	e1022184 	smlabb	r2, r4, r1, r2
   1489c:	e59f1058 	ldr	r1, [pc, #88]	; 148fc <OSTimeDlyHMSM+0xc0>
   148a0:	e2833f7d 	add	r3, r3, #500	; 0x1f4
   148a4:	e0834391 	umull	r4, r3, r1, r3
   148a8:	e3a04ee1 	mov	r4, #3600	; 0xe10
   148ac:	e0202094 	mla	r0, r4, r0, r2
   148b0:	e1a03323 	lsr	r3, r3, #6
   148b4:	e024309c 	mla	r4, ip, r0, r3
   148b8:	e6ff0074 	uxth	r0, r4
   148bc:	e3500000 	cmp	r0, #0
   148c0:	e1a04824 	lsr	r4, r4, #16
   148c4:	0a000006 	beq	148e4 <OSTimeDlyHMSM+0xa8>
   148c8:	ea000009 	b	148f4 <OSTimeDlyHMSM+0xb8>
   148cc:	e3a00902 	mov	r0, #32768	; 0x8000
   148d0:	ebfff31e 	bl	11550 <OSTimeDly.part.1>
   148d4:	e3a00902 	mov	r0, #32768	; 0x8000
   148d8:	ebfff31c 	bl	11550 <OSTimeDly.part.1>
   148dc:	e2444001 	sub	r4, r4, #1
   148e0:	e6ff4074 	uxth	r4, r4
   148e4:	e3540000 	cmp	r4, #0
   148e8:	1afffff7 	bne	148cc <OSTimeDlyHMSM+0x90>
   148ec:	e3a00000 	mov	r0, #0
   148f0:	e8bd8010 	pop	{r4, pc}
   148f4:	ebfff315 	bl	11550 <OSTimeDly.part.1>
   148f8:	eafffff9 	b	148e4 <OSTimeDlyHMSM+0xa8>
   148fc:	10624dd3 	ldrdne	r4, [r2], #-211	; 0xffffff2d	; <UNPREDICTABLE>

00014900 <OSTimeDlyResume>:
   14900:	e350003e 	cmp	r0, #62	; 0x3e
   14904:	e92d4070 	push	{r4, r5, r6, lr}
   14908:	e1a04000 	mov	r4, r0
   1490c:	9a000001 	bls	14918 <OSTimeDlyResume+0x18>
   14910:	e3a0002a 	mov	r0, #42	; 0x2a
   14914:	e8bd8070 	pop	{r4, r5, r6, pc}
   14918:	ebfff0c1 	bl	10c24 <OS_CPU_SR_Save>
   1491c:	e59f308c 	ldr	r3, [pc, #140]	; 149b0 <OSTimeDlyResume+0xb0>
   14920:	e7933104 	ldr	r3, [r3, r4, lsl #2]
   14924:	e3530000 	cmp	r3, #0
   14928:	0a00001d 	beq	149a4 <OSTimeDlyResume+0xa4>
   1492c:	e1d322ba 	ldrh	r2, [r3, #42]	; 0x2a
   14930:	e3520000 	cmp	r2, #0
   14934:	0a000014 	beq	1498c <OSTimeDlyResume+0x8c>
   14938:	e5d3202c 	ldrb	r2, [r3, #44]	; 0x2c
   1493c:	e3a04000 	mov	r4, #0
   14940:	e2022008 	and	r2, r2, #8
   14944:	e21250ff 	ands	r5, r2, #255	; 0xff
   14948:	e1c342ba 	strh	r4, [r3, #42]	; 0x2a
   1494c:	1a000011 	bne	14998 <OSTimeDlyResume+0x98>
   14950:	e5d3202f 	ldrb	r2, [r3, #47]	; 0x2f
   14954:	e59fc058 	ldr	ip, [pc, #88]	; 149b4 <OSTimeDlyResume+0xb4>
   14958:	e59f1058 	ldr	r1, [pc, #88]	; 149b8 <OSTimeDlyResume+0xb8>
   1495c:	e5dc6000 	ldrb	r6, [ip]
   14960:	e7d14002 	ldrb	r4, [r1, r2]
   14964:	e5d3e031 	ldrb	lr, [r3, #49]	; 0x31
   14968:	e5d33030 	ldrb	r3, [r3, #48]	; 0x30
   1496c:	e186e00e 	orr	lr, r6, lr
   14970:	e1843003 	orr	r3, r4, r3
   14974:	e5cce000 	strb	lr, [ip]
   14978:	e7c13002 	strb	r3, [r1, r2]
   1497c:	ebfff0b0 	bl	10c44 <OS_CPU_SR_Restore>
   14980:	ebfff2a1 	bl	1140c <OS_Sched>
   14984:	e1a00005 	mov	r0, r5
   14988:	e8bd8070 	pop	{r4, r5, r6, pc}
   1498c:	ebfff0ac 	bl	10c44 <OS_CPU_SR_Restore>
   14990:	e3a00050 	mov	r0, #80	; 0x50
   14994:	e8bd8070 	pop	{r4, r5, r6, pc}
   14998:	ebfff0a9 	bl	10c44 <OS_CPU_SR_Restore>
   1499c:	e1a00004 	mov	r0, r4
   149a0:	e8bd8070 	pop	{r4, r5, r6, pc}
   149a4:	ebfff0a6 	bl	10c44 <OS_CPU_SR_Restore>
   149a8:	e3a0000b 	mov	r0, #11
   149ac:	e8bd8070 	pop	{r4, r5, r6, pc}
   149b0:	00017380 	andeq	r7, r1, r0, lsl #7
   149b4:	000166f8 	strdeq	r6, [r1], -r8
   149b8:	000166fc 	strdeq	r6, [r1], -ip

000149bc <OSTimeGet>:
   149bc:	e92d4010 	push	{r4, lr}
   149c0:	ebfff097 	bl	10c24 <OS_CPU_SR_Save>
   149c4:	e59f300c 	ldr	r3, [pc, #12]	; 149d8 <OSTimeGet+0x1c>
   149c8:	e5934000 	ldr	r4, [r3]
   149cc:	ebfff09c 	bl	10c44 <OS_CPU_SR_Restore>
   149d0:	e1a00004 	mov	r0, r4
   149d4:	e8bd8010 	pop	{r4, pc}
   149d8:	00016710 	andeq	r6, r1, r0, lsl r7

000149dc <OSTimeSet>:
   149dc:	e92d4010 	push	{r4, lr}
   149e0:	e1a04000 	mov	r4, r0
   149e4:	ebfff08e 	bl	10c24 <OS_CPU_SR_Save>
   149e8:	e59f3008 	ldr	r3, [pc, #8]	; 149f8 <OSTimeSet+0x1c>
   149ec:	e5834000 	str	r4, [r3]
   149f0:	e8bd4010 	pop	{r4, lr}
   149f4:	eafff092 	b	10c44 <OS_CPU_SR_Restore>
   149f8:	00016710 	andeq	r6, r1, r0, lsl r7

000149fc <userApp2>:
   149fc:	e92d4008 	push	{r3, lr}
   14a00:	e3a00000 	mov	r0, #0
   14a04:	e1a03000 	mov	r3, r0
   14a08:	e59f1024 	ldr	r1, [pc, #36]	; 14a34 <userApp2+0x38>
   14a0c:	e3a02064 	mov	r2, #100	; 0x64
   14a10:	ebffee7e 	bl	10410 <uartRecv>
   14a14:	e1a02000 	mov	r2, r0
   14a18:	e3520064 	cmp	r2, #100	; 0x64
   14a1c:	e3a00000 	mov	r0, #0
   14a20:	e59f100c 	ldr	r1, [pc, #12]	; 14a34 <userApp2+0x38>
   14a24:	e1a03000 	mov	r3, r0
   14a28:	1afffff4 	bne	14a00 <userApp2+0x4>
   14a2c:	ebffee86 	bl	1044c <uartTransmit>
   14a30:	eafffff2 	b	14a00 <userApp2+0x4>
   14a34:	00015770 	andeq	r5, r1, r0, ror r7

00014a38 <userApp1>:
   14a38:	e92d4008 	push	{r3, lr}
   14a3c:	e59f000c 	ldr	r0, [pc, #12]	; 14a50 <userApp1+0x18>
   14a40:	ebffed71 	bl	1000c <GET32>
   14a44:	e3a00064 	mov	r0, #100	; 0x64
   14a48:	ebffff78 	bl	14830 <OSTimeDly>
   14a4c:	eafffffa 	b	14a3c <userApp1+0x4>
   14a50:	20215048 	eorcs	r5, r1, r8, asr #32

00014a54 <memcpy>:
   14a54:	e352000f 	cmp	r2, #15
   14a58:	e92d00f0 	push	{r4, r5, r6, r7}
   14a5c:	9a00002a 	bls	14b0c <memcpy+0xb8>
   14a60:	e1813000 	orr	r3, r1, r0
   14a64:	e3130003 	tst	r3, #3
   14a68:	1a000032 	bne	14b38 <memcpy+0xe4>
   14a6c:	e1a0c001 	mov	ip, r1
   14a70:	e1a03000 	mov	r3, r0
   14a74:	e1a04002 	mov	r4, r2
   14a78:	e59c5000 	ldr	r5, [ip]
   14a7c:	e5835000 	str	r5, [r3]
   14a80:	e59c5004 	ldr	r5, [ip, #4]
   14a84:	e5835004 	str	r5, [r3, #4]
   14a88:	e59c5008 	ldr	r5, [ip, #8]
   14a8c:	e5835008 	str	r5, [r3, #8]
   14a90:	e2444010 	sub	r4, r4, #16
   14a94:	e59c500c 	ldr	r5, [ip, #12]
   14a98:	e354000f 	cmp	r4, #15
   14a9c:	e583500c 	str	r5, [r3, #12]
   14aa0:	e28cc010 	add	ip, ip, #16
   14aa4:	e2833010 	add	r3, r3, #16
   14aa8:	8afffff2 	bhi	14a78 <memcpy+0x24>
   14aac:	e2424010 	sub	r4, r2, #16
   14ab0:	e3c4400f 	bic	r4, r4, #15
   14ab4:	e202c00f 	and	ip, r2, #15
   14ab8:	e2844010 	add	r4, r4, #16
   14abc:	e35c0003 	cmp	ip, #3
   14ac0:	e0803004 	add	r3, r0, r4
   14ac4:	e0811004 	add	r1, r1, r4
   14ac8:	9a00001c 	bls	14b40 <memcpy+0xec>
   14acc:	e24cc004 	sub	ip, ip, #4
   14ad0:	e1a0712c 	lsr	r7, ip, #2
   14ad4:	e0816107 	add	r6, r1, r7, lsl #2
   14ad8:	e1a0c001 	mov	ip, r1
   14adc:	e2866004 	add	r6, r6, #4
   14ae0:	e1a04003 	mov	r4, r3
   14ae4:	e49c5004 	ldr	r5, [ip], #4
   14ae8:	e15c0006 	cmp	ip, r6
   14aec:	e4845004 	str	r5, [r4], #4
   14af0:	1afffffb 	bne	14ae4 <memcpy+0x90>
   14af4:	e287c001 	add	ip, r7, #1
   14af8:	e1a0c10c 	lsl	ip, ip, #2
   14afc:	e2022003 	and	r2, r2, #3
   14b00:	e081100c 	add	r1, r1, ip
   14b04:	e083300c 	add	r3, r3, ip
   14b08:	ea000000 	b	14b10 <memcpy+0xbc>
   14b0c:	e1a03000 	mov	r3, r0
   14b10:	e3520000 	cmp	r2, #0
   14b14:	0a000005 	beq	14b30 <memcpy+0xdc>
   14b18:	e2411001 	sub	r1, r1, #1
   14b1c:	e0832002 	add	r2, r3, r2
   14b20:	e5f1c001 	ldrb	ip, [r1, #1]!
   14b24:	e4c3c001 	strb	ip, [r3], #1
   14b28:	e1530002 	cmp	r3, r2
   14b2c:	1afffffb 	bne	14b20 <memcpy+0xcc>
   14b30:	e8bd00f0 	pop	{r4, r5, r6, r7}
   14b34:	e12fff1e 	bx	lr
   14b38:	e1a03000 	mov	r3, r0
   14b3c:	eafffff5 	b	14b18 <memcpy+0xc4>
   14b40:	e1a0200c 	mov	r2, ip
   14b44:	eafffff1 	b	14b10 <memcpy+0xbc>

00014b48 <memset>:
   14b48:	e3100003 	tst	r0, #3
   14b4c:	e92d0030 	push	{r4, r5}
   14b50:	e1a03000 	mov	r3, r0
   14b54:	0a000037 	beq	14c38 <memset+0xf0>
   14b58:	e3520000 	cmp	r2, #0
   14b5c:	e2422001 	sub	r2, r2, #1
   14b60:	0a000032 	beq	14c30 <memset+0xe8>
   14b64:	e20140ff 	and	r4, r1, #255	; 0xff
   14b68:	ea000002 	b	14b78 <memset+0x30>
   14b6c:	e3520000 	cmp	r2, #0
   14b70:	e2422001 	sub	r2, r2, #1
   14b74:	0a00002d 	beq	14c30 <memset+0xe8>
   14b78:	e4c34001 	strb	r4, [r3], #1
   14b7c:	e3130003 	tst	r3, #3
   14b80:	e1a0c003 	mov	ip, r3
   14b84:	1afffff8 	bne	14b6c <memset+0x24>
   14b88:	e3520003 	cmp	r2, #3
   14b8c:	9a000020 	bls	14c14 <memset+0xcc>
   14b90:	e20140ff 	and	r4, r1, #255	; 0xff
   14b94:	e352000f 	cmp	r2, #15
   14b98:	e1844404 	orr	r4, r4, r4, lsl #8
   14b9c:	e1844804 	orr	r4, r4, r4, lsl #16
   14ba0:	81a0300c 	movhi	r3, ip
   14ba4:	81a05002 	movhi	r5, r2
   14ba8:	9a00000e 	bls	14be8 <memset+0xa0>
   14bac:	e2455010 	sub	r5, r5, #16
   14bb0:	e355000f 	cmp	r5, #15
   14bb4:	e5834000 	str	r4, [r3]
   14bb8:	e5834004 	str	r4, [r3, #4]
   14bbc:	e5834008 	str	r4, [r3, #8]
   14bc0:	e583400c 	str	r4, [r3, #12]
   14bc4:	e2833010 	add	r3, r3, #16
   14bc8:	8afffff7 	bhi	14bac <memset+0x64>
   14bcc:	e2423010 	sub	r3, r2, #16
   14bd0:	e3c3300f 	bic	r3, r3, #15
   14bd4:	e202200f 	and	r2, r2, #15
   14bd8:	e2833010 	add	r3, r3, #16
   14bdc:	e3520003 	cmp	r2, #3
   14be0:	e08cc003 	add	ip, ip, r3
   14be4:	9a00000a 	bls	14c14 <memset+0xcc>
   14be8:	e1a0500c 	mov	r5, ip
   14bec:	e1a03002 	mov	r3, r2
   14bf0:	e2433004 	sub	r3, r3, #4
   14bf4:	e3530003 	cmp	r3, #3
   14bf8:	e4854004 	str	r4, [r5], #4
   14bfc:	8afffffb 	bhi	14bf0 <memset+0xa8>
   14c00:	e2423004 	sub	r3, r2, #4
   14c04:	e3c33003 	bic	r3, r3, #3
   14c08:	e2833004 	add	r3, r3, #4
   14c0c:	e2022003 	and	r2, r2, #3
   14c10:	e08cc003 	add	ip, ip, r3
   14c14:	e3520000 	cmp	r2, #0
   14c18:	120110ff 	andne	r1, r1, #255	; 0xff
   14c1c:	108c2002 	addne	r2, ip, r2
   14c20:	0a000002 	beq	14c30 <memset+0xe8>
   14c24:	e4cc1001 	strb	r1, [ip], #1
   14c28:	e15c0002 	cmp	ip, r2
   14c2c:	1afffffc 	bne	14c24 <memset+0xdc>
   14c30:	e8bd0030 	pop	{r4, r5}
   14c34:	e12fff1e 	bx	lr
   14c38:	e1a0c000 	mov	ip, r0
   14c3c:	eaffffd1 	b	14b88 <memset+0x40>

00014c40 <__aeabi_uidiv>:
   14c40:	e2512001 	subs	r2, r1, #1
   14c44:	012fff1e 	bxeq	lr
   14c48:	3a000036 	bcc	14d28 <__aeabi_uidiv+0xe8>
   14c4c:	e1500001 	cmp	r0, r1
   14c50:	9a000022 	bls	14ce0 <__aeabi_uidiv+0xa0>
   14c54:	e1110002 	tst	r1, r2
   14c58:	0a000023 	beq	14cec <__aeabi_uidiv+0xac>
   14c5c:	e311020e 	tst	r1, #-536870912	; 0xe0000000
   14c60:	01a01181 	lsleq	r1, r1, #3
   14c64:	03a03008 	moveq	r3, #8
   14c68:	13a03001 	movne	r3, #1
   14c6c:	e3510201 	cmp	r1, #268435456	; 0x10000000
   14c70:	31510000 	cmpcc	r1, r0
   14c74:	31a01201 	lslcc	r1, r1, #4
   14c78:	31a03203 	lslcc	r3, r3, #4
   14c7c:	3afffffa 	bcc	14c6c <__aeabi_uidiv+0x2c>
   14c80:	e3510102 	cmp	r1, #-2147483648	; 0x80000000
   14c84:	31510000 	cmpcc	r1, r0
   14c88:	31a01081 	lslcc	r1, r1, #1
   14c8c:	31a03083 	lslcc	r3, r3, #1
   14c90:	3afffffa 	bcc	14c80 <__aeabi_uidiv+0x40>
   14c94:	e3a02000 	mov	r2, #0
   14c98:	e1500001 	cmp	r0, r1
   14c9c:	20400001 	subcs	r0, r0, r1
   14ca0:	21822003 	orrcs	r2, r2, r3
   14ca4:	e15000a1 	cmp	r0, r1, lsr #1
   14ca8:	204000a1 	subcs	r0, r0, r1, lsr #1
   14cac:	218220a3 	orrcs	r2, r2, r3, lsr #1
   14cb0:	e1500121 	cmp	r0, r1, lsr #2
   14cb4:	20400121 	subcs	r0, r0, r1, lsr #2
   14cb8:	21822123 	orrcs	r2, r2, r3, lsr #2
   14cbc:	e15001a1 	cmp	r0, r1, lsr #3
   14cc0:	204001a1 	subcs	r0, r0, r1, lsr #3
   14cc4:	218221a3 	orrcs	r2, r2, r3, lsr #3
   14cc8:	e3500000 	cmp	r0, #0
   14ccc:	11b03223 	lsrsne	r3, r3, #4
   14cd0:	11a01221 	lsrne	r1, r1, #4
   14cd4:	1affffef 	bne	14c98 <__aeabi_uidiv+0x58>
   14cd8:	e1a00002 	mov	r0, r2
   14cdc:	e12fff1e 	bx	lr
   14ce0:	03a00001 	moveq	r0, #1
   14ce4:	13a00000 	movne	r0, #0
   14ce8:	e12fff1e 	bx	lr
   14cec:	e3510801 	cmp	r1, #65536	; 0x10000
   14cf0:	21a01821 	lsrcs	r1, r1, #16
   14cf4:	23a02010 	movcs	r2, #16
   14cf8:	33a02000 	movcc	r2, #0
   14cfc:	e3510c01 	cmp	r1, #256	; 0x100
   14d00:	21a01421 	lsrcs	r1, r1, #8
   14d04:	22822008 	addcs	r2, r2, #8
   14d08:	e3510010 	cmp	r1, #16
   14d0c:	21a01221 	lsrcs	r1, r1, #4
   14d10:	22822004 	addcs	r2, r2, #4
   14d14:	e3510004 	cmp	r1, #4
   14d18:	82822003 	addhi	r2, r2, #3
   14d1c:	908220a1 	addls	r2, r2, r1, lsr #1
   14d20:	e1a00230 	lsr	r0, r0, r2
   14d24:	e12fff1e 	bx	lr
   14d28:	e3500000 	cmp	r0, #0
   14d2c:	13e00000 	mvnne	r0, #0
   14d30:	ea000007 	b	14d54 <__aeabi_idiv0>

00014d34 <__aeabi_uidivmod>:
   14d34:	e3510000 	cmp	r1, #0
   14d38:	0afffffa 	beq	14d28 <__aeabi_uidiv+0xe8>
   14d3c:	e92d4003 	push	{r0, r1, lr}
   14d40:	ebffffbe 	bl	14c40 <__aeabi_uidiv>
   14d44:	e8bd4006 	pop	{r1, r2, lr}
   14d48:	e0030092 	mul	r3, r2, r0
   14d4c:	e0411003 	sub	r1, r1, r3
   14d50:	e12fff1e 	bx	lr

00014d54 <__aeabi_idiv0>:
   14d54:	e12fff1e 	bx	lr

Disassembly of section .rodata.str1.4:

00014d58 <.rodata.str1.4>:
   14d58:	20414d44 	subcs	r4, r1, r4, asr #26
   14d5c:	656e6f44 	strbvs	r6, [lr, #-3908]!	; 0xfffff0bc
   14d60:	0000000a 	andeq	r0, r0, sl
   14d64:	62757453 	rsbsvs	r7, r5, #1392508928	; 0x53000000
   14d68:	646e6148 	strbtvs	r6, [lr], #-328	; 0xfffffeb8
   14d6c:	0000656c 	andeq	r6, r0, ip, ror #10
   14d70:	20525349 	subscs	r5, r2, r9, asr #6
   14d74:	69676552 	stmdbvs	r7!, {r1, r4, r6, r8, sl, sp, lr}^
   14d78:	64657473 	strbtvs	r7, [r5], #-1139	; 0xfffffb8d
   14d7c:	0000000a 	andeq	r0, r0, sl
   14d80:	776f6873 			; <UNDEFINED> instruction: 0x776f6873
   14d84:	706f7473 	rsbvc	r7, pc, r3, ror r4	; <UNPREDICTABLE>
   14d88:	00000000 	andeq	r0, r0, r0
   14d8c:	73756e75 	cmnvc	r5, #1872	; 0x750
   14d90:	00006465 	andeq	r6, r0, r5, ror #8
   14d94:	00716966 	rsbseq	r6, r1, r6, ror #18
   14d98:	65646e75 	strbvs	r6, [r4, #-3701]!	; 0xfffff18b
   14d9c:	656e6966 	strbvs	r6, [lr, #-2406]!	; 0xfffff69a
   14da0:	6e695f64 	cdpvs	15, 6, cr5, cr9, cr4, {3}
   14da4:	75727473 	ldrbvc	r7, [r2, #-1139]!	; 0xfffffb8d
   14da8:	6f697463 	svcvs	0x00697463
   14dac:	0000006e 	andeq	r0, r0, lr, rrx
   14db0:	00697773 	rsbeq	r7, r9, r3, ror r7
   14db4:	66657270 			; <UNDEFINED> instruction: 0x66657270
   14db8:	68637465 	stmdavs	r3!, {r0, r2, r5, r6, sl, ip, sp, lr}^
   14dbc:	6f62615f 	svcvs	0x0062615f
   14dc0:	00007472 	andeq	r7, r0, r2, ror r4
   14dc4:	74616420 	strbtvc	r6, [r1], #-1056	; 0xfffffbe0
   14dc8:	62615f61 	rsbvs	r5, r1, #388	; 0x184
   14dcc:	2074726f 	rsbscs	r7, r4, pc, ror #4
   14dd0:	00000000 	andeq	r0, r0, r0
   14dd4:	4d454d20 	stclmi	13, cr4, [r5, #-128]	; 0xffffff80
   14dd8:	494e4920 	stmdbmi	lr, {r5, r8, fp, lr}^
   14ddc:	00000054 	andeq	r0, r0, r4, asr r0

Disassembly of section .rodata:

00014de0 <OSUnMapTbl>:
   14de0:	00010000 	andeq	r0, r1, r0
   14de4:	00010002 	andeq	r0, r1, r2
   14de8:	00010003 	andeq	r0, r1, r3
   14dec:	00010002 	andeq	r0, r1, r2
   14df0:	00010004 	andeq	r0, r1, r4
   14df4:	00010002 	andeq	r0, r1, r2
   14df8:	00010003 	andeq	r0, r1, r3
   14dfc:	00010002 	andeq	r0, r1, r2
   14e00:	00010005 	andeq	r0, r1, r5
   14e04:	00010002 	andeq	r0, r1, r2
   14e08:	00010003 	andeq	r0, r1, r3
   14e0c:	00010002 	andeq	r0, r1, r2
   14e10:	00010004 	andeq	r0, r1, r4
   14e14:	00010002 	andeq	r0, r1, r2
   14e18:	00010003 	andeq	r0, r1, r3
   14e1c:	00010002 	andeq	r0, r1, r2
   14e20:	00010006 	andeq	r0, r1, r6
   14e24:	00010002 	andeq	r0, r1, r2
   14e28:	00010003 	andeq	r0, r1, r3
   14e2c:	00010002 	andeq	r0, r1, r2
   14e30:	00010004 	andeq	r0, r1, r4
   14e34:	00010002 	andeq	r0, r1, r2
   14e38:	00010003 	andeq	r0, r1, r3
   14e3c:	00010002 	andeq	r0, r1, r2
   14e40:	00010005 	andeq	r0, r1, r5
   14e44:	00010002 	andeq	r0, r1, r2
   14e48:	00010003 	andeq	r0, r1, r3
   14e4c:	00010002 	andeq	r0, r1, r2
   14e50:	00010004 	andeq	r0, r1, r4
   14e54:	00010002 	andeq	r0, r1, r2
   14e58:	00010003 	andeq	r0, r1, r3
   14e5c:	00010002 	andeq	r0, r1, r2
   14e60:	00010007 	andeq	r0, r1, r7
   14e64:	00010002 	andeq	r0, r1, r2
   14e68:	00010003 	andeq	r0, r1, r3
   14e6c:	00010002 	andeq	r0, r1, r2
   14e70:	00010004 	andeq	r0, r1, r4
   14e74:	00010002 	andeq	r0, r1, r2
   14e78:	00010003 	andeq	r0, r1, r3
   14e7c:	00010002 	andeq	r0, r1, r2
   14e80:	00010005 	andeq	r0, r1, r5
   14e84:	00010002 	andeq	r0, r1, r2
   14e88:	00010003 	andeq	r0, r1, r3
   14e8c:	00010002 	andeq	r0, r1, r2
   14e90:	00010004 	andeq	r0, r1, r4
   14e94:	00010002 	andeq	r0, r1, r2
   14e98:	00010003 	andeq	r0, r1, r3
   14e9c:	00010002 	andeq	r0, r1, r2
   14ea0:	00010006 	andeq	r0, r1, r6
   14ea4:	00010002 	andeq	r0, r1, r2
   14ea8:	00010003 	andeq	r0, r1, r3
   14eac:	00010002 	andeq	r0, r1, r2
   14eb0:	00010004 	andeq	r0, r1, r4
   14eb4:	00010002 	andeq	r0, r1, r2
   14eb8:	00010003 	andeq	r0, r1, r3
   14ebc:	00010002 	andeq	r0, r1, r2
   14ec0:	00010005 	andeq	r0, r1, r5
   14ec4:	00010002 	andeq	r0, r1, r2
   14ec8:	00010003 	andeq	r0, r1, r3
   14ecc:	00010002 	andeq	r0, r1, r2
   14ed0:	00010004 	andeq	r0, r1, r4
   14ed4:	00010002 	andeq	r0, r1, r2
   14ed8:	00010003 	andeq	r0, r1, r3
   14edc:	00010002 	andeq	r0, r1, r2

00014ee0 <OSMapTbl>:
   14ee0:	08040201 	stmdaeq	r4, {r0, r9}
   14ee4:	80402010 	subhi	r2, r0, r0, lsl r0

Disassembly of section .text.startup:

00014ee8 <main>:
   14ee8:	e92d4008 	push	{r3, lr}
   14eec:	ebffee26 	bl	1078c <InitInterruptController>
   14ef0:	ebffee6f 	bl	108b4 <DisableInterrupts>
   14ef4:	ebffed8b 	bl	10528 <timer_init>
   14ef8:	ebfff68c 	bl	12930 <OSInit>
   14efc:	ebffecac 	bl	101b4 <uart_init>
   14f00:	e3a01000 	mov	r1, #0
   14f04:	e59f2024 	ldr	r2, [pc, #36]	; 14f30 <main+0x48>
   14f08:	e3a03005 	mov	r3, #5
   14f0c:	e59f0020 	ldr	r0, [pc, #32]	; 14f34 <main+0x4c>
   14f10:	ebfffc99 	bl	1417c <OSTaskCreate>
   14f14:	e3a01000 	mov	r1, #0
   14f18:	e59f2018 	ldr	r2, [pc, #24]	; 14f38 <main+0x50>
   14f1c:	e3a03006 	mov	r3, #6
   14f20:	e59f0014 	ldr	r0, [pc, #20]	; 14f3c <main+0x54>
   14f24:	ebfffc94 	bl	1417c <OSTaskCreate>
   14f28:	ebfff076 	bl	11108 <OSStart>
   14f2c:	eafffffe 	b	14f2c <main+0x44>
   14f30:	0001b300 	andeq	fp, r1, r0, lsl #6
   14f34:	00014a38 	andeq	r4, r1, r8, lsr sl
   14f38:	0001f180 	andeq	pc, r1, r0, lsl #3
   14f3c:	000149fc 	strdeq	r4, [r1], -ip

Disassembly of section .bss:

00014f40 <__bss_start>:
   14f40:	00000000 	andeq	r0, r0, r0

00014f44 <uartRecvFifo>:
	...

00014f54 <uartTransFifo>:
	...

00014f64 <tByte>:
   14f64:	00000000 	andeq	r0, r0, r0

00014f68 <uartTransIntrFlag>:
   14f68:	00000000 	andeq	r0, r0, r0

00014f6c <UART_MEMORY_STATIC>:
	...

0001576c <UartMemPartition>:
   1576c:	00000000 	andeq	r0, r0, r0

00015770 <buf>:
	...

00015b70 <g_VectorTable>:
	...

00015db0 <OSLockNesting>:
	...

00015db1 <OSRunning>:
   15db1:	00000000 	andeq	r0, r0, r0

00015db4 <OSIdleCtr>:
   15db4:	00000000 	andeq	r0, r0, r0

00015db8 <OSPrioHighRdy>:
   15db8:	00000000 	andeq	r0, r0, r0

00015dbc <OSFlagTbl>:
	...

00015df8 <OSPrioCur>:
   15df8:	00000000 	andeq	r0, r0, r0

00015dfc <OSTCBList>:
   15dfc:	00000000 	andeq	r0, r0, r0

00015e00 <OSMemTbl>:
	...

00015e64 <OSTaskStatStk>:
	...

00016664 <OSCtxSwCtr>:
   16664:	00000000 	andeq	r0, r0, r0

00016668 <OSIdleCtrMax>:
   16668:	00000000 	andeq	r0, r0, r0

0001666c <OSTCBFreeList>:
   1666c:	00000000 	andeq	r0, r0, r0

00016670 <OSCPUUsage>:
	...

00016671 <OSTaskCtr>:
   16671:	00000000 	andeq	r0, r0, r0

00016674 <OSMemFreeList>:
   16674:	00000000 	andeq	r0, r0, r0

00016678 <OSQTbl>:
	...

000166f0 <OSTCBHighRdy>:
   166f0:	00000000 	andeq	r0, r0, r0

000166f4 <OSQFreeList>:
   166f4:	00000000 	andeq	r0, r0, r0

000166f8 <OSRdyGrp>:
   166f8:	00000000 	andeq	r0, r0, r0

000166fc <OSRdyTbl>:
	...

00016704 <OSEventFreeList>:
   16704:	00000000 	andeq	r0, r0, r0

00016708 <OSIntExitY>:
	...

00016709 <OSIntNesting>:
   16709:	00000000 	andeq	r0, r0, r0

0001670c <OSTCBCur>:
   1670c:	00000000 	andeq	r0, r0, r0

00016710 <OSTime>:
   16710:	00000000 	andeq	r0, r0, r0

00016714 <OSTaskIdleStk>:
	...

00016f14 <OSEventTbl>:
	...

00017004 <OSTCBTbl>:
	...

00017378 <OSFlagFreeList>:
   17378:	00000000 	andeq	r0, r0, r0

0001737c <OSStatRdy>:
   1737c:	00000000 	andeq	r0, r0, r0

00017380 <OSTCBPrioTbl>:
	...

00017480 <OSIdleCtrRun>:
   17480:	00000000 	andeq	r0, r0, r0

00017484 <userAppTaskStk1>:
	...

0001b304 <userAppTaskStk2>:
	...

Disassembly of section .ARM.attributes:

00000000 <.ARM.attributes>:
   0:	00003341 	andeq	r3, r0, r1, asr #6
   4:	61656100 	cmnvs	r5, r0, lsl #2
   8:	01006962 	tsteq	r0, r2, ror #18
   c:	00000029 	andeq	r0, r0, r9, lsr #32
  10:	4d524105 	ldfmie	f4, [r2, #-20]	; 0xffffffec
  14:	36373131 			; <UNDEFINED> instruction: 0x36373131
  18:	2d465a4a 	vstrcs	s11, [r6, #-296]	; 0xfffffed8
  1c:	07060053 	smlsdeq	r6, r3, r0, r0
  20:	01090108 	tsteq	r9, r8, lsl #2
  24:	01140412 	tsteq	r4, r2, lsl r4
  28:	03170115 	tsteq	r7, #1073741829	; 0x40000005
  2c:	011a0118 	tsteq	sl, r8, lsl r1
  30:	01440122 	cmpeq	r4, r2, lsr #2

Disassembly of section .comment:

00000000 <.comment>:
   0:	3a434347 	bcc	10d0d24 <__bss_end+0x10b1ba0>
   4:	6f532820 	svcvs	0x00532820
   8:	65637275 	strbvs	r7, [r3, #-629]!	; 0xfffffd8b
   c:	43207972 	teqmi	r0, #1867776	; 0x1c8000
  10:	4265646f 	rsbmi	r6, r5, #1862270976	; 0x6f000000
  14:	68636e65 	stmdavs	r3!, {r0, r2, r5, r6, r9, sl, fp, sp, lr}^
  18:	74694c20 	strbtvc	r4, [r9], #-3104	; 0xfffff3e0
  1c:	30322065 	eorscc	r2, r2, r5, rrx
  20:	302e3431 	eorcc	r3, lr, r1, lsr r4
  24:	38322d35 	ldmdacc	r2!, {r0, r2, r4, r5, r8, sl, fp, sp}
  28:	2e342029 	cdpcs	0, 3, cr2, cr4, cr9, {1}
  2c:	20332e38 	eorscs	r2, r3, r8, lsr lr
  30:	34313032 	ldrtcc	r3, [r1], #-50	; 0xffffffce
  34:	30323330 	eorscc	r3, r2, r0, lsr r3
  38:	72702820 	rsbsvc	r2, r0, #32, 16	; 0x200000
  3c:	6c657265 	sfmvs	f7, 2, [r5], #-404	; 0xfffffe6c
  40:	65736165 	ldrbvs	r6, [r3, #-357]!	; 0xfffffe9b
  44:	43470029 	movtmi	r0, #28713	; 0x7029
  48:	28203a43 	stmdacs	r0!, {r0, r1, r6, r9, fp, ip, sp}
  4c:	29554e47 	ldmdbcs	r5, {r0, r1, r2, r6, r9, sl, fp, lr}^
  50:	372e3420 	strcc	r3, [lr, -r0, lsr #8]!
  54:	Address 0x00000054 is out of bounds.


Disassembly of section .debug_info:

00000000 <.debug_info>:
   0:	00000132 	andeq	r0, r0, r2, lsr r1
   4:	00000002 	andeq	r0, r0, r2
   8:	01040000 	mrseq	r0, (UNDEF: 4)
   c:	00000021 	andeq	r0, r0, r1, lsr #32
  10:	0000ce01 	andeq	ip, r0, r1, lsl #28
  14:	00006f00 	andeq	r6, r0, r0, lsl #30
  18:	014a5400 	cmpeq	sl, r0, lsl #8
  1c:	014b4800 	cmpeq	fp, r0, lsl #16
  20:	00000000 	andeq	r0, r0, r0
  24:	06010200 	streq	r0, [r1], -r0, lsl #4
  28:	00000050 	andeq	r0, r0, r0, asr r0
  2c:	4e080102 	adfmie	f0, f0, f2
  30:	02000000 	andeq	r0, r0, #0
  34:	01190502 	tsteq	r9, r2, lsl #10
  38:	02020000 	andeq	r0, r2, #0
  3c:	0000bb07 	andeq	fp, r0, r7, lsl #22
  40:	05040300 	streq	r0, [r4, #-768]	; 0xfffffd00
  44:	00746e69 	rsbseq	r6, r4, r9, ror #28
  48:	3c070402 	cfstrscc	mvf0, [r7], {2}
  4c:	02000000 	andeq	r0, r0, #0
  50:	00000508 	andeq	r0, r0, r8, lsl #10
  54:	08020000 	stmdaeq	r2, {}	; <UNPREDICTABLE>
  58:	00003207 	andeq	r3, r0, r7, lsl #4
  5c:	05040200 	streq	r0, [r4, #-512]	; 0xfffffe00
  60:	00000005 	andeq	r0, r0, r5
  64:	23070402 	movwcs	r0, #29698	; 0x7402
  68:	04000001 	streq	r0, [r0], #-1
  6c:	07040204 	streq	r0, [r4, -r4, lsl #4]
  70:	00000037 	andeq	r0, r0, r7, lsr r0
  74:	007a0405 	rsbseq	r0, sl, r5, lsl #8
  78:	01020000 	mrseq	r0, (UNDEF: 2)
  7c:	00005708 	andeq	r5, r0, r8, lsl #14
  80:	87040500 	strhi	r0, [r4, -r0, lsl #10]
  84:	06000000 	streq	r0, [r0], -r0
  88:	0000007a 	andeq	r0, r0, sl, ror r0
  8c:	00001a07 	andeq	r1, r0, r7, lsl #20
  90:	48d50300 	ldmmi	r5, {r8, r9}^
  94:	08000000 	stmdaeq	r0, {}	; <UNPREDICTABLE>
  98:	00006801 	andeq	r6, r0, r1, lsl #16
  9c:	01190200 	tsteq	r9, r0, lsl #4
  a0:	0000006b 	andeq	r0, r0, fp, rrx
  a4:	00014a54 	andeq	r4, r1, r4, asr sl
  a8:	00014b48 	andeq	r4, r1, r8, asr #22
  ac:	00000000 	andeq	r0, r0, r0
  b0:	00011d01 	andeq	r1, r1, r1, lsl #26
  b4:	00490900 	subeq	r0, r9, r0, lsl #18
  b8:	35010000 	strcc	r0, [r1, #-0]
  bc:	0000006b 	andeq	r0, r0, fp, rrx
  c0:	2d0a5001 	stccs	0, cr5, [sl, #-4]
  c4:	01000000 	mrseq	r0, (UNDEF: 0)
  c8:	00011d35 	andeq	r1, r1, r5, lsr sp
  cc:	00002000 	andeq	r2, r0, r0
  d0:	01140a00 	tsteq	r4, r0, lsl #20
  d4:	35010000 	strcc	r0, [r1, #-0]
  d8:	0000008c 	andeq	r0, r0, ip, lsl #1
  dc:	00000073 	andeq	r0, r0, r3, ror r0
  e0:	7473640b 	ldrbtvc	r6, [r3], #-1035	; 0xfffffbf5
  e4:	74470100 	strbvc	r0, [r7], #-256	; 0xffffff00
  e8:	fe000000 	cdp2	0, 0, cr0, cr0, cr0, {0}
  ec:	0b000000 	bleq	f4 <_start-0x7f0c>
  f0:	00637273 	rsbeq	r7, r3, r3, ror r2
  f4:	00814801 	addeq	r4, r1, r1, lsl #16
  f8:	01270000 	teqeq	r7, r0
  fc:	0e0c0000 	cdpeq	0, 0, cr0, cr12, cr0, {0}
 100:	01000000 	mrseq	r0, (UNDEF: 0)
 104:	00012449 	andeq	r2, r1, r9, asr #8
 108:	00017900 	andeq	r7, r1, r0, lsl #18
 10c:	005c0c00 	subseq	r0, ip, r0, lsl #24
 110:	4a010000 	bmi	40118 <__bss_end+0x20f94>
 114:	0000012a 	andeq	r0, r0, sl, lsr #2
 118:	000001d4 	ldrdeq	r0, [r0], -r4
 11c:	23040500 	movwcs	r0, #17664	; 0x4500
 120:	0d000001 	stceq	0, cr0, [r0, #-4]
 124:	005d0405 	subseq	r0, sp, r5, lsl #8
 128:	04050000 	streq	r0, [r5], #-0
 12c:	00000130 	andeq	r0, r0, r0, lsr r1
 130:	00005d06 	andeq	r5, r0, r6, lsl #26
 134:	01180000 	tsteq	r8, r0
 138:	00020000 	andeq	r0, r2, r0
 13c:	000000ab 	andeq	r0, r0, fp, lsr #1
 140:	00210104 	eoreq	r0, r1, r4, lsl #2
 144:	80010000 	andhi	r0, r1, r0
 148:	2c000001 	stccs	0, cr0, [r0], {1}
 14c:	48000001 	stmdami	r0, {r0}
 150:	4000014b 	andmi	r0, r0, fp, asr #2
 154:	8b00014c 	blhi	68c <_start-0x7974>
 158:	02000001 	andeq	r0, r0, #1
 15c:	00500601 	subseq	r0, r0, r1, lsl #12
 160:	01020000 	mrseq	r0, (UNDEF: 2)
 164:	00004e08 	andeq	r4, r0, r8, lsl #28
 168:	05020200 	streq	r0, [r2, #-512]	; 0xfffffe00
 16c:	00000119 	andeq	r0, r0, r9, lsl r1
 170:	bb070202 	bllt	1c0980 <__bss_end+0x1a17fc>
 174:	03000000 	movweq	r0, #0
 178:	6e690504 	cdpvs	5, 6, cr0, cr9, cr4, {0}
 17c:	04020074 	streq	r0, [r2], #-116	; 0xffffff8c
 180:	00003c07 	andeq	r3, r0, r7, lsl #24
 184:	05080200 	streq	r0, [r8, #-512]	; 0xfffffe00
 188:	00000000 	andeq	r0, r0, r0
 18c:	32070802 	andcc	r0, r7, #131072	; 0x20000
 190:	02000000 	andeq	r0, r0, #0
 194:	00050504 	andeq	r0, r5, r4, lsl #10
 198:	04020000 	streq	r0, [r2], #-0
 19c:	00012307 	andeq	r2, r1, r7, lsl #6
 1a0:	02040400 	andeq	r0, r4, #0, 8
 1a4:	00370704 	eorseq	r0, r7, r4, lsl #14
 1a8:	04050000 	streq	r0, [r5], #-0
 1ac:	0000007a 	andeq	r0, r0, sl, ror r0
 1b0:	57080102 	strpl	r0, [r8, -r2, lsl #2]
 1b4:	06000000 	streq	r0, [r0], -r0
 1b8:	0000001a 	andeq	r0, r0, sl, lsl r0
 1bc:	0048d503 	subeq	sp, r8, r3, lsl #10
 1c0:	01070000 	mrseq	r0, (UNDEF: 7)
 1c4:	000001b9 			; <UNDEFINED> instruction: 0x000001b9
 1c8:	6b011b02 	blvs	46dd8 <__bss_end+0x27c54>
 1cc:	48000000 	stmdami	r0, {}	; <UNPREDICTABLE>
 1d0:	4000014b 	andmi	r0, r0, fp, asr #2
 1d4:	3100014c 	tstcc	r0, ip, asr #2
 1d8:	01000002 	tsteq	r0, r2
 1dc:	00000115 	andeq	r0, r0, r5, lsl r1
 1e0:	01006d08 	tsteq	r0, r8, lsl #26
 1e4:	00006b2b 	andeq	r6, r0, fp, lsr #22
 1e8:	09500100 	ldmdbeq	r0, {r8}^
 1ec:	2b010063 	blcs	40380 <__bss_end+0x211fc>
 1f0:	00000041 	andeq	r0, r0, r1, asr #32
 1f4:	00000251 	andeq	r0, r0, r1, asr r2
 1f8:	01006e09 	tsteq	r0, r9, lsl #28
 1fc:	0000812b 	andeq	r8, r0, fp, lsr #2
 200:	00027d00 	andeq	r7, r2, r0, lsl #26
 204:	00730a00 	rsbseq	r0, r3, r0, lsl #20
 208:	00743001 	rsbseq	r3, r4, r1
 20c:	02ec0000 	rsceq	r0, ip, #0
 210:	690a0000 	stmdbvs	sl, {}	; <UNPREDICTABLE>
 214:	41330100 	teqmi	r3, r0, lsl #2
 218:	43000000 	movwmi	r0, #0
 21c:	0b000003 	bleq	230 <_start-0x7dd0>
 220:	000001c0 	andeq	r0, r0, r0, asr #3
 224:	006d3401 	rsbeq	r3, sp, r1, lsl #8
 228:	03580000 	cmpeq	r8, #0
 22c:	730b0000 	movwvc	r0, #45056	; 0xb000
 230:	01000001 	tsteq	r0, r1
 234:	00011535 	andeq	r1, r1, r5, lsr r5
 238:	00036b00 	andeq	r6, r3, r0, lsl #22
 23c:	00640a00 	rsbeq	r0, r4, r0, lsl #20
 240:	00483601 	subeq	r3, r8, r1, lsl #12
 244:	03d10000 	bicseq	r0, r1, #0
 248:	05000000 	streq	r0, [r0, #-0]
 24c:	00006d04 	andeq	r6, r0, r4, lsl #26
 250:	008d0000 	addeq	r0, sp, r0
 254:	00020000 	andeq	r0, r2, r0
 258:	0000014a 	andeq	r0, r0, sl, asr #2
 25c:	03040104 	movweq	r0, #16644	; 0x4104
 260:	4c400000 	marmi	acc0, r0, r0
 264:	4d540001 	ldclmi	0, cr0, [r4, #-4]
 268:	2e2e0001 	cdpcs	0, 2, cr0, cr14, cr1, {0}
 26c:	2f2e2e2f 	svccs	0x002e2e2f
 270:	672f2e2e 	strvs	r2, [pc, -lr, lsr #28]!
 274:	342d6363 	strtcc	r6, [sp], #-867	; 0xfffffc9d
 278:	322e372e 	eorcc	r3, lr, #12058624	; 0xb80000
 27c:	62696c2f 	rsbvs	r6, r9, #12032	; 0x2f00
 280:	2f636367 	svccs	0x00636367
 284:	666e6f63 	strbtvs	r6, [lr], -r3, ror #30
 288:	612f6769 	teqvs	pc, r9, ror #14
 28c:	6c2f6d72 	stcvs	13, cr6, [pc], #-456	; cc <_start-0x7f34>
 290:	66316269 	ldrtvs	r6, [r1], -r9, ror #4
 294:	73636e75 	cmnvc	r3, #1872	; 0x750
 298:	4300532e 	movwmi	r5, #814	; 0x32e
 29c:	736d5c3a 	cmnvc	sp, #14848	; 0x3a00
 2a0:	315c7379 	cmpcc	ip, r9, ror r3
 2a4:	685c302e 	ldmdavs	ip, {r1, r2, r3, r5, ip, sp}^
 2a8:	5c656d6f 	stclpl	13, cr6, [r5], #-444	; 0xfffffe44
 2ac:	61676179 	smcvs	30233	; 0x7619
 2b0:	5c6f7472 	cfstrdpl	mvd7, [pc], #-456	; f0 <_start-0x7f10>
 2b4:	2d636367 	stclcs	3, cr6, [r3, #-412]!	; 0xfffffe64
 2b8:	6c697562 	cfstr64vs	mvdx7, [r9], #-392	; 0xfffffe78
 2bc:	72615c64 	rsbvc	r5, r1, #100, 24	; 0x6400
 2c0:	6f6e2d6d 	svcvs	0x006e2d6d
 2c4:	652d656e 	strvs	r6, [sp, #-1390]!	; 0xfffffa92
 2c8:	5c696261 	sfmpl	f6, 2, [r9], #-388	; 0xfffffe7c
 2cc:	6762696c 	strbvs	r6, [r2, -ip, ror #18]!
 2d0:	47006363 	strmi	r6, [r0, -r3, ror #6]
 2d4:	4120554e 	teqmi	r0, lr, asr #10
 2d8:	2e322053 	mrccs	0, 1, r2, cr2, cr3, {2}
 2dc:	312e3332 	teqcc	lr, r2, lsr r3
 2e0:	8d800100 	stfhis	f0, [r0]
 2e4:	02000000 	andeq	r0, r0, #0
 2e8:	00015e00 	andeq	r5, r1, r0, lsl #28
 2ec:	8e010400 	cfcpyshi	mvf0, mvf1
 2f0:	54000003 	strpl	r0, [r0], #-3
 2f4:	5800014d 	stmdapl	r0, {r0, r2, r3, r6, r8}
 2f8:	2e00014d 	adfcssm	f0, f0, #5.0
 2fc:	2e2e2f2e 	cdpcs	15, 2, cr2, cr14, cr14, {1}
 300:	2f2e2e2f 	svccs	0x002e2e2f
 304:	2d636367 	stclcs	3, cr6, [r3, #-412]!	; 0xfffffe64
 308:	2e372e34 	mrccs	14, 1, r2, cr7, cr4, {1}
 30c:	696c2f32 	stmdbvs	ip!, {r1, r4, r5, r8, r9, sl, fp, sp}^
 310:	63636762 	cmnvs	r3, #25690112	; 0x1880000
 314:	6e6f632f 	cdpvs	3, 6, cr6, cr15, cr15, {1}
 318:	2f676966 	svccs	0x00676966
 31c:	2f6d7261 	svccs	0x006d7261
 320:	3162696c 	cmncc	r2, ip, ror #18
 324:	636e7566 	cmnvs	lr, #427819008	; 0x19800000
 328:	00532e73 	subseq	r2, r3, r3, ror lr
 32c:	6d5c3a43 	vldrvs	s7, [ip, #-268]	; 0xfffffef4
 330:	5c737973 	ldclpl	9, cr7, [r3], #-460	; 0xfffffe34
 334:	5c302e31 	ldcpl	14, cr2, [r0], #-196	; 0xffffff3c
 338:	656d6f68 	strbvs	r6, [sp, #-3944]!	; 0xfffff098
 33c:	6761795c 			; <UNDEFINED> instruction: 0x6761795c
 340:	6f747261 	svcvs	0x00747261
 344:	6363675c 	cmnvs	r3, #92, 14	; 0x1700000
 348:	6975622d 	ldmdbvs	r5!, {r0, r2, r3, r5, r9, sp, lr}^
 34c:	615c646c 	cmpvs	ip, ip, ror #8
 350:	6e2d6d72 	mcrvs	13, 1, r6, cr13, cr2, {3}
 354:	2d656e6f 	stclcs	14, cr6, [r5, #-444]!	; 0xfffffe44
 358:	69626165 	stmdbvs	r2!, {r0, r2, r5, r6, r8, sp, lr}^
 35c:	62696c5c 	rsbvs	r6, r9, #92, 24	; 0x5c00
 360:	00636367 	rsbeq	r6, r3, r7, ror #6
 364:	20554e47 	subscs	r4, r5, r7, asr #28
 368:	32205341 	eorcc	r5, r0, #67108865	; 0x4000001
 36c:	2e33322e 	cdpcs	2, 3, cr3, cr3, cr14, {1}
 370:	80010031 	andhi	r0, r1, r1, lsr r0

Disassembly of section .debug_abbrev:

00000000 <.debug_abbrev>:
   0:	25011101 	strcs	r1, [r1, #-257]	; 0xfffffeff
   4:	030b130e 	movweq	r1, #45838	; 0xb30e
   8:	110e1b0e 	tstne	lr, lr, lsl #22
   c:	10011201 	andne	r1, r1, r1, lsl #4
  10:	02000006 	andeq	r0, r0, #6
  14:	0b0b0024 	bleq	2c00ac <__bss_end+0x2a0f28>
  18:	0e030b3e 	vmoveq.16	d3[0], r0
  1c:	24030000 	strcs	r0, [r3], #-0
  20:	3e0b0b00 	vmlacc.f64	d0, d11, d0
  24:	0008030b 	andeq	r0, r8, fp, lsl #6
  28:	000f0400 	andeq	r0, pc, r0, lsl #8
  2c:	00000b0b 	andeq	r0, r0, fp, lsl #22
  30:	0b000f05 	bleq	3c4c <_start-0x43b4>
  34:	0013490b 	andseq	r4, r3, fp, lsl #18
  38:	00260600 	eoreq	r0, r6, r0, lsl #12
  3c:	00001349 	andeq	r1, r0, r9, asr #6
  40:	03001607 	movweq	r1, #1543	; 0x607
  44:	3b0b3a0e 	blcc	2ce884 <__bss_end+0x2af700>
  48:	0013490b 	andseq	r4, r3, fp, lsl #18
  4c:	012e0800 	teqeq	lr, r0, lsl #16
  50:	0e030c3f 	mcreq	12, 0, r0, cr3, cr15, {1}
  54:	0b3b0b3a 	bleq	ec2d44 <__bss_end+0xea3bc0>
  58:	13490c27 	movtne	r0, #39975	; 0x9c27
  5c:	01120111 	tsteq	r2, r1, lsl r1
  60:	42970640 	addsmi	r0, r7, #64, 12	; 0x4000000
  64:	0013010c 	andseq	r0, r3, ip, lsl #2
  68:	00050900 	andeq	r0, r5, r0, lsl #18
  6c:	0b3a0e03 	bleq	e83880 <__bss_end+0xe646fc>
  70:	13490b3b 	movtne	r0, #39739	; 0x9b3b
  74:	00000a02 	andeq	r0, r0, r2, lsl #20
  78:	0300050a 	movweq	r0, #1290	; 0x50a
  7c:	3b0b3a0e 	blcc	2ce8bc <__bss_end+0x2af738>
  80:	0213490b 	andseq	r4, r3, #180224	; 0x2c000
  84:	0b000006 	bleq	a4 <_start-0x7f5c>
  88:	08030034 	stmdaeq	r3, {r2, r4, r5}
  8c:	0b3b0b3a 	bleq	ec2d7c <__bss_end+0xea3bf8>
  90:	06021349 	streq	r1, [r2], -r9, asr #6
  94:	340c0000 	strcc	r0, [ip], #-0
  98:	3a0e0300 	bcc	380ca0 <__bss_end+0x361b1c>
  9c:	490b3b0b 	stmdbmi	fp, {r0, r1, r3, r8, r9, fp, ip, sp}
  a0:	00060213 	andeq	r0, r6, r3, lsl r2
  a4:	00260d00 	eoreq	r0, r6, r0, lsl #26
  a8:	01000000 	mrseq	r0, (UNDEF: 0)
  ac:	0e250111 	mcreq	1, 1, r0, cr5, cr1, {0}
  b0:	0e030b13 	vmoveq.32	d3[0], r0
  b4:	01110e1b 	tsteq	r1, fp, lsl lr
  b8:	06100112 			; <UNDEFINED> instruction: 0x06100112
  bc:	24020000 	strcs	r0, [r2], #-0
  c0:	3e0b0b00 	vmlacc.f64	d0, d11, d0
  c4:	000e030b 	andeq	r0, lr, fp, lsl #6
  c8:	00240300 	eoreq	r0, r4, r0, lsl #6
  cc:	0b3e0b0b 	bleq	f82d00 <__bss_end+0xf63b7c>
  d0:	00000803 	andeq	r0, r0, r3, lsl #16
  d4:	0b000f04 	bleq	3cec <_start-0x4314>
  d8:	0500000b 	streq	r0, [r0, #-11]
  dc:	0b0b000f 	bleq	2c0120 <__bss_end+0x2a0f9c>
  e0:	00001349 	andeq	r1, r0, r9, asr #6
  e4:	03001606 	movweq	r1, #1542	; 0x606
  e8:	3b0b3a0e 	blcc	2ce928 <__bss_end+0x2af7a4>
  ec:	0013490b 	andseq	r4, r3, fp, lsl #18
  f0:	012e0700 	teqeq	lr, r0, lsl #14
  f4:	0e030c3f 	mcreq	12, 0, r0, cr3, cr15, {1}
  f8:	0b3b0b3a 	bleq	ec2de8 <__bss_end+0xea3c64>
  fc:	13490c27 	movtne	r0, #39975	; 0x9c27
 100:	01120111 	tsteq	r2, r1, lsl r1
 104:	42970640 	addsmi	r0, r7, #64, 12	; 0x4000000
 108:	0013010c 	andseq	r0, r3, ip, lsl #2
 10c:	00050800 	andeq	r0, r5, r0, lsl #16
 110:	0b3a0803 	bleq	e82124 <__bss_end+0xe62fa0>
 114:	13490b3b 	movtne	r0, #39739	; 0x9b3b
 118:	00000a02 	andeq	r0, r0, r2, lsl #20
 11c:	03000509 	movweq	r0, #1289	; 0x509
 120:	3b0b3a08 	blcc	2ce948 <__bss_end+0x2af7c4>
 124:	0213490b 	andseq	r4, r3, #180224	; 0x2c000
 128:	0a000006 	beq	148 <_start-0x7eb8>
 12c:	08030034 	stmdaeq	r3, {r2, r4, r5}
 130:	0b3b0b3a 	bleq	ec2e20 <__bss_end+0xea3c9c>
 134:	06021349 	streq	r1, [r2], -r9, asr #6
 138:	340b0000 	strcc	r0, [fp], #-0
 13c:	3a0e0300 	bcc	380d44 <__bss_end+0x361bc0>
 140:	490b3b0b 	stmdbmi	fp, {r0, r1, r3, r8, r9, fp, ip, sp}
 144:	00060213 	andeq	r0, r6, r3, lsl r2
 148:	11010000 	mrsne	r0, (UNDEF: 1)
 14c:	11061000 	mrsne	r1, (UNDEF: 6)
 150:	03011201 	movweq	r1, #4609	; 0x1201
 154:	25081b08 	strcs	r1, [r8, #-2824]	; 0xfffff4f8
 158:	00051308 	andeq	r1, r5, r8, lsl #6
 15c:	11010000 	mrsne	r0, (UNDEF: 1)
 160:	11061000 	mrsne	r1, (UNDEF: 6)
 164:	03011201 	movweq	r1, #4609	; 0x1201
 168:	25081b08 	strcs	r1, [r8, #-2824]	; 0xfffff4f8
 16c:	00051308 	andeq	r1, r5, r8, lsl #6
	...

Disassembly of section .debug_loc:

00000000 <.debug_loc>:
   0:	00000000 	andeq	r0, r0, r0
   4:	00000008 	andeq	r0, r0, r8
   8:	007d0002 	rsbseq	r0, sp, r2
   c:	00000008 	andeq	r0, r0, r8
  10:	000000f4 	strdeq	r0, [r0], -r4
  14:	107d0002 	rsbsne	r0, sp, r2
	...
  24:	00000074 	andeq	r0, r0, r4, ror r0
  28:	74510001 	ldrbvc	r0, [r1], #-1
  2c:	b8000000 	stmdalt	r0, {}	; <UNPREDICTABLE>
  30:	04000000 	streq	r0, [r0], #-0
  34:	5101f300 	mrspl	pc, SP_irq	; <UNPREDICTABLE>
  38:	0000b89f 	muleq	r0, pc, r8	; <UNPREDICTABLE>
  3c:	0000bc00 	andeq	fp, r0, r0, lsl #24
  40:	51000100 	mrspl	r0, (UNDEF: 16)
  44:	000000bc 	strheq	r0, [r0], -ip
  48:	000000e4 	andeq	r0, r0, r4, ror #1
  4c:	01f30004 	mvnseq	r0, r4
  50:	00e49f51 	rsceq	r9, r4, r1, asr pc
  54:	00ec0000 	rsceq	r0, ip, r0
  58:	00010000 	andeq	r0, r1, r0
  5c:	0000ec51 	andeq	lr, r0, r1, asr ip
  60:	0000f400 	andeq	pc, r0, r0, lsl #8
  64:	f3000400 	vshl.u8	d0, d0, d0
  68:	009f5101 	addseq	r5, pc, r1, lsl #2
	...
  74:	24000000 	strcs	r0, [r0], #-0
  78:	01000000 	mrseq	r0, (UNDEF: 0)
  7c:	00245200 	eoreq	r5, r4, r0, lsl #4
  80:	00400000 	subeq	r0, r0, r0
  84:	00010000 	andeq	r0, r1, r0
  88:	00004054 	andeq	r4, r0, r4, asr r0
  8c:	00005400 	andeq	r5, r0, r0, lsl #8
  90:	74000300 	strvc	r0, [r0], #-768	; 0xfffffd00
  94:	00549f10 	subseq	r9, r4, r0, lsl pc
  98:	005c0000 	subseq	r0, ip, r0
  9c:	00010000 	andeq	r0, r1, r0
  a0:	00007454 	andeq	r7, r0, r4, asr r4
  a4:	00007c00 	andeq	r7, r0, r0, lsl #24
  a8:	5c000100 	stfpls	f0, [r0], {-0}
  ac:	0000007c 	andeq	r0, r0, ip, ror r0
  b0:	00000088 	andeq	r0, r0, r8, lsl #1
  b4:	047c0003 	ldrbteq	r0, [ip], #-3
  b8:	0000889f 	muleq	r0, pc, r8	; <UNPREDICTABLE>
  bc:	00009000 	andeq	r9, r0, r0
  c0:	72000500 	andvc	r0, r0, #0, 10
  c4:	9f1a3f00 	svcls	0x001a3f00
  c8:	000000b8 	strheq	r0, [r0], -r8
  cc:	000000bc 	strheq	r0, [r0], -ip
  d0:	bc520001 	mrrclt	0, 0, r0, r2, cr1
  d4:	c4000000 	strgt	r0, [r0], #-0
  d8:	03000000 	movweq	r0, #0
  dc:	9f7f7200 	svcls	0x007f7200
  e0:	000000e4 	andeq	r0, r0, r4, ror #1
  e4:	000000ec 	andeq	r0, r0, ip, ror #1
  e8:	ec520001 	mrrc	0, 0, r0, r2, cr1
  ec:	f4000000 	vst4.8	{d0-d3}, [r0], r0
  f0:	01000000 	mrseq	r0, (UNDEF: 0)
  f4:	00005c00 	andeq	r5, r0, r0, lsl #24
  f8:	00000000 	andeq	r0, r0, r0
  fc:	00040000 	andeq	r0, r4, r0
 100:	00bc0000 	adcseq	r0, ip, r0
 104:	00010000 	andeq	r0, r1, r0
 108:	0000bc50 	andeq	fp, r0, r0, asr ip
 10c:	0000e400 	andeq	lr, r0, r0, lsl #8
 110:	53000100 	movwpl	r0, #256	; 0x100
 114:	000000e4 	andeq	r0, r0, r4, ror #1
 118:	000000f4 	strdeq	r0, [r0], -r4
 11c:	00500001 	subseq	r0, r0, r1
 120:	00000000 	andeq	r0, r0, r0
 124:	04000000 	streq	r0, [r0], #-0
 128:	74000000 	strvc	r0, [r0], #-0
 12c:	01000000 	mrseq	r0, (UNDEF: 0)
 130:	00745100 	rsbseq	r5, r4, r0, lsl #2
 134:	00b80000 	adcseq	r0, r8, r0
 138:	00040000 	andeq	r0, r4, r0
 13c:	9f5101f3 	svcls	0x005101f3
 140:	000000b8 	strheq	r0, [r0], -r8
 144:	000000c8 	andeq	r0, r0, r8, asr #1
 148:	c8510001 	ldmdagt	r1, {r0}^
 14c:	cc000000 	stcgt	0, cr0, [r0], {-0}
 150:	03000000 	movweq	r0, #0
 154:	9f017100 	svcls	0x00017100
 158:	000000e4 	andeq	r0, r0, r4, ror #1
 15c:	000000ec 	andeq	r0, r0, ip, ror #1
 160:	ec510001 	mrrc	0, 0, r0, r1, cr1
 164:	f4000000 	vst4.8	{d0-d3}, [r0], r0
 168:	04000000 	streq	r0, [r0], #-0
 16c:	5101f300 	mrspl	pc, SP_irq	; <UNPREDICTABLE>
 170:	0000009f 	muleq	r0, pc, r0	; <UNPREDICTABLE>
 174:	00000000 	andeq	r0, r0, r0
 178:	00002c00 	andeq	r2, r0, r0, lsl #24
 17c:	00003400 	andeq	r3, r0, r0, lsl #8
 180:	73000300 	movwvc	r0, #768	; 0x300
 184:	00349f04 	eorseq	r9, r4, r4, lsl #30
 188:	003c0000 	eorseq	r0, ip, r0
 18c:	00030000 	andeq	r0, r3, r0
 190:	3c9f0873 	ldccc	8, cr0, [pc], {115}	; 0x73
 194:	54000000 	strpl	r0, [r0], #-0
 198:	03000000 	movweq	r0, #0
 19c:	9f0c7300 	svcls	0x000c7300
 1a0:	00000054 	andeq	r0, r0, r4, asr r0
 1a4:	00000070 	andeq	r0, r0, r0, ror r0
 1a8:	74530001 	ldrbvc	r0, [r3], #-1
 1ac:	90000000 	andls	r0, r0, r0
 1b0:	01000000 	mrseq	r0, (UNDEF: 0)
 1b4:	00905300 	addseq	r5, r0, r0, lsl #6
 1b8:	00b80000 	adcseq	r0, r8, r0
 1bc:	00010000 	andeq	r0, r1, r0
 1c0:	0000ec54 	andeq	lr, r0, r4, asr ip
 1c4:	0000f400 	andeq	pc, r0, r0, lsl #8
 1c8:	53000100 	movwpl	r0, #256	; 0x100
	...
 1d4:	0000002c 	andeq	r0, r0, ip, lsr #32
 1d8:	00000034 	andeq	r0, r0, r4, lsr r0
 1dc:	047c0003 	ldrbteq	r0, [ip], #-3
 1e0:	0000349f 	muleq	r0, pc, r4	; <UNPREDICTABLE>
 1e4:	00003c00 	andeq	r3, r0, r0, lsl #24
 1e8:	7c000300 	stcvc	3, cr0, [r0], {-0}
 1ec:	003c9f08 	eorseq	r9, ip, r8, lsl #30
 1f0:	00500000 	subseq	r0, r0, r0
 1f4:	00030000 	andeq	r0, r3, r0
 1f8:	509f0c7c 	addspl	r0, pc, ip, ror ip	; <UNPREDICTABLE>
 1fc:	54000000 	strpl	r0, [r0], #-0
 200:	03000000 	movweq	r0, #0
 204:	9f7c7c00 	svcls	0x007c7c00
 208:	00000054 	andeq	r0, r0, r4, asr r0
 20c:	00000064 	andeq	r0, r0, r4, rrx
 210:	745c0001 	ldrbvc	r0, [ip], #-1
 214:	90000000 	andls	r0, r0, r0
 218:	01000000 	mrseq	r0, (UNDEF: 0)
 21c:	00ec5100 	rsceq	r5, ip, r0, lsl #2
 220:	00f40000 	rscseq	r0, r4, r0
 224:	00010000 	andeq	r0, r1, r0
 228:	00000051 	andeq	r0, r0, r1, asr r0
	...
 234:	00000800 	andeq	r0, r0, r0, lsl #16
 238:	7d000200 	sfmvc	f0, 4, [r0, #-0]
 23c:	00000800 	andeq	r0, r0, r0, lsl #16
 240:	0000f800 	andeq	pc, r0, r0, lsl #16
 244:	7d000200 	sfmvc	f0, 4, [r0, #-0]
 248:	00000008 	andeq	r0, r0, r8
	...
 254:	0000d400 	andeq	sp, r0, r0, lsl #8
 258:	51000100 	mrspl	r0, (UNDEF: 16)
 25c:	000000d4 	ldrdeq	r0, [r0], -r4
 260:	000000f0 	strdeq	r0, [r0], -r0	; <UNPREDICTABLE>
 264:	01f30004 	mvnseq	r0, r4
 268:	00f09f51 	rscseq	r9, r0, r1, asr pc
 26c:	00f80000 	rscseq	r0, r8, r0
 270:	00010000 	andeq	r0, r1, r0
 274:	00000051 	andeq	r0, r0, r1, asr r0
	...
 280:	00001800 	andeq	r1, r0, r0, lsl #16
 284:	52000100 	andpl	r0, r0, #0, 2
 288:	00000018 	andeq	r0, r0, r8, lsl r0
 28c:	00000064 	andeq	r0, r0, r4, rrx
 290:	80520001 	subshi	r0, r2, r1
 294:	9c000000 	stcls	0, cr0, [r0], {-0}
 298:	01000000 	mrseq	r0, (UNDEF: 0)
 29c:	009c5500 	addseq	r5, ip, r0, lsl #10
 2a0:	00a80000 	adceq	r0, r8, r0
 2a4:	00010000 	andeq	r0, r1, r0
 2a8:	0000a852 	andeq	sl, r0, r2, asr r8
 2ac:	0000ac00 	andeq	sl, r0, r0, lsl #24
 2b0:	53000100 	movwpl	r0, #256	; 0x100
 2b4:	000000ac 	andeq	r0, r0, ip, lsr #1
 2b8:	000000b4 	strheq	r0, [r0], -r4
 2bc:	04730003 	ldrbteq	r0, [r3], #-3
 2c0:	0000b49f 	muleq	r0, pc, r4	; <UNPREDICTABLE>
 2c4:	0000bc00 	andeq	fp, r0, r0, lsl #24
 2c8:	53000100 	movwpl	r0, #256	; 0x100
 2cc:	000000cc 	andeq	r0, r0, ip, asr #1
 2d0:	000000d8 	ldrdeq	r0, [r0], -r8
 2d4:	7f720003 	svcvc	0x00720003
 2d8:	0000f09f 	muleq	r0, pc, r0	; <UNPREDICTABLE>
 2dc:	0000f800 	andeq	pc, r0, r0, lsl #16
 2e0:	52000100 	andpl	r0, r0, #0, 2
	...
 2ec:	00000004 	andeq	r0, r0, r4
 2f0:	00000024 	andeq	r0, r0, r4, lsr #32
 2f4:	24500001 	ldrbcs	r0, [r0], #-1
 2f8:	34000000 	strcc	r0, [r0], #-0
 2fc:	01000000 	mrseq	r0, (UNDEF: 0)
 300:	00345300 	eorseq	r5, r4, r0, lsl #6
 304:	003c0000 	eorseq	r0, ip, r0
 308:	00030000 	andeq	r0, r3, r0
 30c:	3c9f7f73 	ldccc	15, cr7, [pc], {115}	; 0x73
 310:	5c000000 	stcpl	0, cr0, [r0], {-0}
 314:	01000000 	mrseq	r0, (UNDEF: 0)
 318:	005c5300 	subseq	r5, ip, r0, lsl #6
 31c:	009c0000 	addseq	r0, ip, r0
 320:	00010000 	andeq	r0, r1, r0
 324:	0000cc5c 	andeq	ip, r0, ip, asr ip
 328:	0000e800 	andeq	lr, r0, r0, lsl #16
 32c:	5c000100 	stfpls	f0, [r0], {-0}
 330:	000000f0 	strdeq	r0, [r0], -r0	; <UNPREDICTABLE>
 334:	000000f8 	strdeq	r0, [r0], -r8
 338:	00500001 	subseq	r0, r0, r1
 33c:	00000000 	andeq	r0, r0, r0
 340:	58000000 	stmdapl	r0, {}	; <UNPREDICTABLE>
 344:	cc000000 	stcgt	0, cr0, [r0], {-0}
 348:	03000000 	movweq	r0, #0
 34c:	9f200800 	svcls	0x00200800
	...
 358:	00000054 	andeq	r0, r0, r4, asr r0
 35c:	000000cc 	andeq	r0, r0, ip, asr #1
 360:	00540001 	subseq	r0, r4, r1
 364:	00000000 	andeq	r0, r0, r0
 368:	4c000000 	stcmi	0, cr0, [r0], {-0}
 36c:	5c000000 	stcpl	0, cr0, [r0], {-0}
 370:	01000000 	mrseq	r0, (UNDEF: 0)
 374:	005c5300 	subseq	r5, ip, r0, lsl #6
 378:	00640000 	rsbeq	r0, r4, r0
 37c:	00010000 	andeq	r0, r1, r0
 380:	0000705c 	andeq	r7, r0, ip, asr r0
 384:	00007400 	andeq	r7, r0, r0, lsl #8
 388:	73000300 	movwvc	r0, #768	; 0x300
 38c:	00749f04 	rsbseq	r9, r4, r4, lsl #30
 390:	00780000 	rsbseq	r0, r8, r0
 394:	00030000 	andeq	r0, r3, r0
 398:	789f0873 	ldmvc	pc, {r0, r1, r4, r5, r6, fp}	; <UNPREDICTABLE>
 39c:	80000000 	andhi	r0, r0, r0
 3a0:	03000000 	movweq	r0, #0
 3a4:	9f0c7300 	svcls	0x000c7300
 3a8:	00000080 	andeq	r0, r0, r0, lsl #1
 3ac:	00000088 	andeq	r0, r0, r8, lsl #1
 3b0:	9c530001 	mrrcls	0, 0, r0, r3, cr1
 3b4:	a8000000 	stmdage	r0, {}	; <UNPREDICTABLE>
 3b8:	01000000 	mrseq	r0, (UNDEF: 0)
 3bc:	00a85c00 	adceq	r5, r8, r0, lsl #24
 3c0:	00cc0000 	sbceq	r0, ip, r0
 3c4:	00010000 	andeq	r0, r1, r0
 3c8:	00000055 	andeq	r0, r0, r5, asr r0
 3cc:	00000000 	andeq	r0, r0, r0
 3d0:	00000400 	andeq	r0, r0, r0, lsl #8
 3d4:	00002000 	andeq	r2, r0, r0
 3d8:	71000600 	tstvc	r0, r0, lsl #12
 3dc:	1aff0800 	bne	fffc23e4 <_estack+0xf7fb23e4>
 3e0:	0000209f 	muleq	r0, pc, r0	; <UNPREDICTABLE>
 3e4:	00004000 	andeq	r4, r0, r0
 3e8:	54000100 	strpl	r0, [r0], #-256	; 0xffffff00
 3ec:	00000040 	andeq	r0, r0, r0, asr #32
 3f0:	000000d4 	ldrdeq	r0, [r0], -r4
 3f4:	00710006 	rsbseq	r0, r1, r6
 3f8:	9f1aff08 	svcls	0x001aff08
 3fc:	000000d4 	ldrdeq	r0, [r0], -r4
 400:	000000f0 	strdeq	r0, [r0], -r0	; <UNPREDICTABLE>
 404:	01f30007 	mvnseq	r0, r7
 408:	1aff0851 	bne	fffc2554 <_estack+0xf7fb2554>
 40c:	0000f09f 	muleq	r0, pc, r0	; <UNPREDICTABLE>
 410:	0000f800 	andeq	pc, r0, r0, lsl #16
 414:	71000600 	tstvc	r0, r0, lsl #12
 418:	1aff0800 	bne	fffc2420 <_estack+0xf7fb2420>
 41c:	0000009f 	muleq	r0, pc, r0	; <UNPREDICTABLE>
 420:	00000000 	andeq	r0, r0, r0
	...

Disassembly of section .debug_aranges:

00000000 <.debug_aranges>:
   0:	0000001c 	andeq	r0, r0, ip, lsl r0
   4:	00000002 	andeq	r0, r0, r2
   8:	00040000 	andeq	r0, r4, r0
   c:	00000000 	andeq	r0, r0, r0
  10:	00014a54 	andeq	r4, r1, r4, asr sl
  14:	000000f4 	strdeq	r0, [r0], -r4
	...
  20:	0000001c 	andeq	r0, r0, ip, lsl r0
  24:	01360002 	teqeq	r6, r2
  28:	00040000 	andeq	r0, r4, r0
  2c:	00000000 	andeq	r0, r0, r0
  30:	00014b48 	andeq	r4, r1, r8, asr #22
  34:	000000f8 	strdeq	r0, [r0], -r8
	...
  40:	0000001c 	andeq	r0, r0, ip, lsl r0
  44:	02520002 	subseq	r0, r2, #2
  48:	00040000 	andeq	r0, r4, r0
  4c:	00000000 	andeq	r0, r0, r0
  50:	00014c40 	andeq	r4, r1, r0, asr #24
  54:	00000114 	andeq	r0, r0, r4, lsl r1
	...
  60:	0000001c 	andeq	r0, r0, ip, lsl r0
  64:	02e30002 	rsceq	r0, r3, #2
  68:	00040000 	andeq	r0, r4, r0
  6c:	00000000 	andeq	r0, r0, r0
  70:	00014d54 	andeq	r4, r1, r4, asr sp
  74:	00000004 	andeq	r0, r0, r4
	...

Disassembly of section .debug_line:

00000000 <.debug_line>:
   0:	00000187 	andeq	r0, r0, r7, lsl #3
   4:	01030002 	tsteq	r3, r2
   8:	01020000 	mrseq	r0, (UNDEF: 2)
   c:	000d0efb 	strdeq	r0, [sp], -fp
  10:	01010101 	tsteq	r1, r1, lsl #2
  14:	01000000 	mrseq	r0, (UNDEF: 0)
  18:	2e010000 	cdpcs	0, 0, cr0, cr1, cr0, {0}
  1c:	2e2e2f2e 	cdpcs	15, 2, cr2, cr14, cr14, {1}
  20:	2f2e2e2f 	svccs	0x002e2e2f
  24:	2e2f2e2e 	cdpcs	14, 2, cr2, cr15, cr14, {1}
  28:	2e2e2f2e 	cdpcs	15, 2, cr2, cr14, cr14, {1}
  2c:	77656e2f 	strbvc	r6, [r5, -pc, lsr #28]!
  30:	2d62696c 	stclcs	9, cr6, [r2, #-432]!	; 0xfffffe50
  34:	30322e31 	eorscc	r2, r2, r1, lsr lr
  38:	6e2f302e 	cdpvs	0, 2, cr3, cr15, cr14, {1}
  3c:	696c7765 	stmdbvs	ip!, {r0, r2, r5, r6, r8, r9, sl, ip, sp, lr}^
  40:	696c2f62 	stmdbvs	ip!, {r1, r5, r6, r8, r9, sl, fp, sp}^
  44:	6d2f6362 	stcvs	3, cr6, [pc, #-392]!	; fffffec4 <_estack+0xf7fefec4>
  48:	69686361 	stmdbvs	r8!, {r0, r5, r6, r8, r9, sp, lr}^
  4c:	612f656e 	teqvs	pc, lr, ror #10
  50:	2e2f6d72 	mcrcs	13, 1, r6, cr15, cr2, {3}
  54:	2e2e2f2e 	cdpcs	15, 2, cr2, cr14, cr14, {1}
  58:	7274732f 	rsbsvc	r7, r4, #-1140850688	; 0xbc000000
  5c:	00676e69 	rsbeq	r6, r7, r9, ror #28
  60:	6d2f3a43 	vstmdbvs	pc!, {s6-s72}
  64:	2f737973 	svccs	0x00737973
  68:	2f302e31 	svccs	0x00302e31
  6c:	656d6f68 	strbvs	r6, [sp, #-3944]!	; 0xfffff098
  70:	6761792f 	strbvs	r7, [r1, -pc, lsr #18]!
  74:	6f747261 	svcvs	0x00747261
  78:	77656e2f 	strbvc	r6, [r5, -pc, lsr #28]!
  7c:	2d62696c 	stclcs	9, cr6, [r2, #-432]!	; 0xfffffe50
  80:	30322e31 	eorscc	r2, r2, r1, lsr lr
  84:	6e2f302e 	cdpvs	0, 2, cr3, cr15, cr14, {1}
  88:	696c7765 	stmdbvs	ip!, {r0, r2, r5, r6, r8, r9, sl, ip, sp, lr}^
  8c:	696c2f62 	stmdbvs	ip!, {r1, r5, r6, r8, r9, sl, fp, sp}^
  90:	692f6362 	stmdbvs	pc!, {r1, r5, r6, r8, r9, sp, lr}	; <UNPREDICTABLE>
  94:	756c636e 	strbvc	r6, [ip, #-878]!	; 0xfffffc92
  98:	63006564 	movwvs	r6, #1380	; 0x564
  9c:	736d5c3a 	cmnvc	sp, #14848	; 0x3a00
  a0:	315c7379 	cmpcc	ip, r9, ror r3
  a4:	685c302e 	ldmdavs	ip, {r1, r2, r3, r5, ip, sp}^
  a8:	5c656d6f 	stclpl	13, cr6, [r5], #-444	; 0xfffffe44
  ac:	61676179 	smcvs	30233	; 0x7619
  b0:	5c6f7472 	cfstrdpl	mvd7, [pc], #-456	; fffffef0 <_estack+0xf7fefef0>
  b4:	74736e69 	ldrbtvc	r6, [r3], #-3689	; 0xfffff197
  b8:	5c6c6c61 	stclpl	12, cr6, [ip], #-388	; 0xfffffe7c
  bc:	5c6e6962 	stclpl	9, cr6, [lr], #-392	; 0xfffffe78
  c0:	6c2f2e2e 	stcvs	14, cr2, [pc], #-184	; 10 <_start-0x7ff0>
  c4:	672f6269 	strvs	r6, [pc, -r9, ror #4]!
  c8:	612f6363 	teqvs	pc, r3, ror #6
  cc:	6e2d6d72 	mcrvs	13, 1, r6, cr13, cr2, {3}
  d0:	2d656e6f 	stclcs	14, cr6, [r5, #-444]!	; 0xfffffe44
  d4:	69626165 	stmdbvs	r2!, {r0, r2, r5, r6, r8, sp, lr}^
  d8:	372e342f 	strcc	r3, [lr, -pc, lsr #8]!
  dc:	692f322e 	stmdbvs	pc!, {r1, r2, r3, r5, r9, ip, sp}	; <UNPREDICTABLE>
  e0:	756c636e 	strbvc	r6, [ip, #-878]!	; 0xfffffc92
  e4:	00006564 	andeq	r6, r0, r4, ror #10
  e8:	636d656d 	cmnvs	sp, #457179136	; 0x1b400000
  ec:	632e7970 	teqvs	lr, #112, 18	; 0x1c0000
  f0:	00000100 	andeq	r0, r0, r0, lsl #2
  f4:	69727473 	ldmdbvs	r2!, {r0, r1, r4, r5, r6, sl, ip, sp, lr}^
  f8:	682e676e 	stmdavs	lr!, {r1, r2, r3, r5, r6, r8, r9, sl, sp, lr}
  fc:	00000200 	andeq	r0, r0, r0, lsl #4
 100:	64647473 	strbtvs	r7, [r4], #-1139	; 0xfffffb8d
 104:	682e6665 	stmdavs	lr!, {r0, r2, r5, r6, r9, sl, sp, lr}
 108:	00000300 	andeq	r0, r0, r0, lsl #6
 10c:	02050000 	andeq	r0, r5, #0
 110:	00014a54 	andeq	r4, r1, r4, asr sl
 114:	03013803 	movweq	r3, #6147	; 0x1803
 118:	6b030115 	blvs	c0574 <__bss_end+0xa13f0>
 11c:	2e15032e 	cdpcs	3, 1, cr0, cr5, cr14, {1}
 120:	01040200 	mrseq	r0, R12_usr
 124:	06662e06 	strbteq	r2, [r6], -r6, lsl #28
 128:	4c4b4b6e 	mcrrmi	11, 6, r4, fp, cr14
 12c:	0433292d 	ldrteq	r2, [r3], #-2349	; 0xfffff6d3
 130:	2e400302 	cdpcs	3, 4, cr0, cr0, cr2, {0}
 134:	3b030104 	blcc	c054c <__bss_end+0xa13c8>
 138:	0002044a 	andeq	r0, r2, sl, asr #8
 13c:	03010402 	movweq	r0, #5122	; 0x1402
 140:	01042e45 	tsteq	r4, r5, asr #28
 144:	01040200 	mrseq	r0, R12_usr
 148:	8200c503 	andhi	ip, r0, #12582912	; 0xc00000
 14c:	bb030204 	bllt	c0964 <__bss_end+0xa17e0>
 150:	0104827f 	tsteq	r4, pc, ror r2
 154:	9e00c003 	cdpls	0, 0, cr12, cr0, cr3, {0}
 158:	2c302c35 	ldccs	12, cr2, [r0], #-212	; 0xffffff2c
 15c:	bb030204 	bllt	c0974 <__bss_end+0xa17f0>
 160:	01042e7f 	tsteq	r4, pc, ror lr
 164:	6600c703 	strvs	ip, [r0], -r3, lsl #14
 168:	00666703 	rsbeq	r6, r6, r3, lsl #14
 16c:	03010402 	movweq	r0, #5122	; 0x1402
 170:	02042e22 	andeq	r2, r4, #544	; 0x220
 174:	4a7fb003 	bmi	1fec188 <__bss_end+0x1fcd004>
 178:	d1030104 	tstle	r3, r4, lsl #2
 17c:	4f494a00 	svcmi	0x00494a00
 180:	034a5903 	movteq	r5, #43267	; 0xa903
 184:	04024a17 	streq	r4, [r2], #-2583	; 0xfffff5e9
 188:	75010100 	strvc	r0, [r1, #-256]	; 0xffffff00
 18c:	02000001 	andeq	r0, r0, #1
 190:	0000ee00 	andeq	lr, r0, r0, lsl #28
 194:	fb010200 	blx	4099e <__bss_end+0x2181a>
 198:	01000d0e 	tsteq	r0, lr, lsl #26
 19c:	00010101 	andeq	r0, r1, r1, lsl #2
 1a0:	00010000 	andeq	r0, r1, r0
 1a4:	2e2e0100 	sufcse	f0, f6, f0
 1a8:	2f2e2e2f 	svccs	0x002e2e2f
 1ac:	2e2f2e2e 	cdpcs	14, 2, cr2, cr15, cr14, {1}
 1b0:	2e2e2f2e 	cdpcs	15, 2, cr2, cr14, cr14, {1}
 1b4:	77656e2f 	strbvc	r6, [r5, -pc, lsr #28]!
 1b8:	2d62696c 	stclcs	9, cr6, [r2, #-432]!	; 0xfffffe50
 1bc:	30322e31 	eorscc	r2, r2, r1, lsr lr
 1c0:	6e2f302e 	cdpvs	0, 2, cr3, cr15, cr14, {1}
 1c4:	696c7765 	stmdbvs	ip!, {r0, r2, r5, r6, r8, r9, sl, ip, sp, lr}^
 1c8:	696c2f62 	stmdbvs	ip!, {r1, r5, r6, r8, r9, sl, fp, sp}^
 1cc:	732f6362 	teqvc	pc, #-2013265919	; 0x88000001
 1d0:	6e697274 	mcrvs	2, 3, r7, cr9, cr4, {3}
 1d4:	3a430067 	bcc	10c0378 <__bss_end+0x10a11f4>
 1d8:	79736d2f 	ldmdbvc	r3!, {r0, r1, r2, r3, r5, r8, sl, fp, sp, lr}^
 1dc:	2e312f73 	mrccs	15, 1, r2, cr1, cr3, {3}
 1e0:	6f682f30 	svcvs	0x00682f30
 1e4:	792f656d 	stmdbvc	pc!, {r0, r2, r3, r5, r6, r8, sl, sp, lr}	; <UNPREDICTABLE>
 1e8:	72616761 	rsbvc	r6, r1, #25427968	; 0x1840000
 1ec:	6e2f6f74 	mcrvs	15, 1, r6, cr15, cr4, {3}
 1f0:	696c7765 	stmdbvs	ip!, {r0, r2, r5, r6, r8, r9, sl, ip, sp, lr}^
 1f4:	2e312d62 	cdpcs	13, 3, cr2, cr1, cr2, {3}
 1f8:	302e3032 	eorcc	r3, lr, r2, lsr r0
 1fc:	77656e2f 	strbvc	r6, [r5, -pc, lsr #28]!
 200:	2f62696c 	svccs	0x0062696c
 204:	6362696c 	cmnvs	r2, #108, 18	; 0x1b0000
 208:	636e692f 	cmnvs	lr, #770048	; 0xbc000
 20c:	6564756c 	strbvs	r7, [r4, #-1388]!	; 0xfffffa94
 210:	5c3a6300 	ldcpl	3, cr6, [sl], #-0
 214:	7379736d 	cmnvc	r9, #-1275068415	; 0xb4000001
 218:	302e315c 	eorcc	r3, lr, ip, asr r1
 21c:	6d6f685c 	stclvs	8, cr6, [pc, #-368]!	; b4 <_start-0x7f4c>
 220:	61795c65 	cmnvs	r9, r5, ror #24
 224:	74726167 	ldrbtvc	r6, [r2], #-359	; 0xfffffe99
 228:	6e695c6f 	cdpvs	12, 6, cr5, cr9, cr15, {3}
 22c:	6c617473 	cfstrdvs	mvd7, [r1], #-460	; 0xfffffe34
 230:	69625c6c 	stmdbvs	r2!, {r2, r3, r5, r6, sl, fp, ip, lr}^
 234:	2e2e5c6e 	cdpcs	12, 2, cr5, cr14, cr14, {3}
 238:	62696c2f 	rsbvs	r6, r9, #12032	; 0x2f00
 23c:	6363672f 	cmnvs	r3, #12320768	; 0xbc0000
 240:	6d72612f 	ldfvse	f6, [r2, #-188]!	; 0xffffff44
 244:	6e6f6e2d 	cdpvs	14, 6, cr6, cr15, cr13, {1}
 248:	61652d65 	cmnvs	r5, r5, ror #26
 24c:	342f6962 	strtcc	r6, [pc], #-2402	; 254 <_start-0x7dac>
 250:	322e372e 	eorcc	r3, lr, #12058624	; 0xb80000
 254:	636e692f 	cmnvs	lr, #770048	; 0xbc000
 258:	6564756c 	strbvs	r7, [r4, #-1388]!	; 0xfffffa94
 25c:	656d0000 	strbvs	r0, [sp, #-0]!
 260:	7465736d 	strbtvc	r7, [r5], #-877	; 0xfffffc93
 264:	0100632e 	tsteq	r0, lr, lsr #6
 268:	74730000 	ldrbtvc	r0, [r3], #-0
 26c:	676e6972 			; <UNDEFINED> instruction: 0x676e6972
 270:	0200682e 	andeq	r6, r0, #3014656	; 0x2e0000
 274:	74730000 	ldrbtvc	r0, [r3], #-0
 278:	66656464 	strbtvs	r6, [r5], -r4, ror #8
 27c:	0300682e 	movweq	r6, #2094	; 0x82e
 280:	00000000 	andeq	r0, r0, r0
 284:	4b480205 	blmi	1200aa0 <__bss_end+0x11e191c>
 288:	2e030001 	cdpcs	0, 0, cr0, cr3, cr1, {0}
 28c:	010a0301 	tsteq	sl, r1, lsl #6
 290:	032e7603 	teqeq	lr, #3145728	; 0x300000
 294:	f34c2e0a 	vcge.f32	d18, d12, d10
 298:	362b312b 	strtcc	r3, [fp], -fp, lsr #2
 29c:	034a7503 	movteq	r7, #42243	; 0xa503
 2a0:	7a032e18 	bvc	cbb08 <__bss_end+0xac984>
 2a4:	6c332f2e 	ldcvs	15, cr2, [r3], #-184	; 0xffffff48
 2a8:	302e7a03 	eorcc	r7, lr, r3, lsl #20
 2ac:	042f2f2f 	strteq	r2, [pc], #-3887	; 2b4 <_start-0x7d4c>
 2b0:	2e480302 	cdpcs	3, 4, cr0, cr8, cr2, {0}
 2b4:	33030104 	movwcc	r0, #12548	; 0x3104
 2b8:	0002042e 	andeq	r0, r2, lr, lsr #8
 2bc:	03010402 	movweq	r0, #5122	; 0x1402
 2c0:	01042e4d 	tsteq	r4, sp, asr #28
 2c4:	01040200 	mrseq	r0, R12_usr
 2c8:	03823c03 	orreq	r3, r2, #768	; 0x300
 2cc:	0c036677 	stceq	6, cr6, [r3], {119}	; 0x77
 2d0:	2c302b4a 	ldccs	11, cr2, [r0], #-296	; 0xfffffed8
 2d4:	44030204 	strmi	r0, [r3], #-516	; 0xfffffdfc
 2d8:	0301042e 	movweq	r0, #5166	; 0x142e
 2dc:	0200823e 	andeq	r8, r0, #-536870909	; 0xe0000003
 2e0:	09030104 	stmdbeq	r3, {r2, r8}
 2e4:	0002042e 	andeq	r0, r2, lr, lsr #8
 2e8:	03010402 	movweq	r0, #5122	; 0x1402
 2ec:	044a7fb9 	strbeq	r7, [sl], #-4025	; 0xfffff047
 2f0:	04020001 	streq	r0, [r2], #-1
 2f4:	00c70301 	sbceq	r0, r7, r1, lsl #6
 2f8:	4e2d2f2e 	cdpmi	15, 2, cr2, cr13, cr14, {1}
 2fc:	024a5303 	subeq	r5, sl, #201326592	; 0xc000000
 300:	01010004 	tsteq	r1, r4
 304:	00000086 	andeq	r0, r0, r6, lsl #1
 308:	00470002 	subeq	r0, r7, r2
 30c:	01020000 	mrseq	r0, (UNDEF: 2)
 310:	000d0efb 	strdeq	r0, [sp], -fp
 314:	01010101 	tsteq	r1, r1, lsl #2
 318:	01000000 	mrseq	r0, (UNDEF: 0)
 31c:	2e010000 	cdpcs	0, 0, cr0, cr1, cr0, {0}
 320:	2e2e2f2e 	cdpcs	15, 2, cr2, cr14, cr14, {1}
 324:	2f2e2e2f 	svccs	0x002e2e2f
 328:	2d636367 	stclcs	3, cr6, [r3, #-412]!	; 0xfffffe64
 32c:	2e372e34 	mrccs	14, 1, r2, cr7, cr4, {1}
 330:	696c2f32 	stmdbvs	ip!, {r1, r4, r5, r8, r9, sl, fp, sp}^
 334:	63636762 	cmnvs	r3, #25690112	; 0x1880000
 338:	6e6f632f 	cdpvs	3, 6, cr6, cr15, cr15, {1}
 33c:	2f676966 	svccs	0x00676966
 340:	006d7261 	rsbeq	r7, sp, r1, ror #4
 344:	62696c00 	rsbvs	r6, r9, #0, 24
 348:	6e756631 	mrcvs	6, 3, r6, cr5, cr1, {1}
 34c:	532e7363 	teqpl	lr, #-1946157055	; 0x8c000001
 350:	00000100 	andeq	r0, r0, r0, lsl #2
 354:	02050000 	andeq	r0, r5, #0
 358:	00014c40 	andeq	r4, r1, r0, asr #24
 35c:	0107cc03 	tsteq	r7, r3, lsl #24
 360:	2f2f2f30 	svccs	0x002f2f30
 364:	fe032f2f 	cdp2	15, 0, cr2, cr3, cr15, {1}
 368:	86032e7c 			; <UNDEFINED> instruction: 0x86032e7c
 36c:	013e0203 	teqeq	lr, r3, lsl #4
 370:	2f2f312f 	svccs	0x002f312f
 374:	2e7db703 	cdpcs	7, 7, cr11, cr13, cr3, {0}
 378:	0802cd03 	stmdaeq	r2, {r0, r1, r8, sl, fp, lr, pc}
 37c:	03322f90 	teqeq	r2, #144, 30	; 0x240
 380:	2f2f6616 	svccs	0x002f6616
 384:	2f2f2f2f 	svccs	0x002f2f2f
 388:	0002022f 	andeq	r0, r2, pc, lsr #4
 38c:	005d0101 	subseq	r0, sp, r1, lsl #2
 390:	00020000 	andeq	r0, r2, r0
 394:	00000047 	andeq	r0, r0, r7, asr #32
 398:	0efb0102 	cdpeq	1, 15, cr0, cr11, cr2, {0}
 39c:	0101000d 	tsteq	r1, sp
 3a0:	00000101 	andeq	r0, r0, r1, lsl #2
 3a4:	00000100 	andeq	r0, r0, r0, lsl #2
 3a8:	2f2e2e01 	svccs	0x002e2e01
 3ac:	2e2f2e2e 	cdpcs	14, 2, cr2, cr15, cr14, {1}
 3b0:	63672f2e 	cmnvs	r7, #46, 30	; 0xb8
 3b4:	2e342d63 	cdpcs	13, 3, cr2, cr4, cr3, {3}
 3b8:	2f322e37 	svccs	0x00322e37
 3bc:	6762696c 	strbvs	r6, [r2, -ip, ror #18]!
 3c0:	632f6363 	teqvs	pc, #-1946157055	; 0x8c000001
 3c4:	69666e6f 	stmdbvs	r6!, {r0, r1, r2, r3, r5, r6, r9, sl, fp, sp, lr}^
 3c8:	72612f67 	rsbvc	r2, r1, #412	; 0x19c
 3cc:	6c00006d 	stcvs	0, cr0, [r0], {109}	; 0x6d
 3d0:	66316269 	ldrtvs	r6, [r1], -r9, ror #4
 3d4:	73636e75 	cmnvc	r3, #1872	; 0x750
 3d8:	0100532e 	tsteq	r0, lr, lsr #6
 3dc:	00000000 	andeq	r0, r0, r0
 3e0:	4d540205 	lfmmi	f0, 2, [r4, #-20]	; 0xffffffec
 3e4:	93030001 	movwls	r0, #12289	; 0x3001
 3e8:	0202010a 	andeq	r0, r2, #-2147483646	; 0x80000002
 3ec:	Address 0x000003ec is out of bounds.


Disassembly of section .debug_str:

00000000 <.debug_str>:
   0:	676e6f6c 	strbvs	r6, [lr, -ip, ror #30]!
   4:	6e6f6c20 	cdpvs	12, 6, cr6, cr15, cr0, {1}
   8:	6e692067 	cdpvs	0, 6, cr2, cr9, cr7, {3}
   c:	6c610074 	stclvs	0, cr0, [r1], #-464	; 0xfffffe30
  10:	656e6769 	strbvs	r6, [lr, #-1897]!	; 0xfffff897
  14:	73645f64 	cmnvc	r4, #100, 30	; 0x190
  18:	69730074 	ldmdbvs	r3!, {r2, r4, r5, r6}^
  1c:	745f657a 	ldrbvc	r6, [pc], #-1402	; 24 <_start-0x7fdc>
  20:	554e4700 	strbpl	r4, [lr, #-1792]	; 0xfffff900
  24:	34204320 	strtcc	r4, [r0], #-800	; 0xfffffce0
  28:	322e372e 	eorcc	r3, lr, #12058624	; 0xb80000
  2c:	63727300 	cmnvs	r2, #0, 6
  30:	6f6c0030 	svcvs	0x006c0030
  34:	6c20676e 	stcvs	7, cr6, [r0], #-440	; 0xfffffe48
  38:	20676e6f 	rsbcs	r6, r7, pc, ror #28
  3c:	69736e75 	ldmdbvs	r3!, {r0, r2, r4, r5, r6, r9, sl, fp, sp, lr}^
  40:	64656e67 	strbtvs	r6, [r5], #-3687	; 0xfffff199
  44:	746e6920 	strbtvc	r6, [lr], #-2336	; 0xfffff6e0
  48:	74736400 	ldrbtvc	r6, [r3], #-1024	; 0xfffffc00
  4c:	6e750030 	mrcvs	0, 3, r0, cr5, cr0, {1}
  50:	6e676973 	mcrvs	9, 3, r6, cr7, cr3, {3}
  54:	63206465 	teqvs	r0, #1694498816	; 0x65000000
  58:	00726168 	rsbseq	r6, r2, r8, ror #2
  5c:	67696c61 	strbvs	r6, [r9, -r1, ror #24]!
  60:	5f64656e 	svcpl	0x0064656e
  64:	00637273 	rsbeq	r7, r3, r3, ror r2
  68:	636d656d 	cmnvs	sp, #457179136	; 0x1b400000
  6c:	43007970 	movwmi	r7, #2416	; 0x970
  70:	736d5c3a 	cmnvc	sp, #14848	; 0x3a00
  74:	315c7379 	cmpcc	ip, r9, ror r3
  78:	685c302e 	ldmdavs	ip, {r1, r2, r3, r5, ip, sp}^
  7c:	5c656d6f 	stclpl	13, cr6, [r5], #-444	; 0xfffffe44
  80:	61676179 	smcvs	30233	; 0x7619
  84:	5c6f7472 	cfstrdpl	mvd7, [pc], #-456	; fffffec4 <_estack+0xf7fefec4>
  88:	6c77656e 	cfldr64vs	mvdx6, [r7], #-440	; 0xfffffe48
  8c:	622d6269 	eorvs	r6, sp, #-1879048186	; 0x90000006
  90:	646c6975 	strbtvs	r6, [ip], #-2421	; 0xfffff68b
  94:	6d72615c 	ldfvse	f6, [r2, #-368]!	; 0xfffffe90
  98:	6e6f6e2d 	cdpvs	14, 6, cr6, cr15, cr13, {1}
  9c:	61652d65 	cmnvs	r5, r5, ror #26
  a0:	6e5c6962 	cdpvs	9, 5, cr6, cr12, cr2, {3}
  a4:	696c7765 	stmdbvs	ip!, {r0, r2, r5, r6, r8, r9, sl, ip, sp, lr}^
  a8:	696c5c62 	stmdbvs	ip!, {r1, r5, r6, sl, fp, ip, lr}^
  ac:	6d5c6362 	ldclvs	3, cr6, [ip, #-392]	; 0xfffffe78
  b0:	69686361 	stmdbvs	r8!, {r0, r5, r6, r8, r9, sp, lr}^
  b4:	615c656e 	cmpvs	ip, lr, ror #10
  b8:	73006d72 	movwvc	r6, #3442	; 0xd72
  bc:	74726f68 	ldrbtvc	r6, [r2], #-3944	; 0xfffff098
  c0:	736e7520 	cmnvc	lr, #32, 10	; 0x8000000
  c4:	656e6769 	strbvs	r6, [lr, #-1897]!	; 0xfffff897
  c8:	6e692064 	cdpvs	0, 6, cr2, cr9, cr4, {3}
  cc:	2e2e0074 	mcrcs	0, 1, r0, cr14, cr4, {3}
  d0:	2f2e2e2f 	svccs	0x002e2e2f
  d4:	2e2f2e2e 	cdpcs	14, 2, cr2, cr15, cr14, {1}
  d8:	2e2e2f2e 	cdpcs	15, 2, cr2, cr14, cr14, {1}
  dc:	2f2e2e2f 	svccs	0x002e2e2f
  e0:	6c77656e 	cfldr64vs	mvdx6, [r7], #-440	; 0xfffffe48
  e4:	312d6269 	teqcc	sp, r9, ror #4
  e8:	2e30322e 	cdpcs	2, 3, cr3, cr0, cr14, {1}
  ec:	656e2f30 	strbvs	r2, [lr, #-3888]!	; 0xfffff0d0
  f0:	62696c77 	rsbvs	r6, r9, #30464	; 0x7700
  f4:	62696c2f 	rsbvs	r6, r9, #12032	; 0x2f00
  f8:	616d2f63 	cmnvs	sp, r3, ror #30
  fc:	6e696863 	cdpvs	8, 6, cr6, cr9, cr3, {3}
 100:	72612f65 	rsbvc	r2, r1, #404	; 0x194
 104:	656d2f6d 	strbvs	r2, [sp, #-3949]!	; 0xfffff093
 108:	7970636d 	ldmdbvc	r0!, {r0, r2, r3, r5, r6, r8, r9, sp, lr}^
 10c:	7574732d 	ldrbvc	r7, [r4, #-813]!	; 0xfffffcd3
 110:	00632e62 	rsbeq	r2, r3, r2, ror #28
 114:	306e656c 	rsbcc	r6, lr, ip, ror #10
 118:	6f687300 	svcvs	0x00687300
 11c:	69207472 	stmdbvs	r0!, {r1, r4, r5, r6, sl, ip, sp, lr}
 120:	7300746e 	movwvc	r7, #1134	; 0x46e
 124:	74657a69 	strbtvc	r7, [r5], #-2665	; 0xfffff597
 128:	00657079 	rsbeq	r7, r5, r9, ror r0
 12c:	6d5c3a43 	vldrvs	s7, [ip, #-268]	; 0xfffffef4
 130:	5c737973 	ldclpl	9, cr7, [r3], #-460	; 0xfffffe34
 134:	5c302e31 	ldcpl	14, cr2, [r0], #-196	; 0xffffff3c
 138:	656d6f68 	strbvs	r6, [sp, #-3944]!	; 0xfffff098
 13c:	6761795c 			; <UNDEFINED> instruction: 0x6761795c
 140:	6f747261 	svcvs	0x00747261
 144:	77656e5c 			; <UNDEFINED> instruction: 0x77656e5c
 148:	2d62696c 	stclcs	9, cr6, [r2, #-432]!	; 0xfffffe50
 14c:	6c697562 	cfstr64vs	mvdx7, [r9], #-392	; 0xfffffe78
 150:	72615c64 	rsbvc	r5, r1, #100, 24	; 0x6400
 154:	6f6e2d6d 	svcvs	0x006e2d6d
 158:	652d656e 	strvs	r6, [sp, #-1390]!	; 0xfffffa92
 15c:	5c696261 	sfmpl	f6, 2, [r9], #-388	; 0xfffffe7c
 160:	6c77656e 	cfldr64vs	mvdx6, [r7], #-440	; 0xfffffe48
 164:	6c5c6269 	lfmvs	f6, 2, [ip], {105}	; 0x69
 168:	5c636269 	sfmpl	f6, 2, [r3], #-420	; 0xfffffe5c
 16c:	69727473 	ldmdbvs	r2!, {r0, r1, r4, r5, r6, sl, ip, sp, lr}^
 170:	6100676e 	tstvs	r0, lr, ror #14
 174:	6e67696c 	cdpvs	9, 6, cr6, cr7, cr12, {3}
 178:	615f6465 	cmpvs	pc, r5, ror #8
 17c:	00726464 	rsbseq	r6, r2, r4, ror #8
 180:	2e2f2e2e 	cdpcs	14, 2, cr2, cr15, cr14, {1}
 184:	2e2e2f2e 	cdpcs	15, 2, cr2, cr14, cr14, {1}
 188:	2f2e2e2f 	svccs	0x002e2e2f
 18c:	6e2f2e2e 	cdpvs	14, 2, cr2, cr15, cr14, {1}
 190:	696c7765 	stmdbvs	ip!, {r0, r2, r5, r6, r8, r9, sl, ip, sp, lr}^
 194:	2e312d62 	cdpcs	13, 3, cr2, cr1, cr2, {3}
 198:	302e3032 	eorcc	r3, lr, r2, lsr r0
 19c:	77656e2f 	strbvc	r6, [r5, -pc, lsr #28]!
 1a0:	2f62696c 	svccs	0x0062696c
 1a4:	6362696c 	cmnvs	r2, #108, 18	; 0x1b0000
 1a8:	7274732f 	rsbsvc	r7, r4, #-1140850688	; 0xbc000000
 1ac:	2f676e69 	svccs	0x00676e69
 1b0:	736d656d 	cmnvc	sp, #457179136	; 0x1b400000
 1b4:	632e7465 	teqvs	lr, #1694498816	; 0x65000000
 1b8:	6d656d00 	stclvs	13, cr6, [r5, #-0]
 1bc:	00746573 	rsbseq	r6, r4, r3, ror r5
 1c0:	66667562 	strbtvs	r7, [r6], -r2, ror #10
 1c4:	Address 0x000001c4 is out of bounds.


Disassembly of section .debug_frame:

00000000 <.debug_frame>:
   0:	0000000c 	andeq	r0, r0, ip
   4:	ffffffff 			; <UNDEFINED> instruction: 0xffffffff
   8:	7c020001 	stcvc	0, cr0, [r2], {1}
   c:	000d0c0e 	andeq	r0, sp, lr, lsl #24
  10:	00000018 	andeq	r0, r0, r8, lsl r0
  14:	00000000 	andeq	r0, r0, r0
  18:	00014a54 	andeq	r4, r1, r4, asr sl
  1c:	000000f4 	strdeq	r0, [r0], -r4
  20:	84100e44 	ldrhi	r0, [r0], #-3652	; 0xfffff1bc
  24:	86038504 	strhi	r8, [r3], -r4, lsl #10
  28:	00018702 	andeq	r8, r1, r2, lsl #14
  2c:	0000000c 	andeq	r0, r0, ip
  30:	ffffffff 			; <UNDEFINED> instruction: 0xffffffff
  34:	7c020001 	stcvc	0, cr0, [r2], {1}
  38:	000d0c0e 	andeq	r0, sp, lr, lsl #24
  3c:	00000014 	andeq	r0, r0, r4, lsl r0
  40:	0000002c 	andeq	r0, r0, ip, lsr #32
  44:	00014b48 	andeq	r4, r1, r8, asr #22
  48:	000000f8 	strdeq	r0, [r0], -r8
  4c:	84080e44 	strhi	r0, [r8], #-3652	; 0xfffff1bc
  50:	00018502 	andeq	r8, r1, r2, lsl #10
  54:	0000000c 	andeq	r0, r0, ip
  58:	ffffffff 			; <UNDEFINED> instruction: 0xffffffff
  5c:	7c010001 	stcvc	0, cr0, [r1], {1}
  60:	000d0c0e 	andeq	r0, sp, lr, lsl #24
  64:	0000000c 	andeq	r0, r0, ip
  68:	00000054 	andeq	r0, r0, r4, asr r0
  6c:	00014c40 	andeq	r4, r1, r0, asr #24
  70:	000000f4 	strdeq	r0, [r0], -r4
